   1               		.file	"main.c"
   2               	__SREG__ = 0x3f
   3               	__SP_H__ = 0x3e
   4               	__SP_L__ = 0x3d
   5               	__CCP__  = 0x34
   6               	__tmp_reg__ = 0
   7               	__zero_reg__ = 1
  15               	.Ltext0:
  16               	.global	gatherMult
  18               	gatherMult:
  19               	.LFB6:
  20               	.LM1:
  21               	/* prologue: function */
  22               	/* frame size = 0 */
  23               	.LM2:
  24 0000 5E98      		cbi 43-32,6
  25               	.LM3:
  26 0002 5F98      		cbi 43-32,7
  27               	.LM4:
  28 0004 5D98      		cbi 43-32,5
  29               	.LM5:
  30 0006 4498      		cbi 40-32,4
  31               	.LM6:
  32 0008 419A      		sbi 40-32,1
  33               	.LM7:
  34 000a 2A9A      		sbi 37-32,2
  35               	.LM8:
  36 000c 299A      		sbi 37-32,1
  37               	.LM9:
  38 000e 289A      		sbi 37-32,0
  39               	/* epilogue start */
  40               	.LM10:
  41 0010 0895      		ret
  42               	.LFE6:
  44               	.global	separMult
  46               	separMult:
  47               	.LFB7:
  48               	.LM11:
  49               	/* prologue: function */
  50               	/* frame size = 0 */
  51               	.LM12:
  52 0012 2A98      		cbi 37-32,2
  53               	.LM13:
  54 0014 4198      		cbi 40-32,1
  55               	.LM14:
  56 0016 449A      		sbi 40-32,4
  57               	.LM15:
  58 0018 5E9A      		sbi 43-32,6
  59               	.LM16:
  60 001a 5F9A      		sbi 43-32,7
  61               	.LM17:
  62 001c 289A      		sbi 37-32,0
  63               	.LM18:
  64 001e 5D9A      		sbi 43-32,5
  65               	/* epilogue start */
  66               	.LM19:
  67 0020 0895      		ret
  68               	.LFE7:
  70               	.global	set_reverser
  72               	set_reverser:
  73               	.LFB8:
  74               	.LM20:
  75               	.LVL0:
  76               	/* prologue: function */
  77               	/* frame size = 0 */
  78               	/* epilogue start */
  79               	.LM21:
  80 0022 0895      		ret
  81               	.LFE8:
  83               	.global	ADC_Init
  85               	ADC_Init:
  86               	.LFB10:
  87               	.LM22:
  88               	/* prologue: function */
  89               	/* frame size = 0 */
  90               	.LM23:
  91 0024 EAE7      		ldi r30,lo8(122)
  92 0026 F0E0      		ldi r31,hi8(122)
  93 0028 8081      		ld r24,Z
  94 002a 8368      		ori r24,lo8(-125)
  95 002c 8083      		st Z,r24
  96               	.LM24:
  97 002e ECE7      		ldi r30,lo8(124)
  98 0030 F0E0      		ldi r31,hi8(124)
  99 0032 8081      		ld r24,Z
 100 0034 8064      		ori r24,lo8(64)
 101 0036 8083      		st Z,r24
 102               	/* epilogue start */
 103               	.LM25:
 104 0038 0895      		ret
 105               	.LFE10:
 107               	.global	timer_init
 109               	timer_init:
 110               	.LFB11:
 111               	.LM26:
 112               	/* prologue: function */
 113               	/* frame size = 0 */
 114               	.LM27:
 115 003a 1092 B000 		sts 176,__zero_reg__
 116               	.LM28:
 117 003e E1EB      		ldi r30,lo8(177)
 118 0040 F0E0      		ldi r31,hi8(177)
 119 0042 1082      		st Z,__zero_reg__
 120               	.LM29:
 121 0044 8081      		ld r24,Z
 122 0046 8260      		ori r24,lo8(2)
 123 0048 8083      		st Z,r24
 124               	.LM30:
 125 004a 81E0      		ldi r24,lo8(1)
 126 004c 8093 7000 		sts 112,r24
 127               	/* epilogue start */
 128               	.LM31:
 129 0050 0895      		ret
 130               	.LFE11:
 132               	.global	uart_init
 134               	uart_init:
 135               	.LFB12:
 136               	.LM32:
 137               	.LVL1:
 138               	/* prologue: function */
 139               	/* frame size = 0 */
 140               	.LM33:
 141 0052 9093 C500 		sts 197,r25
 142               	.LVL2:
 143               	.LM34:
 144 0056 8093 C400 		sts 196,r24
 145               	.LM35:
 146 005a 88E9      		ldi r24,lo8(-104)
 147               	.LVL3:
 148 005c 8093 C100 		sts 193,r24
 149               	.LM36:
 150 0060 8EE0      		ldi r24,lo8(14)
 151 0062 8093 C200 		sts 194,r24
 152               	/* epilogue start */
 153               	.LM37:
 154 0066 0895      		ret
 155               	.LFE12:
 157               	.global	SPI_MasterInit
 159               	SPI_MasterInit:
 160               	.LFB13:
 161               	.LM38:
 162               	/* prologue: function */
 163               	/* frame size = 0 */
 164               	.LM39:
 165 0068 84B1      		in r24,36-32
 166 006a 8C62      		ori r24,lo8(44)
 167 006c 84B9      		out 36-32,r24
 168               	.LM40:
 169 006e 88E5      		ldi r24,lo8(88)
 170 0070 8CBD      		out 76-32,r24
 171               	/* epilogue start */
 172               	.LM41:
 173 0072 0895      		ret
 174               	.LFE13:
 176               	.global	SPI_WriteByte
 178               	SPI_WriteByte:
 179               	.LFB15:
 180               	.LM42:
 181               	.LVL4:
 182               	/* prologue: function */
 183               	/* frame size = 0 */
 184               	.LM43:
 185 0074 8EBD      		out 78-32,r24
 186               	.L16:
 187               	.LM44:
 188 0076 0DB4      		in __tmp_reg__,77-32
 189 0078 07FE      		sbrs __tmp_reg__,7
 190 007a 00C0      		rjmp .L16
 191               	/* epilogue start */
 192               	.LM45:
 193 007c 0895      		ret
 194               	.LFE15:
 196               	.global	prepareResetDAC
 198               	prepareResetDAC:
 199               	.LFB14:
 200               	.LM46:
 201               	.LVL5:
 202 007e 0F93      		push r16
 203 0080 1F93      		push r17
 204 0082 CF93      		push r28
 205 0084 DF93      		push r29
 206               	/* prologue: function */
 207               	/* frame size = 0 */
 208               	.LM47:
 209 0086 9BB1      		in r25,43-32
 210 0088 282F      		mov r18,r24
 211 008a 2595      		asr r18
 212 008c 2595      		asr r18
 213 008e 2595      		asr r18
 214 0090 C22F      		mov r28,r18
 215 0092 DD27      		clr r29
 216 0094 C7FD      		sbrc r28,7
 217 0096 D095      		com r29
 218 0098 C050      		subi r28,lo8(-(SYNC_PINS))
 219 009a D040      		sbci r29,hi8(-(SYNC_PINS))
 220 009c 01E0      		ldi r16,lo8(1)
 221 009e 10E0      		ldi r17,hi8(1)
 222 00a0 9801      		movw r18,r16
 223 00a2 0880      		ld r0,Y
 224 00a4 00C0      		rjmp 2f
 225 00a6 220F      	1:	lsl r18
 226 00a8 331F      		rol r19
 227 00aa 0A94      	2:	dec r0
 228 00ac 02F4      		brpl 1b
 229 00ae 2095      		com r18
 230 00b0 2923      		and r18,r25
 231 00b2 2BB9      		out 43-32,r18
 232               	.LM48:
 233 00b4 68E0      		ldi r22,lo8(8)
 234 00b6 0E94 0000 		call __divmodqi4
 235               	.LVL6:
 236 00ba E92F      		mov r30,r25
 237 00bc FF27      		clr r31
 238 00be E7FD      		sbrc r30,7
 239 00c0 F095      		com r31
 240 00c2 E050      		subi r30,lo8(-(chan_addrs))
 241 00c4 F040      		sbci r31,hi8(-(chan_addrs))
 242 00c6 8081      		ld r24,Z
 243 00c8 8860      		ori r24,lo8(8)
 244 00ca 90E0      		ldi r25,lo8(0)
 245 00cc 0E94 0000 		call SPI_WriteByte
 246               	.LM49:
 247 00d0 80E0      		ldi r24,lo8(0)
 248 00d2 90E0      		ldi r25,hi8(0)
 249 00d4 0E94 0000 		call SPI_WriteByte
 250               	.LM50:
 251 00d8 8BB1      		in r24,43-32
 252 00da 0880      		ld r0,Y
 253 00dc 00C0      		rjmp 2f
 254 00de 000F      	1:	lsl r16
 255 00e0 111F      		rol r17
 256 00e2 0A94      	2:	dec r0
 257 00e4 02F4      		brpl 1b
 258 00e6 802B      		or r24,r16
 259 00e8 8BB9      		out 43-32,r24
 260               	/* epilogue start */
 261               	.LM51:
 262 00ea DF91      		pop r29
 263 00ec CF91      		pop r28
 264 00ee 1F91      		pop r17
 265 00f0 0F91      		pop r16
 266 00f2 0895      		ret
 267               	.LFE14:
 269               	.global	prepareSetDAC
 271               	prepareSetDAC:
 272               	.LFB9:
 273               	.LM52:
 274               	.LVL7:
 275 00f4 CF92      		push r12
 276 00f6 DF92      		push r13
 277 00f8 EF92      		push r14
 278 00fa FF92      		push r15
 279 00fc 0F93      		push r16
 280 00fe 1F93      		push r17
 281 0100 CF93      		push r28
 282 0102 DF93      		push r29
 283               	/* prologue: function */
 284               	/* frame size = 0 */
 285 0104 E62F      		mov r30,r22
 286               	.LM53:
 287 0106 0027      		clr r16
 288 0108 1127      		clr r17
 289 010a 081B      		sub r16,r24
 290 010c 190B      		sbc r17,r25
 291               	.LVL8:
 292               	.LM54:
 293 010e 0050      		subi r16,lo8(-(2048))
 294 0110 184F      		sbci r17,hi8(-(2048))
 295               	.LM55:
 296 0112 C62E      		mov r12,r22
 297 0114 C694      		lsr r12
 298 0116 C694      		lsr r12
 299 0118 C694      		lsr r12
 300 011a 8C2D      		mov r24,r12
 301 011c 90E0      		ldi r25,lo8(0)
 302 011e 6C01      		movw r12,r24
 303 0120 CC0C      		lsl r12
 304 0122 DD1C      		rol r13
 305 0124 20E0      		ldi r18,lo8(REGS_OUT)
 306 0126 30E0      		ldi r19,hi8(REGS_OUT)
 307 0128 C20E      		add r12,r18
 308 012a D31E      		adc r13,r19
 309 012c E601      		movw r28,r12
 310 012e A881      		ld r26,Y
 311 0130 B981      		ldd r27,Y+1
 312 0132 EC01      		movw r28,r24
 313 0134 C050      		subi r28,lo8(-(SYNC_PINS))
 314 0136 D040      		sbci r29,hi8(-(SYNC_PINS))
 315 0138 91E0      		ldi r25,lo8(1)
 316 013a E92E      		mov r14,r25
 317 013c F12C      		mov r15,__zero_reg__
 318 013e C701      		movw r24,r14
 319 0140 0880      		ld r0,Y
 320 0142 00C0      		rjmp 2f
 321 0144 880F      	1:	lsl r24
 322 0146 991F      		rol r25
 323 0148 0A94      	2:	dec r0
 324 014a 02F4      		brpl 1b
 325 014c 8095      		com r24
 326 014e 2C91      		ld r18,X
 327 0150 2823      		and r18,r24
 328 0152 2C93      		st X,r18
 329               	.LM56:
 330 0154 812F      		mov r24,r17
 331 0156 9927      		clr r25
 332 0158 87FD      		sbrc r24,7
 333 015a 9A95      		dec r25
 334 015c 8F70      		andi r24,lo8(15)
 335 015e F0E0      		ldi r31,lo8(0)
 336               	.LVL9:
 337 0160 E770      		andi r30,lo8(7)
 338 0162 F070      		andi r31,hi8(7)
 339               	.LVL10:
 340 0164 E050      		subi r30,lo8(-(chan_addrs))
 341 0166 F040      		sbci r31,hi8(-(chan_addrs))
 342               	.LVL11:
 343 0168 2081      		ld r18,Z
 344 016a 822B      		or r24,r18
 345 016c 90E0      		ldi r25,lo8(0)
 346 016e 0E94 0000 		call SPI_WriteByte
 347               	.LVL12:
 348               	.LM57:
 349 0172 0093 0000 		sts send8.1395,r16
 350               	.LM58:
 351 0176 802F      		mov r24,r16
 352 0178 90E0      		ldi r25,lo8(0)
 353 017a 0E94 0000 		call SPI_WriteByte
 354               	.LM59:
 355 017e D601      		movw r26,r12
 356 0180 ED91      		ld r30,X+
 357 0182 FC91      		ld r31,X
 358 0184 0880      		ld r0,Y
 359 0186 00C0      		rjmp 2f
 360 0188 EE0C      	1:	lsl r14
 361 018a FF1C      		rol r15
 362 018c 0A94      	2:	dec r0
 363 018e 02F4      		brpl 1b
 364 0190 8081      		ld r24,Z
 365 0192 8E29      		or r24,r14
 366 0194 8083      		st Z,r24
 367               	/* epilogue start */
 368               	.LM60:
 369 0196 DF91      		pop r29
 370 0198 CF91      		pop r28
 371 019a 1F91      		pop r17
 372 019c 0F91      		pop r16
 373               	.LVL13:
 374 019e FF90      		pop r15
 375 01a0 EF90      		pop r14
 376 01a2 DF90      		pop r13
 377 01a4 CF90      		pop r12
 378 01a6 0895      		ret
 379               	.LFE9:
 381               	.global	setDAC
 383               	setDAC:
 384               	.LFB16:
 385               	.LM61:
 386               	/* prologue: function */
 387               	/* frame size = 0 */
 388               	.LM62:
 389 01a8 5A98      		cbi 43-32,2
 390               	.LM63:
 391 01aa 5A9A      		sbi 43-32,2
 392               	/* epilogue start */
 393               	.LM64:
 394 01ac 0895      		ret
 395               	.LFE16:
 397               	.global	main
 399               	main:
 400               	.LFB17:
 401               	.LM65:
 402 01ae 1F93      		push r17
 403               	/* prologue: function */
 404               	/* frame size = 0 */
 405               	.LM66:
 406 01b0 8091 0000 		lds r24,STAT_CYCLE
 407 01b4 9091 0000 		lds r25,STAT_N
 408 01b8 899F      		mul r24,r25
 409 01ba 802D      		mov r24,r0
 410 01bc 1124      		clr r1
 411 01be 8093 0000 		sts BIG_STAT_N,r24
 412 01c2 E0E0      		ldi r30,lo8(chan_addrs)
 413 01c4 F0E0      		ldi r31,hi8(chan_addrs)
 414               	.L26:
 415               	.LBB69:
 416               	.LM67:
 417 01c6 8081      		ld r24,Z
 418 01c8 8295      		swap r24
 419 01ca 807F      		andi r24,lo8(-16)
 420 01cc 8193      		st Z+,r24
 421               	.LM68:
 422 01ce 80E0      		ldi r24,hi8(chan_addrs+8)
 423 01d0 E030      		cpi r30,lo8(chan_addrs+8)
 424 01d2 F807      		cpc r31,r24
 425 01d4 01F4      		brne .L26
 426               	.LBE69:
 427               	.LM69:
 428 01d6 8EE1      		ldi r24,lo8(30)
 429 01d8 87B9      		out 39-32,r24
 430               	.LM70:
 431 01da 8FEF      		ldi r24,lo8(-1)
 432 01dc 8AB9      		out 42-32,r24
 433               	.LM71:
 434 01de 8FE1      		ldi r24,lo8(31)
 435 01e0 84B9      		out 36-32,r24
 436               	.LM72:
 437               	/* #APP */
 438               	 ;  172 "main.c" 1
 439 01e2 7894      		sei
 440               	 ;  0 "" 2
 441               	/* #NOAPP */
 442               	.LBB70:
 443               	.LBB71:
 444               	.LM73:
 445 01e4 84B1      		in r24,36-32
 446 01e6 8C62      		ori r24,lo8(44)
 447 01e8 84B9      		out 36-32,r24
 448               	.LM74:
 449 01ea 88E5      		ldi r24,lo8(88)
 450 01ec 8CBD      		out 76-32,r24
 451               	.LBE71:
 452               	.LBE70:
 453               	.LBB72:
 454               	.LBB73:
 455               	.LM75:
 456 01ee 1092 B000 		sts 176,__zero_reg__
 457               	.LM76:
 458 01f2 1092 B100 		sts 177,__zero_reg__
 459               	.LM77:
 460 01f6 8091 B100 		lds r24,177
 461 01fa 8260      		ori r24,lo8(2)
 462 01fc 8093 B100 		sts 177,r24
 463               	.LM78:
 464 0200 81E0      		ldi r24,lo8(1)
 465 0202 8093 7000 		sts 112,r24
 466               	.LBE73:
 467               	.LBE72:
 468               	.LBB74:
 469               	.LBB75:
 470               	.LM79:
 471 0206 1092 C500 		sts 197,__zero_reg__
 472               	.LM80:
 473 020a 83E3      		ldi r24,lo8(51)
 474 020c 8093 C400 		sts 196,r24
 475               	.LM81:
 476 0210 88E9      		ldi r24,lo8(-104)
 477 0212 8093 C100 		sts 193,r24
 478               	.LM82:
 479 0216 8EE0      		ldi r24,lo8(14)
 480 0218 8093 C200 		sts 194,r24
 481               	.LBE75:
 482               	.LBE74:
 483               	.LBB76:
 484               	.LBB77:
 485               	.LM83:
 486 021c 8091 7A00 		lds r24,122
 487 0220 8368      		ori r24,lo8(-125)
 488 0222 8093 7A00 		sts 122,r24
 489               	.LM84:
 490 0226 8091 7C00 		lds r24,124
 491 022a 8064      		ori r24,lo8(64)
 492 022c 8093 7C00 		sts 124,r24
 493               	.LBE77:
 494               	.LBE76:
 495               	.LM85:
 496 0230 8091 7A00 		lds r24,122
 497 0234 8064      		ori r24,lo8(64)
 498 0236 8093 7A00 		sts 122,r24
 499               	.LM86:
 500 023a 8091 7800 		lds r24,120
 501               	.LM87:
 502 023e 8091 7800 		lds r24,120
 503 0242 10E0      		ldi r17,lo8(0)
 504               	.L27:
 505               	.LBB78:
 506               	.LM88:
 507 0244 80E0      		ldi r24,lo8(0)
 508 0246 90E0      		ldi r25,hi8(0)
 509 0248 612F      		mov r22,r17
 510 024a 0E94 0000 		call prepareSetDAC
 511 024e 1F5F      		subi r17,lo8(-(1))
 512               	.LM89:
 513 0250 1034      		cpi r17,lo8(64)
 514 0252 01F4      		brne .L27
 515               	.LBE78:
 516               	.LBB79:
 517               	.LBB80:
 518               	.LM90:
 519 0254 5A98      		cbi 43-32,2
 520               	.LM91:
 521 0256 5A9A      		sbi 43-32,2
 522               	.L28:
 523 0258 00C0      		rjmp .L28
 524               	.LBE80:
 525               	.LBE79:
 526               	.LFE17:
 528               	.global	__vector_9
 530               	__vector_9:
 531               	.LFB18:
 532               	.LM92:
 533 025a 1F92      		push __zero_reg__
 534 025c 0F92      		push r0
 535 025e 0FB6      		in r0,__SREG__
 536 0260 0F92      		push r0
 537 0262 1124      		clr __zero_reg__
 538 0264 2F93      		push r18
 539 0266 3F93      		push r19
 540 0268 4F93      		push r20
 541 026a 5F93      		push r21
 542 026c 6F93      		push r22
 543 026e 7F93      		push r23
 544 0270 8F93      		push r24
 545 0272 9F93      		push r25
 546 0274 AF93      		push r26
 547 0276 BF93      		push r27
 548 0278 EF93      		push r30
 549 027a FF93      		push r31
 550               	/* prologue: Signal */
 551               	/* frame size = 0 */
 552               	.LM93:
 553 027c 2091 0000 		lds r18,ctr
 554 0280 3091 0000 		lds r19,(ctr)+1
 555 0284 8091 0000 		lds r24,time_step
 556 0288 9091 0000 		lds r25,(time_step)+1
 557 028c 8217      		cp r24,r18
 558 028e 9307      		cpc r25,r19
 559 0290 04F0      		brlt .+2
 560 0292 00C0      		rjmp .L33
 561               	.LM94:
 562 0294 6091 0000 		lds r22,MD
 563 0298 6623      		tst r22
 564 029a 01F0      		breq .+2
 565 029c 00C0      		rjmp .L34
 566               	.LM95:
 567 029e 2091 0000 		lds r18,event_cnt
 568 02a2 3091 0000 		lds r19,(event_cnt)+1
 569 02a6 2130      		cpi r18,1
 570 02a8 3105      		cpc r19,__zero_reg__
 571 02aa 01F4      		brne .L35
 572               	.LM96:
 573 02ac 9091 7800 		lds r25,120
 574 02b0 9093 0000 		sts ADCL_,r25
 575               	.LM97:
 576 02b4 8091 7900 		lds r24,121
 577 02b8 8093 0000 		sts ADCH_,r24
 578               	.LM98:
 579 02bc 9093 C600 		sts 198,r25
 580 02c0 00C0      		rjmp .L36
 581               	.L35:
 582               	.LM99:
 583 02c2 2230      		cpi r18,2
 584 02c4 3105      		cpc r19,__zero_reg__
 585 02c6 01F4      		brne .L37
 586               	.LM100:
 587 02c8 8091 0000 		lds r24,ADCH_
 588 02cc 8093 C600 		sts 198,r24
 589 02d0 00C0      		rjmp .L36
 590               	.L37:
 591               	.LM101:
 592 02d2 2115      		cp r18,__zero_reg__
 593 02d4 3105      		cpc r19,__zero_reg__
 594 02d6 01F4      		brne .L36
 595               	.LM102:
 596 02d8 8FEF      		ldi r24,lo8(-1)
 597 02da 00C0      		rjmp .L116
 598               	.L36:
 599               	.LM103:
 600 02dc 8091 0000 		lds r24,t1
 601 02e0 90E0      		ldi r25,lo8(0)
 602 02e2 2817      		cp r18,r24
 603 02e4 3907      		cpc r19,r25
 604 02e6 01F4      		brne .+2
 605 02e8 00C0      		rjmp .L38
 606               	.LM104:
 607 02ea 8091 0000 		lds r24,dT
 608 02ee 90E0      		ldi r25,lo8(0)
 609 02f0 2817      		cp r18,r24
 610 02f2 3907      		cpc r19,r25
 611 02f4 01F4      		brne .+2
 612 02f6 00C0      		rjmp .L38
 613               	.LM105:
 614 02f8 0196      		adiw r24,1
 615 02fa 2817      		cp r18,r24
 616 02fc 3907      		cpc r19,r25
 617 02fe 01F4      		brne .+2
 618 0300 00C0      		rjmp .L109
 619               	.L39:
 620               	.LM106:
 621 0302 8091 0000 		lds r24,dTt2
 622 0306 90E0      		ldi r25,lo8(0)
 623 0308 2817      		cp r18,r24
 624 030a 3907      		cpc r19,r25
 625 030c 01F0      		breq .+2
 626 030e 00C0      		rjmp .L38
 627               	.LM107:
 628 0310 8091 C000 		lds r24,192
 629 0314 85FF      		sbrs r24,5
 630 0316 00C0      		rjmp .L38
 631               	.LM108:
 632 0318 8091 0000 		lds r24,_adc
 633 031c 00C0      		rjmp .L103
 634               	.L34:
 635               	.LM109:
 636 031e 6730      		cpi r22,lo8(7)
 637 0320 01F4      		brne .+2
 638 0322 00C0      		rjmp .L38
 639               	.LM110:
 640 0324 6130      		cpi r22,lo8(1)
 641 0326 01F0      		breq .+2
 642 0328 00C0      		rjmp .L40
 643               	.LM111:
 644 032a 8091 0000 		lds r24,UDP_cnt
 645 032e 8230      		cpi r24,lo8(2)
 646 0330 01F0      		breq .L44
 647 0332 8330      		cpi r24,lo8(3)
 648 0334 00F4      		brsh .L47
 649 0336 8823      		tst r24
 650 0338 01F0      		breq .L42
 651 033a 8130      		cpi r24,lo8(1)
 652 033c 01F0      		breq .+2
 653 033e 00C0      		rjmp .L41
 654 0340 00C0      		rjmp .L117
 655               	.L47:
 656 0342 8330      		cpi r24,lo8(3)
 657 0344 01F0      		breq .L45
 658 0346 8430      		cpi r24,lo8(4)
 659 0348 01F0      		breq .+2
 660 034a 00C0      		rjmp .L41
 661 034c 00C0      		rjmp .L46
 662               	.L42:
 663               	.LM112:
 664 034e 8091 7A00 		lds r24,122
 665 0352 8064      		ori r24,lo8(64)
 666 0354 8093 7A00 		sts 122,r24
 667               	.LM113:
 668 0358 8FEF      		ldi r24,lo8(-1)
 669 035a 00C0      		rjmp .L101
 670               	.L117:
 671               	.LM114:
 672 035c 8091 0000 		lds r24,ADCL_
 673 0360 8093 0000 		sts ADCL__,r24
 674               	.LM115:
 675 0364 8091 0000 		lds r24,ADCH_
 676 0368 8093 0000 		sts ADCH__,r24
 677               	.LM116:
 678 036c 9091 7800 		lds r25,120
 679 0370 9093 0000 		sts ADCL_,r25
 680               	.LM117:
 681 0374 8091 7900 		lds r24,121
 682 0378 8093 0000 		sts ADCH_,r24
 683               	.LM118:
 684 037c 9093 C600 		sts 198,r25
 685 0380 00C0      		rjmp .L41
 686               	.L44:
 687               	.LM119:
 688 0382 8091 0000 		lds r24,ADCH_
 689               	.L101:
 690 0386 8093 C600 		sts 198,r24
 691 038a 00C0      		rjmp .L41
 692               	.L45:
 693               	.LM120:
 694 038c 2091 0000 		lds r18,voltage16
 695 0390 3091 0000 		lds r19,(voltage16)+1
 696 0394 3093 0000 		sts (voltage16_h)+1,r19
 697 0398 2093 0000 		sts voltage16_h,r18
 698               	.LM121:
 699 039c 8091 0000 		lds r24,pos_phase
 700 03a0 8823      		tst r24
 701 03a2 01F0      		breq .L48
 702               	.LM122:
 703 03a4 205E      		subi r18,lo8(-(32))
 704 03a6 3F4F      		sbci r19,hi8(-(32))
 705 03a8 3093 0000 		sts (voltage16)+1,r19
 706 03ac 2093 0000 		sts voltage16,r18
 707               	.LM123:
 708 03b0 8091 0000 		lds r24,ref16
 709 03b4 9091 0000 		lds r25,(ref16)+1
 710 03b8 2817      		cp r18,r24
 711 03ba 3907      		cpc r19,r25
 712 03bc 04F0      		brlt .L49
 713               	.LM124:
 714 03be 1092 0000 		sts pos_phase,__zero_reg__
 715 03c2 00C0      		rjmp .L49
 716               	.L48:
 717               	.LM125:
 718 03c4 C901      		movw r24,r18
 719 03c6 8097      		sbiw r24,32
 720 03c8 9093 0000 		sts (voltage16)+1,r25
 721 03cc 8093 0000 		sts voltage16,r24
 722               	.LM126:
 723 03d0 21E0      		ldi r18,lo8(1)
 724 03d2 30E0      		ldi r19,hi8(1)
 725 03d4 4091 0000 		lds r20,x16
 726 03d8 5091 0000 		lds r21,(x16)+1
 727 03dc 241B      		sub r18,r20
 728 03de 350B      		sbc r19,r21
 729 03e0 8217      		cp r24,r18
 730 03e2 9307      		cpc r25,r19
 731 03e4 04F4      		brge .L49
 732               	.LM127:
 733 03e6 6093 0000 		sts pos_phase,r22
 734               	.L49:
 735               	.LM128:
 736 03ea 8091 0000 		lds r24,voltage16
 737 03ee 9091 0000 		lds r25,(voltage16)+1
 738 03f2 9C01      		movw r18,r24
 739 03f4 B4E0      		ldi r27,4
 740 03f6 3595      	1:	asr r19
 741 03f8 2795      		ror r18
 742 03fa BA95      		dec r27
 743 03fc 01F4      		brne 1b
 744 03fe 2093 C600 		sts 198,r18
 745               	.LM129:
 746 0402 6091 0000 		lds r22,chan
 747 0406 0E94 0000 		call prepareSetDAC
 748               	.LBB81:
 749               	.LBB82:
 750               	.LM130:
 751 040a 5A98      		cbi 43-32,2
 752               	.LM131:
 753 040c 5A9A      		sbi 43-32,2
 754               	.L46:
 755               	.LBE82:
 756               	.LBE81:
 757               	.LM132:
 758 040e 1092 C600 		sts 198,__zero_reg__
 759               	.L41:
 760               	.LM133:
 761 0412 8091 0000 		lds r24,UDP_cnt
 762 0416 8F5F      		subi r24,lo8(-(1))
 763 0418 65E0      		ldi r22,lo8(5)
 764 041a 0E94 0000 		call __udivmodqi4
 765 041e 9093 0000 		sts UDP_cnt,r25
 766 0422 00C0      		rjmp .L38
 767               	.L40:
 768               	.LM134:
 769 0424 6230      		cpi r22,lo8(2)
 770 0426 01F0      		breq .+2
 771 0428 00C0      		rjmp .L50
 772               	.LBB83:
 773               	.LM135:
 774 042a 80E1      		ldi r24,lo8(16)
 775 042c 8093 0000 		sts T,r24
 776               	.LM136:
 777 0430 8091 0000 		lds r24,event_cnt
 778 0434 9091 0000 		lds r25,(event_cnt)+1
 779 0438 0097      		sbiw r24,0
 780 043a 01F4      		brne .L51
 781               	.LM137:
 782 043c 8FEF      		ldi r24,lo8(-1)
 783 043e 8093 C600 		sts 198,r24
 784 0442 00C0      		rjmp .L104
 785               	.L51:
 786               	.LM138:
 787 0444 8130      		cpi r24,1
 788 0446 9105      		cpc r25,__zero_reg__
 789 0448 01F4      		brne .L52
 790               	.LM139:
 791 044a 8091 0000 		lds r24,PROGRAM_done
 792 044e 00C0      		rjmp .L103
 793               	.L52:
 794               	.LM140:
 795 0450 8230      		cpi r24,2
 796 0452 9105      		cpc r25,__zero_reg__
 797 0454 01F4      		brne .+2
 798 0456 00C0      		rjmp .L108
 799               	.L53:
 800               	.LM141:
 801 0458 8330      		cpi r24,3
 802 045a 9105      		cpc r25,__zero_reg__
 803 045c 01F4      		brne .L54
 804               	.LM142:
 805 045e 8091 0000 		lds r24,ADCH_
 806 0462 8093 C600 		sts 198,r24
 807               	.LM143:
 808 0466 382F      		mov r19,r24
 809 0468 20E0      		ldi r18,lo8(0)
 810 046a 8091 0000 		lds r24,ADCL_
 811 046e 90E0      		ldi r25,lo8(0)
 812 0470 822B      		or r24,r18
 813 0472 932B      		or r25,r19
 814 0474 9093 0000 		sts (_adc)+1,r25
 815 0478 8093 0000 		sts _adc,r24
 816               	.LM144:
 817 047c 20E0      		ldi r18,lo8(512)
 818 047e 32E0      		ldi r19,hi8(512)
 819 0480 281B      		sub r18,r24
 820 0482 390B      		sbc r19,r25
 821 0484 3093 0000 		sts (adc_h.1532)+1,r19
 822 0488 2093 0000 		sts adc_h.1532,r18
 823               	.LM145:
 824 048c 4091 0000 		lds r20,t1
 825 0490 842F      		mov r24,r20
 826 0492 90E0      		ldi r25,lo8(0)
 827 0494 2817      		cp r18,r24
 828 0496 3907      		cpc r19,r25
 829 0498 00F4      		brsh .L55
 830               	.LM146:
 831 049a 8091 0000 		lds r24,x16
 832 049e 9091 0000 		lds r25,(x16)+1
 833 04a2 9095      		com r25
 834 04a4 8195      		neg r24
 835 04a6 9F4F      		sbci r25,lo8(-1)
 836 04a8 9093 0000 		sts (proging_val)+1,r25
 837 04ac 8093 0000 		sts proging_val,r24
 838 04b0 00C0      		rjmp .L38
 839               	.L55:
 840               	.LM147:
 841 04b2 842F      		mov r24,r20
 842 04b4 90E0      		ldi r25,lo8(0)
 843 04b6 0196      		adiw r24,1
 844 04b8 2817      		cp r18,r24
 845 04ba 3907      		cpc r19,r25
 846 04bc 00F0      		brlo .+2
 847 04be 00C0      		rjmp .L38
 848               	.LM148:
 849 04c0 81E0      		ldi r24,lo8(1)
 850 04c2 8093 0000 		sts PROGRAM_done,r24
 851               	.LM149:
 852 04c6 1092 0000 		sts (proging_val)+1,__zero_reg__
 853 04ca 1092 0000 		sts proging_val,__zero_reg__
 854               	.LM150:
 855 04ce 8091 0000 		lds r24,ref16
 856 04d2 9091 0000 		lds r25,(ref16)+1
 857 04d6 00C0      		rjmp .L112
 858               	.L54:
 859               	.LM151:
 860 04d8 8430      		cpi r24,4
 861 04da 9105      		cpc r25,__zero_reg__
 862 04dc 01F0      		breq .+2
 863 04de 00C0      		rjmp .L56
 864               	.LM152:
 865 04e0 1092 C600 		sts 198,__zero_reg__
 866               	.LM153:
 867 04e4 8091 0000 		lds r24,PROGRAM_done
 868 04e8 8823      		tst r24
 869 04ea 01F0      		breq .L57
 870               	.LM154:
 871 04ec 1092 0000 		sts (proging_val)+1,__zero_reg__
 872 04f0 1092 0000 		sts proging_val,__zero_reg__
 873               	.L57:
 874               	.LM155:
 875 04f4 8091 0000 		lds r24,proging_val
 876 04f8 9091 0000 		lds r25,(proging_val)+1
 877 04fc 6091 0000 		lds r22,chan
 878 0500 0E94 0000 		call prepareSetDAC
 879               	.LBB84:
 880               	.LBB85:
 881               	.LM156:
 882 0504 5A98      		cbi 43-32,2
 883               	.LM157:
 884 0506 5A9A      		sbi 43-32,2
 885               	.LBE85:
 886               	.LBE84:
 887               	.LM158:
 888 0508 2091 0000 		lds r18,proging_val
 889 050c 3091 0000 		lds r19,(proging_val)+1
 890 0510 8091 0000 		lds r24,x16
 891 0514 9091 0000 		lds r25,(x16)+1
 892 0518 4427      		clr r20
 893 051a 5527      		clr r21
 894 051c 481B      		sub r20,r24
 895 051e 590B      		sbc r21,r25
 896 0520 2417      		cp r18,r20
 897 0522 3507      		cpc r19,r21
 898 0524 01F4      		brne .L58
 899               	.LM159:
 900 0526 1092 0000 		sts (proging_val)+1,__zero_reg__
 901 052a 1092 0000 		sts proging_val,__zero_reg__
 902 052e 00C0      		rjmp .L38
 903               	.L58:
 904               	.LM160:
 905 0530 8091 0000 		lds r24,t2
 906 0534 90E0      		ldi r25,lo8(0)
 907 0536 A4E0      		ldi r26,4
 908 0538 880F      	1:	lsl r24
 909 053a 991F      		rol r25
 910 053c AA95      		dec r26
 911 053e 01F4      		brne 1b
 912 0540 8217      		cp r24,r18
 913 0542 9307      		cpc r25,r19
 914 0544 04F4      		brge .L59
 915               	.LM161:
 916 0546 5093 0000 		sts (proging_val)+1,r21
 917 054a 4093 0000 		sts proging_val,r20
 918 054e 00C0      		rjmp .L38
 919               	.L59:
 920               	.LM162:
 921 0550 205E      		subi r18,lo8(-(32))
 922 0552 3F4F      		sbci r19,hi8(-(32))
 923 0554 3093 0000 		sts (proging_val)+1,r19
 924 0558 2093 0000 		sts proging_val,r18
 925 055c 00C0      		rjmp .L38
 926               	.L56:
 927               	.LM163:
 928 055e 0597      		sbiw r24,5
 929 0560 01F0      		breq .+2
 930 0562 00C0      		rjmp .L38
 931               	.LM164:
 932 0564 1092 C600 		sts 198,__zero_reg__
 933 0568 00C0      		rjmp .L115
 934               	.L50:
 935               	.LBE83:
 936               	.LM165:
 937 056a 6530      		cpi r22,lo8(5)
 938 056c 01F0      		breq .+2
 939 056e 00C0      		rjmp .L60
 940               	.LM166:
 941 0570 8091 0000 		lds r24,event_cnt
 942 0574 9091 0000 		lds r25,(event_cnt)+1
 943 0578 8130      		cpi r24,1
 944 057a 9105      		cpc r25,__zero_reg__
 945 057c 01F0      		breq .L106
 946               	.L61:
 947               	.LM167:
 948 057e 8230      		cpi r24,2
 949 0580 9105      		cpc r25,__zero_reg__
 950 0582 01F4      		brne .L62
 951               	.LM168:
 952 0584 8091 0000 		lds r24,reset16
 953 0588 9091 0000 		lds r25,(reset16)+1
 954 058c 63E0      		ldi r22,lo8(3)
 955 058e 0E94 0000 		call prepareSetDAC
 956               	.LM169:
 957 0592 8091 0000 		lds r24,reset16
 958 0596 9091 0000 		lds r25,(reset16)+1
 959 059a 00C0      		rjmp .L113
 960               	.L62:
 961               	.LM170:
 962 059c 8330      		cpi r24,3
 963 059e 9105      		cpc r25,__zero_reg__
 964 05a0 01F4      		brne .L63
 965               	.LM171:
 966 05a2 80E0      		ldi r24,lo8(0)
 967 05a4 90E0      		ldi r25,hi8(0)
 968 05a6 63E0      		ldi r22,lo8(3)
 969 05a8 0E94 0000 		call prepareSetDAC
 970               	.LM172:
 971 05ac 80E0      		ldi r24,lo8(0)
 972 05ae 90E0      		ldi r25,hi8(0)
 973               	.L113:
 974 05b0 62E0      		ldi r22,lo8(2)
 975 05b2 00C0      		rjmp .L105
 976               	.L63:
 977               	.LM173:
 978 05b4 8430      		cpi r24,4
 979 05b6 9105      		cpc r25,__zero_reg__
 980 05b8 01F4      		brne .L64
 981               	.LM174:
 982 05ba 0E94 0000 		call gatherMult
 983 05be 00C0      		rjmp .L38
 984               	.L64:
 985               	.LM175:
 986 05c0 8530      		cpi r24,5
 987 05c2 9105      		cpc r25,__zero_reg__
 988 05c4 01F4      		brne .L65
 989               	.LM176:
 990 05c6 8091 0000 		lds r24,x16
 991 05ca 9091 0000 		lds r25,(x16)+1
 992 05ce 00C0      		rjmp .L111
 993               	.L65:
 994               	.LM177:
 995 05d0 8630      		cpi r24,6
 996 05d2 9105      		cpc r25,__zero_reg__
 997 05d4 01F4      		brne .L66
 998               	.L114:
 999               	.LM178:
 1000 05d6 80E0      		ldi r24,lo8(0)
 1001 05d8 90E0      		ldi r25,hi8(0)
 1002               	.L111:
 1003 05da 63E0      		ldi r22,lo8(3)
 1004 05dc 00C0      		rjmp .L105
 1005               	.L66:
 1006               	.LM179:
 1007 05de 8730      		cpi r24,7
 1008 05e0 9105      		cpc r25,__zero_reg__
 1009 05e2 01F4      		brne .L67
 1010               	.LM180:
 1011 05e4 8FEF      		ldi r24,lo8(-1)
 1012 05e6 8093 C600 		sts 198,r24
 1013               	.L106:
 1014               	.LM181:
 1015 05ea 0E94 0000 		call separMult
 1016 05ee 00C0      		rjmp .L38
 1017               	.L67:
 1018               	.LM182:
 1019 05f0 8830      		cpi r24,8
 1020 05f2 9105      		cpc r25,__zero_reg__
 1021 05f4 01F4      		brne .L68
 1022               	.LM183:
 1023 05f6 8091 0000 		lds r24,ref16
 1024 05fa 9091 0000 		lds r25,(ref16)+1
 1025 05fe 63E0      		ldi r22,lo8(3)
 1026 0600 00C0      		rjmp .L107
 1027               	.L68:
 1028               	.LM184:
 1029 0602 8930      		cpi r24,9
 1030 0604 9105      		cpc r25,__zero_reg__
 1031 0606 01F4      		brne .+2
 1032 0608 00C0      		rjmp .L108
 1033               	.L69:
 1034               	.LM185:
 1035 060a 8A30      		cpi r24,10
 1036 060c 9105      		cpc r25,__zero_reg__
 1037 060e 01F4      		brne .L70
 1038               	.LM186:
 1039 0610 8091 0000 		lds r24,ADCH_
 1040 0614 8093 C600 		sts 198,r24
 1041 0618 00C0      		rjmp .L114
 1042               	.L70:
 1043               	.LM187:
 1044 061a 8B30      		cpi r24,11
 1045 061c 9105      		cpc r25,__zero_reg__
 1046 061e 01F4      		brne .L71
 1047               	.LM188:
 1048 0620 8091 0000 		lds r24,ref16
 1049 0624 9091 0000 		lds r25,(ref16)+1
 1050 0628 62E0      		ldi r22,lo8(2)
 1051 062a 00C0      		rjmp .L107
 1052               	.L71:
 1053               	.LM189:
 1054 062c 8C30      		cpi r24,12
 1055 062e 9105      		cpc r25,__zero_reg__
 1056 0630 01F4      		brne .+2
 1057 0632 00C0      		rjmp .L108
 1058               	.L72:
 1059               	.LM190:
 1060 0634 0D97      		sbiw r24,13
 1061 0636 01F0      		breq .+2
 1062 0638 00C0      		rjmp .L38
 1063               	.LM191:
 1064 063a 8091 0000 		lds r24,ADCH_
 1065 063e 8093 C600 		sts 198,r24
 1066               	.LM192:
 1067 0642 80E0      		ldi r24,lo8(0)
 1068 0644 90E0      		ldi r25,hi8(0)
 1069 0646 62E0      		ldi r22,lo8(2)
 1070 0648 0E94 0000 		call prepareSetDAC
 1071               	.LBB86:
 1072               	.LBB87:
 1073               	.LM193:
 1074 064c 5A98      		cbi 43-32,2
 1075               	.LM194:
 1076 064e 5A9A      		sbi 43-32,2
 1077               	.LBE87:
 1078               	.LBE86:
 1079               	.LM195:
 1080 0650 1092 0000 		sts (event_cnt)+1,__zero_reg__
 1081 0654 1092 0000 		sts event_cnt,__zero_reg__
 1082 0658 00C0      		rjmp .L38
 1083               	.L60:
 1084               	.LM196:
 1085 065a 6630      		cpi r22,lo8(6)
 1086 065c 01F0      		breq .+2
 1087 065e 00C0      		rjmp .L38
 1088               	.LM197:
 1089 0660 8091 0000 		lds r24,event_cnt
 1090 0664 9091 0000 		lds r25,(event_cnt)+1
 1091 0668 0097      		sbiw r24,0
 1092 066a 01F4      		brne .L73
 1093               	.LM198:
 1094 066c 8091 0000 		lds r24,reset16
 1095 0670 9091 0000 		lds r25,(reset16)+1
 1096 0674 6091 0000 		lds r22,chan
 1097 0678 0E94 0000 		call prepareSetDAC
 1098               	.LBB88:
 1099               	.LBB89:
 1100               	.LM199:
 1101 067c 5A98      		cbi 43-32,2
 1102               	.LM200:
 1103 067e 5A9A      		sbi 43-32,2
 1104               	.LBE89:
 1105               	.LBE88:
 1106               	.LM201:
 1107 0680 8FEF      		ldi r24,lo8(-1)
 1108 0682 00C0      		rjmp .L103
 1109               	.L73:
 1110               	.LM202:
 1111 0684 8130      		cpi r24,1
 1112 0686 9105      		cpc r25,__zero_reg__
 1113 0688 01F4      		brne .L74
 1114               	.L115:
 1115               	.LM203:
 1116 068a 80E0      		ldi r24,lo8(0)
 1117 068c 90E0      		ldi r25,hi8(0)
 1118               	.L112:
 1119 068e 6091 0000 		lds r22,chan
 1120               	.L105:
 1121 0692 0E94 0000 		call prepareSetDAC
 1122               	.LBB90:
 1123               	.LBB91:
 1124               	.LM204:
 1125 0696 5A98      		cbi 43-32,2
 1126               	.LM205:
 1127 0698 5A9A      		sbi 43-32,2
 1128 069a 00C0      		rjmp .L38
 1129               	.L74:
 1130               	.LBE91:
 1131               	.LBE90:
 1132               	.LM206:
 1133 069c 8330      		cpi r24,3
 1134 069e 9105      		cpc r25,__zero_reg__
 1135 06a0 01F0      		breq .+2
 1136 06a2 00C0      		rjmp .L75
 1137               	.LM207:
 1138 06a4 4091 0000 		lds r20,an_cnt
 1139 06a8 5091 0000 		lds r21,(an_cnt)+1
 1140 06ac 8091 0000 		lds r24,BIG_STAT_N
 1141 06b0 90E0      		ldi r25,lo8(0)
 1142 06b2 4817      		cp r20,r24
 1143 06b4 5907      		cpc r21,r25
 1144 06b6 00F4      		brsh .L76
 1145               	.LM208:
 1146 06b8 1092 0000 		sts STAT_V_step,__zero_reg__
 1147 06bc 00C0      		rjmp .L77
 1148               	.L76:
 1149               	.LM209:
 1150 06be 9C01      		movw r18,r24
 1151 06c0 220F      		lsl r18
 1152 06c2 331F      		rol r19
 1153 06c4 4217      		cp r20,r18
 1154 06c6 5307      		cpc r21,r19
 1155 06c8 00F4      		brsh .L78
 1156               	.LM210:
 1157 06ca 81E0      		ldi r24,lo8(1)
 1158 06cc 00C0      		rjmp .L102
 1159               	.L78:
 1160               	.LM211:
 1161 06ce 280F      		add r18,r24
 1162 06d0 391F      		adc r19,r25
 1163 06d2 4217      		cp r20,r18
 1164 06d4 5307      		cpc r21,r19
 1165 06d6 00F4      		brsh .L79
 1166               	.LM212:
 1167 06d8 82E0      		ldi r24,lo8(2)
 1168 06da 00C0      		rjmp .L102
 1169               	.L79:
 1170               	.LM213:
 1171 06dc 9C01      		movw r18,r24
 1172 06de 220F      		lsl r18
 1173 06e0 331F      		rol r19
 1174 06e2 220F      		lsl r18
 1175 06e4 331F      		rol r19
 1176 06e6 4217      		cp r20,r18
 1177 06e8 5307      		cpc r21,r19
 1178 06ea 00F4      		brsh .L80
 1179               	.LM214:
 1180 06ec 83E0      		ldi r24,lo8(3)
 1181 06ee 00C0      		rjmp .L102
 1182               	.L80:
 1183               	.LM215:
 1184 06f0 280F      		add r18,r24
 1185 06f2 391F      		adc r19,r25
 1186 06f4 4217      		cp r20,r18
 1187 06f6 5307      		cpc r21,r19
 1188 06f8 00F4      		brsh .L77
 1189               	.LM216:
 1190 06fa 84E0      		ldi r24,lo8(4)
 1191               	.L102:
 1192 06fc 8093 0000 		sts STAT_V_step,r24
 1193               	.L77:
 1194               	.LM217:
 1195 0700 8091 0000 		lds r24,STAT_V_step
 1196 0704 8093 C600 		sts 198,r24
 1197               	.LM218:
 1198 0708 90E0      		ldi r25,lo8(0)
 1199 070a 8095      		com r24
 1200 070c 9095      		com r25
 1201 070e 9695      		lsr r25
 1202 0710 982F      		mov r25,r24
 1203 0712 8827      		clr r24
 1204 0714 9795      		ror r25
 1205 0716 8795      		ror r24
 1206 0718 9093 0000 		sts (x16_grad)+1,r25
 1207 071c 8093 0000 		sts x16_grad,r24
 1208               	.LM219:
 1209 0720 6091 0000 		lds r22,chan
 1210 0724 0E94 0000 		call prepareSetDAC
 1211               	.LBB92:
 1212               	.LBB93:
 1213               	.LM220:
 1214 0728 5A98      		cbi 43-32,2
 1215               	.LM221:
 1216 072a 5A9A      		sbi 43-32,2
 1217               	.LBE93:
 1218               	.LBE92:
 1219               	.LM222:
 1220 072c 4091 0000 		lds r20,an_cnt_fast
 1221 0730 5091 0000 		lds r21,(an_cnt_fast)+1
 1222 0734 8091 0000 		lds r24,STAT_N
 1223 0738 90E0      		ldi r25,lo8(0)
 1224 073a 4817      		cp r20,r24
 1225 073c 5907      		cpc r21,r25
 1226 073e 00F4      		brsh .L81
 1227               	.LM223:
 1228 0740 1092 0000 		sts STAT_dt_step,__zero_reg__
 1229 0744 00C0      		rjmp .L82
 1230               	.L81:
 1231               	.LM224:
 1232 0746 9C01      		movw r18,r24
 1233 0748 220F      		lsl r18
 1234 074a 331F      		rol r19
 1235 074c 4217      		cp r20,r18
 1236 074e 5307      		cpc r21,r19
 1237 0750 00F4      		brsh .L83
 1238               	.LM225:
 1239 0752 81E0      		ldi r24,lo8(1)
 1240 0754 8093 0000 		sts STAT_dt_step,r24
 1241 0758 80E0      		ldi r24,lo8(0)
 1242 075a 90E0      		ldi r25,hi8(0)
 1243               	.LVL14:
 1244               	.L84:
 1245               	.LBB94:
 1246               	.LBB95:
 1247               	.LBB96:
 1248               	.LM226:
 1249 075c 5A98      		cbi 43-32,2
 1250               	.LM227:
 1251 075e 5A9A      		sbi 43-32,2
 1252               	.LBE96:
 1253               	.LBE95:
 1254               	.LM228:
 1255 0760 0196      		adiw r24,1
 1256 0762 8832      		cpi r24,40
 1257 0764 9105      		cpc r25,__zero_reg__
 1258 0766 01F4      		brne .L84
 1259 0768 00C0      		rjmp .L82
 1260               	.LVL15:
 1261               	.L83:
 1262               	.LBE94:
 1263               	.LM229:
 1264 076a 280F      		add r18,r24
 1265 076c 391F      		adc r19,r25
 1266 076e 4217      		cp r20,r18
 1267 0770 5307      		cpc r21,r19
 1268 0772 00F4      		brsh .L85
 1269               	.LM230:
 1270 0774 82E0      		ldi r24,lo8(2)
 1271 0776 8093 0000 		sts STAT_dt_step,r24
 1272 077a 80E0      		ldi r24,lo8(0)
 1273 077c 90E0      		ldi r25,hi8(0)
 1274               	.LVL16:
 1275               	.L86:
 1276               	.LBB97:
 1277               	.LBB98:
 1278               	.LBB99:
 1279               	.LM231:
 1280 077e 5A98      		cbi 43-32,2
 1281               	.LM232:
 1282 0780 5A9A      		sbi 43-32,2
 1283               	.LBE99:
 1284               	.LBE98:
 1285               	.LM233:
 1286 0782 0196      		adiw r24,1
 1287 0784 803A      		cpi r24,160
 1288 0786 9105      		cpc r25,__zero_reg__
 1289 0788 01F4      		brne .L86
 1290 078a 00C0      		rjmp .L82
 1291               	.LVL17:
 1292               	.L85:
 1293               	.LBE97:
 1294               	.LM234:
 1295 078c 880F      		lsl r24
 1296 078e 991F      		rol r25
 1297 0790 880F      		lsl r24
 1298 0792 991F      		rol r25
 1299 0794 4817      		cp r20,r24
 1300 0796 5907      		cpc r21,r25
 1301 0798 00F4      		brsh .L87
 1302               	.LM235:
 1303 079a 83E0      		ldi r24,lo8(3)
 1304 079c 8093 0000 		sts STAT_dt_step,r24
 1305 07a0 80E0      		ldi r24,lo8(0)
 1306 07a2 90E0      		ldi r25,hi8(0)
 1307               	.LVL18:
 1308               	.L88:
 1309               	.LBB100:
 1310               	.LBB101:
 1311               	.LBB102:
 1312               	.LM236:
 1313 07a4 5A98      		cbi 43-32,2
 1314               	.LM237:
 1315 07a6 5A9A      		sbi 43-32,2
 1316               	.LBE102:
 1317               	.LBE101:
 1318               	.LM238:
 1319 07a8 0196      		adiw r24,1
 1320 07aa 22E0      		ldi r18,hi8(640)
 1321 07ac 8038      		cpi r24,lo8(640)
 1322 07ae 9207      		cpc r25,r18
 1323 07b0 01F4      		brne .L88
 1324 07b2 00C0      		rjmp .L82
 1325               	.LVL19:
 1326               	.L87:
 1327               	.LBE100:
 1328               	.LM239:
 1329 07b4 8091 0000 		lds r24,BIG_STAT_N
 1330 07b8 90E0      		ldi r25,lo8(0)
 1331 07ba 4817      		cp r20,r24
 1332 07bc 5907      		cpc r21,r25
 1333 07be 00F4      		brsh .L82
 1334               	.LM240:
 1335 07c0 84E0      		ldi r24,lo8(4)
 1336 07c2 8093 0000 		sts STAT_dt_step,r24
 1337 07c6 80E0      		ldi r24,lo8(0)
 1338 07c8 90E0      		ldi r25,hi8(0)
 1339               	.LVL20:
 1340               	.L89:
 1341               	.LBB103:
 1342               	.LBB104:
 1343               	.LBB105:
 1344               	.LM241:
 1345 07ca 5A98      		cbi 43-32,2
 1346               	.LM242:
 1347 07cc 5A9A      		sbi 43-32,2
 1348               	.LBE105:
 1349               	.LBE104:
 1350               	.LM243:
 1351 07ce 0196      		adiw r24,1
 1352 07d0 2AE0      		ldi r18,hi8(2560)
 1353 07d2 8030      		cpi r24,lo8(2560)
 1354 07d4 9207      		cpc r25,r18
 1355 07d6 01F4      		brne .L89
 1356               	.LVL21:
 1357               	.L82:
 1358               	.LBE103:
 1359               	.LM244:
 1360 07d8 8091 0000 		lds r24,chan
 1361               	.LVL22:
 1362 07dc 0E94 0000 		call prepareResetDAC
 1363               	.LBB106:
 1364               	.LBB107:
 1365               	.LM245:
 1366 07e0 5A98      		cbi 43-32,2
 1367               	.LM246:
 1368 07e2 5A9A      		sbi 43-32,2
 1369               	.LBE107:
 1370               	.LBE106:
 1371               	.LM247:
 1372 07e4 8091 0000 		lds r24,an_cnt
 1373 07e8 9091 0000 		lds r25,(an_cnt)+1
 1374 07ec 0196      		adiw r24,1
 1375 07ee 9093 0000 		sts (an_cnt)+1,r25
 1376 07f2 8093 0000 		sts an_cnt,r24
 1377               	.LM248:
 1378 07f6 2091 0000 		lds r18,BIG_STAT_N
 1379 07fa 45E0      		ldi r20,lo8(5)
 1380 07fc 249F      		mul r18,r20
 1381 07fe 9001      		movw r18,r0
 1382 0800 1124      		clr r1
 1383 0802 2817      		cp r18,r24
 1384 0804 3907      		cpc r19,r25
 1385 0806 00F4      		brsh .L90
 1386 0808 1092 0000 		sts (an_cnt)+1,__zero_reg__
 1387 080c 1092 0000 		sts an_cnt,__zero_reg__
 1388               	.L90:
 1389               	.LM249:
 1390 0810 6091 0000 		lds r22,BIG_STAT_N
 1391 0814 8091 0000 		lds r24,an_cnt
 1392 0818 9091 0000 		lds r25,(an_cnt)+1
 1393 081c 70E0      		ldi r23,lo8(0)
 1394 081e 0E94 0000 		call __udivmodhi4
 1395 0822 9093 0000 		sts (an_cnt_fast)+1,r25
 1396 0826 8093 0000 		sts an_cnt_fast,r24
 1397 082a 00C0      		rjmp .L38
 1398               	.L75:
 1399               	.LM250:
 1400 082c 8430      		cpi r24,4
 1401 082e 9105      		cpc r25,__zero_reg__
 1402 0830 01F4      		brne .L91
 1403               	.LM251:
 1404 0832 8091 0000 		lds r24,STAT_dt_step
 1405               	.L116:
 1406 0836 8093 C600 		sts 198,r24
 1407 083a 00C0      		rjmp .L115
 1408               	.L91:
 1409               	.LM252:
 1410 083c 8630      		cpi r24,6
 1411 083e 9105      		cpc r25,__zero_reg__
 1412 0840 01F4      		brne .L92
 1413               	.L104:
 1414               	.LM253:
 1415 0842 8091 0000 		lds r24,ref16
 1416 0846 9091 0000 		lds r25,(ref16)+1
 1417 084a 6091 0000 		lds r22,chan
 1418               	.L107:
 1419 084e 0E94 0000 		call prepareSetDAC
 1420               	.LBB108:
 1421               	.LBB109:
 1422               	.LM254:
 1423 0852 5A98      		cbi 43-32,2
 1424               	.LM255:
 1425 0854 5A9A      		sbi 43-32,2
 1426               	.L109:
 1427               	.LBE109:
 1428               	.LBE108:
 1429               	.LM256:
 1430 0856 8091 7A00 		lds r24,122
 1431 085a 8064      		ori r24,lo8(64)
 1432 085c 8093 7A00 		sts 122,r24
 1433 0860 00C0      		rjmp .L38
 1434               	.L92:
 1435               	.LM257:
 1436 0862 8730      		cpi r24,7
 1437 0864 9105      		cpc r25,__zero_reg__
 1438 0866 01F4      		brne .L93
 1439               	.LM258:
 1440 0868 80E0      		ldi r24,lo8(0)
 1441 086a 90E0      		ldi r25,hi8(0)
 1442 086c 6091 0000 		lds r22,chan
 1443 0870 0E94 0000 		call prepareSetDAC
 1444               	.LBB110:
 1445               	.LBB111:
 1446               	.LM259:
 1447 0874 5A98      		cbi 43-32,2
 1448               	.LM260:
 1449 0876 5A9A      		sbi 43-32,2
 1450               	.L108:
 1451               	.LBE111:
 1452               	.LBE110:
 1453               	.LM261:
 1454 0878 9091 7800 		lds r25,120
 1455 087c 9093 0000 		sts ADCL_,r25
 1456               	.LM262:
 1457 0880 8091 7900 		lds r24,121
 1458 0884 8093 0000 		sts ADCH_,r24
 1459               	.LM263:
 1460 0888 9093 C600 		sts 198,r25
 1461 088c 00C0      		rjmp .L38
 1462               	.L93:
 1463               	.LM264:
 1464 088e 0897      		sbiw r24,8
 1465 0890 01F4      		brne .L38
 1466               	.LM265:
 1467 0892 8091 0000 		lds r24,ADCH_
 1468               	.L103:
 1469 0896 8093 C600 		sts 198,r24
 1470               	.L38:
 1471               	.LM266:
 1472 089a 1092 0000 		sts (ctr)+1,__zero_reg__
 1473 089e 1092 0000 		sts ctr,__zero_reg__
 1474               	.LM267:
 1475 08a2 8091 0000 		lds r24,MD
 1476 08a6 8530      		cpi r24,lo8(5)
 1477 08a8 01F4      		brne .L94
 1478               	.LM268:
 1479 08aa 8091 0000 		lds r24,event_cnt
 1480 08ae 9091 0000 		lds r25,(event_cnt)+1
 1481 08b2 8031      		cpi r24,16
 1482 08b4 9105      		cpc r25,__zero_reg__
 1483 08b6 04F4      		brge .L33
 1484               	.LM269:
 1485 08b8 0196      		adiw r24,1
 1486 08ba 9093 0000 		sts (event_cnt)+1,r25
 1487 08be 8093 0000 		sts event_cnt,r24
 1488 08c2 00C0      		rjmp .L33
 1489               	.L94:
 1490 08c4 2091 0000 		lds r18,event_cnt
 1491 08c8 3091 0000 		lds r19,(event_cnt)+1
 1492               	.LM270:
 1493 08cc 8230      		cpi r24,lo8(2)
 1494 08ce 01F4      		brne .L95
 1495               	.LM271:
 1496 08d0 C901      		movw r24,r18
 1497 08d2 0196      		adiw r24,1
 1498 08d4 9093 0000 		sts (event_cnt)+1,r25
 1499 08d8 8093 0000 		sts event_cnt,r24
 1500               	.LM272:
 1501 08dc 0997      		sbiw r24,9
 1502 08de 04F0      		brlt .L33
 1503 08e0 00C0      		rjmp .L110
 1504               	.L95:
 1505               	.LM273:
 1506 08e2 2F5F      		subi r18,lo8(-(1))
 1507 08e4 3F4F      		sbci r19,hi8(-(1))
 1508 08e6 3093 0000 		sts (event_cnt)+1,r19
 1509 08ea 2093 0000 		sts event_cnt,r18
 1510               	.LM274:
 1511 08ee 8091 0000 		lds r24,T
 1512 08f2 90E0      		ldi r25,lo8(0)
 1513 08f4 8217      		cp r24,r18
 1514 08f6 9307      		cpc r25,r19
 1515 08f8 04F4      		brge .L33
 1516               	.L110:
 1517               	.LM275:
 1518 08fa 1092 0000 		sts (event_cnt)+1,__zero_reg__
 1519 08fe 1092 0000 		sts event_cnt,__zero_reg__
 1520               	.L33:
 1521               	.LM276:
 1522 0902 8091 0000 		lds r24,ctr
 1523 0906 9091 0000 		lds r25,(ctr)+1
 1524 090a 0196      		adiw r24,1
 1525 090c 9093 0000 		sts (ctr)+1,r25
 1526 0910 8093 0000 		sts ctr,r24
 1527               	/* epilogue start */
 1528               	.LM277:
 1529 0914 FF91      		pop r31
 1530 0916 EF91      		pop r30
 1531 0918 BF91      		pop r27
 1532 091a AF91      		pop r26
 1533 091c 9F91      		pop r25
 1534 091e 8F91      		pop r24
 1535 0920 7F91      		pop r23
 1536 0922 6F91      		pop r22
 1537 0924 5F91      		pop r21
 1538 0926 4F91      		pop r20
 1539 0928 3F91      		pop r19
 1540 092a 2F91      		pop r18
 1541 092c 0F90      		pop r0
 1542 092e 0FBE      		out __SREG__,r0
 1543 0930 0F90      		pop r0
 1544 0932 1F90      		pop __zero_reg__
 1545 0934 1895      		reti
 1546               	.LFE18:
 1548               	.global	__vector_18
 1550               	__vector_18:
 1551               	.LFB19:
 1552               	.LM278:
 1553 0936 1F92      		push __zero_reg__
 1554 0938 0F92      		push r0
 1555 093a 0FB6      		in r0,__SREG__
 1556 093c 0F92      		push r0
 1557 093e 1124      		clr __zero_reg__
 1558 0940 2F93      		push r18
 1559 0942 3F93      		push r19
 1560 0944 4F93      		push r20
 1561 0946 5F93      		push r21
 1562 0948 6F93      		push r22
 1563 094a 7F93      		push r23
 1564 094c 8F93      		push r24
 1565 094e 9F93      		push r25
 1566 0950 AF93      		push r26
 1567 0952 BF93      		push r27
 1568 0954 EF93      		push r30
 1569 0956 FF93      		push r31
 1570               	/* prologue: Signal */
 1571               	/* frame size = 0 */
 1572               	.LM279:
 1573 0958 8091 0000 		lds r24,ptr
 1574 095c 8430      		cpi r24,lo8(4)
 1575 095e 01F4      		brne .+2
 1576 0960 00C0      		rjmp .L124
 1577 0962 8530      		cpi r24,lo8(5)
 1578 0964 00F4      		brsh .L130
 1579 0966 8130      		cpi r24,lo8(1)
 1580 0968 01F0      		breq .L121
 1581 096a 8130      		cpi r24,lo8(1)
 1582 096c 00F0      		brlo .L120
 1583 096e 8230      		cpi r24,lo8(2)
 1584 0970 01F4      		brne .+2
 1585 0972 00C0      		rjmp .L122
 1586 0974 8330      		cpi r24,lo8(3)
 1587 0976 01F0      		breq .+2
 1588 0978 00C0      		rjmp .L119
 1589 097a 00C0      		rjmp .L137
 1590               	.L130:
 1591 097c 8730      		cpi r24,lo8(7)
 1592 097e 01F4      		brne .+2
 1593 0980 00C0      		rjmp .L127
 1594 0982 8830      		cpi r24,lo8(8)
 1595 0984 00F4      		brsh .L131
 1596 0986 8530      		cpi r24,lo8(5)
 1597 0988 01F4      		brne .+2
 1598 098a 00C0      		rjmp .L125
 1599 098c 8630      		cpi r24,lo8(6)
 1600 098e 01F0      		breq .+2
 1601 0990 00C0      		rjmp .L119
 1602 0992 00C0      		rjmp .L138
 1603               	.L131:
 1604 0994 8830      		cpi r24,lo8(8)
 1605 0996 01F4      		brne .+2
 1606 0998 00C0      		rjmp .L128
 1607 099a 8930      		cpi r24,lo8(9)
 1608 099c 01F0      		breq .+2
 1609 099e 00C0      		rjmp .L119
 1610 09a0 00C0      		rjmp .L139
 1611               	.L120:
 1612               	.LM280:
 1613 09a2 8091 C600 		lds r24,198
 1614 09a6 8F3F      		cpi r24,lo8(-1)
 1615 09a8 01F0      		breq .L132
 1616               	.LM281:
 1617 09aa 1092 0000 		sts sync,__zero_reg__
 1618               	.LM282:
 1619 09ae 83E0      		ldi r24,lo8(3)
 1620 09b0 8093 0000 		sts ptr,r24
 1621 09b4 00C0      		rjmp .L119
 1622               	.L132:
 1623               	.LM283:
 1624 09b6 81E0      		ldi r24,lo8(1)
 1625 09b8 8093 0000 		sts sync,r24
 1626 09bc 00C0      		rjmp .L119
 1627               	.L121:
 1628               	.LM284:
 1629 09be 2091 C600 		lds r18,198
 1630 09c2 2093 0000 		sts MD,r18
 1631               	.LM285:
 1632 09c6 2130      		cpi r18,lo8(1)
 1633 09c8 01F4      		brne .L133
 1634               	.LM286:
 1635 09ca 84E0      		ldi r24,lo8(4)
 1636 09cc 90E0      		ldi r25,hi8(4)
 1637 09ce 9093 0000 		sts (time_step)+1,r25
 1638 09d2 8093 0000 		sts time_step,r24
 1639 09d6 00C0      		rjmp .L119
 1640               	.L133:
 1641               	.LM287:
 1642 09d8 86E0      		ldi r24,lo8(6)
 1643 09da 90E0      		ldi r25,hi8(6)
 1644 09dc 9093 0000 		sts (time_step)+1,r25
 1645 09e0 8093 0000 		sts time_step,r24
 1646               	.LM288:
 1647 09e4 2230      		cpi r18,lo8(2)
 1648 09e6 01F0      		breq .+2
 1649 09e8 00C0      		rjmp .L119
 1650               	.LM289:
 1651 09ea 1092 0000 		sts PROGRAM_done,__zero_reg__
 1652               	.LM290:
 1653 09ee 1092 0000 		sts (proging_val)+1,__zero_reg__
 1654 09f2 1092 0000 		sts proging_val,__zero_reg__
 1655 09f6 00C0      		rjmp .L119
 1656               	.L122:
 1657               	.LM291:
 1658 09f8 8091 C600 		lds r24,198
 1659 09fc 90E0      		ldi r25,lo8(0)
 1660 09fe 9093 0000 		sts (x16_simple)+1,r25
 1661 0a02 8093 0000 		sts x16_simple,r24
 1662               	.LM292:
 1663 0a06 44E0      		ldi r20,4
 1664 0a08 880F      	1:	lsl r24
 1665 0a0a 991F      		rol r25
 1666 0a0c 4A95      		dec r20
 1667 0a0e 01F4      		brne 1b
 1668 0a10 9093 0000 		sts (x16)+1,r25
 1669 0a14 8093 0000 		sts x16,r24
 1670 0a18 00C0      		rjmp .L119
 1671               	.L137:
 1672               	.LM293:
 1673 0a1a 8091 C600 		lds r24,198
 1674 0a1e 90E0      		ldi r25,lo8(0)
 1675 0a20 34E0      		ldi r19,4
 1676 0a22 880F      	1:	lsl r24
 1677 0a24 991F      		rol r25
 1678 0a26 3A95      		dec r19
 1679 0a28 01F4      		brne 1b
 1680 0a2a 9093 0000 		sts (ref16)+1,r25
 1681 0a2e 8093 0000 		sts ref16,r24
 1682 0a32 00C0      		rjmp .L119
 1683               	.L124:
 1684               	.LM294:
 1685 0a34 8091 0000 		lds r24,MD
 1686 0a38 8230      		cpi r24,lo8(2)
 1687 0a3a 01F4      		brne .L134
 1688               	.LM295:
 1689 0a3c 8091 C600 		lds r24,198
 1690 0a40 8093 0000 		sts t1,r24
 1691 0a44 00C0      		rjmp .L119
 1692               	.L134:
 1693               	.LM296:
 1694 0a46 8091 C600 		lds r24,198
 1695 0a4a 90E0      		ldi r25,lo8(0)
 1696 0a4c 24E0      		ldi r18,4
 1697 0a4e 880F      	1:	lsl r24
 1698 0a50 991F      		rol r25
 1699 0a52 2A95      		dec r18
 1700 0a54 01F4      		brne 1b
 1701 0a56 9093 0000 		sts (reset16)+1,r25
 1702 0a5a 8093 0000 		sts reset16,r24
 1703 0a5e 00C0      		rjmp .L119
 1704               	.L125:
 1705               	.LM297:
 1706 0a60 8091 C600 		lds r24,198
 1707 0a64 8093 0000 		sts t2,r24
 1708 0a68 00C0      		rjmp .L119
 1709               	.L138:
 1710               	.LM298:
 1711 0a6a 8091 C600 		lds r24,198
 1712 0a6e 8093 0000 		sts dT,r24
 1713 0a72 00C0      		rjmp .L119
 1714               	.L127:
 1715               	.LM299:
 1716 0a74 8091 C600 		lds r24,198
 1717 0a78 8093 0000 		sts T,r24
 1718 0a7c 00C0      		rjmp .L119
 1719               	.L128:
 1720               	.LM300:
 1721 0a7e 8091 C600 		lds r24,198
 1722 0a82 8093 0000 		sts chan,r24
 1723 0a86 00C0      		rjmp .L119
 1724               	.L139:
 1725               	.LM301:
 1726 0a88 8091 C600 		lds r24,198
 1727 0a8c E091 0000 		lds r30,chan
 1728 0a90 F0E0      		ldi r31,lo8(0)
 1729 0a92 E050      		subi r30,lo8(-(reverted))
 1730 0a94 F040      		sbci r31,hi8(-(reverted))
 1731 0a96 8083      		st Z,r24
 1732               	.LM302:
 1733 0a98 8091 0000 		lds r24,MD
 1734 0a9c 8330      		cpi r24,lo8(3)
 1735 0a9e 01F4      		brne .L135
 1736               	.LM303:
 1737 0aa0 0E94 0000 		call gatherMult
 1738 0aa4 00C0      		rjmp .L119
 1739               	.L135:
 1740               	.LM304:
 1741 0aa6 8430      		cpi r24,lo8(4)
 1742 0aa8 01F4      		brne .L119
 1743               	.LM305:
 1744 0aaa 0E94 0000 		call separMult
 1745               	.L119:
 1746               	.LM306:
 1747 0aae 8091 0000 		lds r24,t2
 1748 0ab2 9091 0000 		lds r25,dT
 1749 0ab6 890F      		add r24,r25
 1750 0ab8 8093 0000 		sts dTt2,r24
 1751               	.LM307:
 1752 0abc 8091 0000 		lds r24,ptr
 1753 0ac0 8F5F      		subi r24,lo8(-(1))
 1754 0ac2 6AE0      		ldi r22,lo8(10)
 1755 0ac4 0E94 0000 		call __udivmodqi4
 1756 0ac8 9093 0000 		sts ptr,r25
 1757               	/* epilogue start */
 1758               	.LM308:
 1759 0acc FF91      		pop r31
 1760 0ace EF91      		pop r30
 1761 0ad0 BF91      		pop r27
 1762 0ad2 AF91      		pop r26
 1763 0ad4 9F91      		pop r25
 1764 0ad6 8F91      		pop r24
 1765 0ad8 7F91      		pop r23
 1766 0ada 6F91      		pop r22
 1767 0adc 5F91      		pop r21
 1768 0ade 4F91      		pop r20
 1769 0ae0 3F91      		pop r19
 1770 0ae2 2F91      		pop r18
 1771 0ae4 0F90      		pop r0
 1772 0ae6 0FBE      		out __SREG__,r0
 1773 0ae8 0F90      		pop r0
 1774 0aea 1F90      		pop __zero_reg__
 1775 0aec 1895      		reti
 1776               	.LFE19:
 1778               	.global	chan_addrs
 1779               		.data
 1782               	chan_addrs:
 1783 0000 00        		.byte	0
 1784 0001 01        		.byte	1
 1785 0002 02        		.byte	2
 1786 0003 03        		.byte	3
 1787 0004 04        		.byte	4
 1788 0005 05        		.byte	5
 1789 0006 06        		.byte	6
 1790 0007 07        		.byte	7
 1791               	.global	REGS_OUT
 1794               	REGS_OUT:
 1795 0008 2B00      		.word	43
 1796 000a 2B00      		.word	43
 1797 000c 2B00      		.word	43
 1798 000e 2500      		.word	37
 1799 0010 2500      		.word	37
 1800 0012 2800      		.word	40
 1801 0014 2800      		.word	40
 1802 0016 2800      		.word	40
 1803               	.global	SYNC_PINS
 1806               	SYNC_PINS:
 1807 0018 05        		.byte	5
 1808 0019 06        		.byte	6
 1809 001a 07        		.byte	7
 1810 001b 00        		.byte	0
 1811 001c 01        		.byte	1
 1812 001d 02        		.byte	2
 1813 001e 03        		.byte	3
 1814 001f 04        		.byte	4
 1815               	.global	MD
 1816               	.global	MD
 1817               		.section .bss
 1820               	MD:
 1821 0000 00        		.skip 1,0
 1822               	.global	STAT_N
 1823               		.data
 1826               	STAT_N:
 1827 0020 11        		.byte	17
 1828               	.global	STAT_CYCLE
 1831               	STAT_CYCLE:
 1832 0021 05        		.byte	5
 1833               	.global	voltage16
 1834               	.global	voltage16
 1835               		.section .bss
 1838               	voltage16:
 1839 0001 0000      		.skip 2,0
 1840               	.global	voltage16_h
 1841               	.global	voltage16_h
 1844               	voltage16_h:
 1845 0003 0000      		.skip 2,0
 1846               	.global	voltage16_hh
 1847               	.global	voltage16_hh
 1850               	voltage16_hh:
 1851 0005 0000      		.skip 2,0
 1852               	.global	proging_val
 1853               	.global	proging_val
 1856               	proging_val:
 1857 0007 0000      		.skip 2,0
 1858               	.global	x16
 1859               	.global	x16
 1862               	x16:
 1863 0009 0000      		.skip 2,0
 1864               	.global	ref16
 1865               	.global	ref16
 1868               	ref16:
 1869 000b 0000      		.skip 2,0
 1870               	.global	reset16
 1871               	.global	reset16
 1874               	reset16:
 1875 000d 0000      		.skip 2,0
 1876               	.global	sync
 1877               	.global	sync
 1880               	sync:
 1881 000f 00        		.skip 1,0
 1882               	.global	t1
 1883               		.data
 1886               	t1:
 1887 0022 02        		.byte	2
 1888               	.global	t2
 1891               	t2:
 1892 0023 02        		.byte	2
 1893               	.global	dTt2
 1896               	dTt2:
 1897 0024 0A        		.byte	10
 1898               	.global	pos_phase
 1901               	pos_phase:
 1902 0025 01        		.byte	1
 1903               	.global	STAT_dt_step
 1904               	.global	STAT_dt_step
 1905               		.section .bss
 1908               	STAT_dt_step:
 1909 0010 00        		.skip 1,0
 1910               	.global	STAT_V_step
 1911               	.global	STAT_V_step
 1914               	STAT_V_step:
 1915 0011 00        		.skip 1,0
 1916               	.global	ptr
 1917               	.global	ptr
 1920               	ptr:
 1921 0012 00        		.skip 1,0
 1922               	.global	PROGRAM_done
 1923               	.global	PROGRAM_done
 1926               	PROGRAM_done:
 1927 0013 00        		.skip 1,0
 1928               	.global	chan
 1929               	.global	chan
 1932               	chan:
 1933 0014 00        		.skip 1,0
 1934               	.global	an_cnt
 1935               	.global	an_cnt
 1938               	an_cnt:
 1939 0015 0000      		.skip 2,0
 1940               	.global	an_cnt_fast
 1941               	.global	an_cnt_fast
 1944               	an_cnt_fast:
 1945 0017 0000      		.skip 2,0
 1946               	.global	reverted
 1947               	.global	reverted
 1950               	reverted:
 1951 0019 0000 0000 		.skip 64,0
 1951      0000 0000 
 1951      0000 0000 
 1951      0000 0000 
 1951      0000 0000 
 1952               	.global	time_step
 1953               		.data
 1956               	time_step:
 1957 0026 0600      		.word	6
 1958               	.global	eventN
 1961               	eventN:
 1962 0028 6400      		.word	100
 1963               		.lcomm adc_h.1532,2
 1964               		.lcomm send8.1395,1
 1965               		.comm BIG_STAT_N,1,1
 1966               		.comm x16_grad,2,1
 1967               		.comm x16_simple,2,1
 1968               		.comm dT,1,1
 1969               		.comm T,1,1
 1970               		.comm UDP_cnt,1,1
 1971               		.comm c,1,1
 1972               		.comm _adc,2,1
 1973               		.comm ctr,2,1
 1974               		.comm event_cnt,2,1
 1975               		.comm ADC_cnt,2,1
 1976               		.comm ADCH_,1,1
 1977               		.comm ADCL_,1,1
 1978               		.comm ADCH__,1,1
 1979               		.comm ADCL__,1,1
 2108               	.Letext0:
DEFINED SYMBOLS
                            *ABS*:00000000 main.c
C:\Users\DrPepper\AppData\Local\Temp/ccHmMwMb.s:2      *ABS*:0000003f __SREG__
C:\Users\DrPepper\AppData\Local\Temp/ccHmMwMb.s:3      *ABS*:0000003e __SP_H__
C:\Users\DrPepper\AppData\Local\Temp/ccHmMwMb.s:4      *ABS*:0000003d __SP_L__
C:\Users\DrPepper\AppData\Local\Temp/ccHmMwMb.s:5      *ABS*:00000034 __CCP__
C:\Users\DrPepper\AppData\Local\Temp/ccHmMwMb.s:6      *ABS*:00000000 __tmp_reg__
C:\Users\DrPepper\AppData\Local\Temp/ccHmMwMb.s:7      *ABS*:00000001 __zero_reg__
C:\Users\DrPepper\AppData\Local\Temp/ccHmMwMb.s:18     .text:00000000 gatherMult
C:\Users\DrPepper\AppData\Local\Temp/ccHmMwMb.s:46     .text:00000012 separMult
C:\Users\DrPepper\AppData\Local\Temp/ccHmMwMb.s:72     .text:00000022 set_reverser
C:\Users\DrPepper\AppData\Local\Temp/ccHmMwMb.s:85     .text:00000024 ADC_Init
C:\Users\DrPepper\AppData\Local\Temp/ccHmMwMb.s:109    .text:0000003a timer_init
C:\Users\DrPepper\AppData\Local\Temp/ccHmMwMb.s:134    .text:00000052 uart_init
C:\Users\DrPepper\AppData\Local\Temp/ccHmMwMb.s:159    .text:00000068 SPI_MasterInit
C:\Users\DrPepper\AppData\Local\Temp/ccHmMwMb.s:178    .text:00000074 SPI_WriteByte
C:\Users\DrPepper\AppData\Local\Temp/ccHmMwMb.s:198    .text:0000007e prepareResetDAC
C:\Users\DrPepper\AppData\Local\Temp/ccHmMwMb.s:1806   .data:00000018 SYNC_PINS
C:\Users\DrPepper\AppData\Local\Temp/ccHmMwMb.s:1782   .data:00000000 chan_addrs
C:\Users\DrPepper\AppData\Local\Temp/ccHmMwMb.s:271    .text:000000f4 prepareSetDAC
C:\Users\DrPepper\AppData\Local\Temp/ccHmMwMb.s:1794   .data:00000008 REGS_OUT
C:\Users\DrPepper\AppData\Local\Temp/ccHmMwMb.s:1963   .bss:0000005b send8.1395
C:\Users\DrPepper\AppData\Local\Temp/ccHmMwMb.s:383    .text:000001a8 setDAC
C:\Users\DrPepper\AppData\Local\Temp/ccHmMwMb.s:399    .text:000001ae main
C:\Users\DrPepper\AppData\Local\Temp/ccHmMwMb.s:1831   .data:00000021 STAT_CYCLE
C:\Users\DrPepper\AppData\Local\Temp/ccHmMwMb.s:1826   .data:00000020 STAT_N
                            *COM*:00000001 BIG_STAT_N
C:\Users\DrPepper\AppData\Local\Temp/ccHmMwMb.s:530    .text:0000025a __vector_9
                            *COM*:00000002 ctr
C:\Users\DrPepper\AppData\Local\Temp/ccHmMwMb.s:1956   .data:00000026 time_step
C:\Users\DrPepper\AppData\Local\Temp/ccHmMwMb.s:1820   .bss:00000000 MD
                            *COM*:00000002 event_cnt
                            *COM*:00000001 ADCL_
                            *COM*:00000001 ADCH_
C:\Users\DrPepper\AppData\Local\Temp/ccHmMwMb.s:1886   .data:00000022 t1
                            *COM*:00000001 dT
C:\Users\DrPepper\AppData\Local\Temp/ccHmMwMb.s:1896   .data:00000024 dTt2
                            *COM*:00000002 _adc
                            *COM*:00000001 UDP_cnt
                            *COM*:00000001 ADCL__
                            *COM*:00000001 ADCH__
C:\Users\DrPepper\AppData\Local\Temp/ccHmMwMb.s:1838   .bss:00000001 voltage16
C:\Users\DrPepper\AppData\Local\Temp/ccHmMwMb.s:1844   .bss:00000003 voltage16_h
C:\Users\DrPepper\AppData\Local\Temp/ccHmMwMb.s:1901   .data:00000025 pos_phase
C:\Users\DrPepper\AppData\Local\Temp/ccHmMwMb.s:1868   .bss:0000000b ref16
C:\Users\DrPepper\AppData\Local\Temp/ccHmMwMb.s:1862   .bss:00000009 x16
C:\Users\DrPepper\AppData\Local\Temp/ccHmMwMb.s:1932   .bss:00000014 chan
                            *COM*:00000001 T
C:\Users\DrPepper\AppData\Local\Temp/ccHmMwMb.s:1926   .bss:00000013 PROGRAM_done
                             .bss:00000059 adc_h.1532
C:\Users\DrPepper\AppData\Local\Temp/ccHmMwMb.s:1856   .bss:00000007 proging_val
C:\Users\DrPepper\AppData\Local\Temp/ccHmMwMb.s:1891   .data:00000023 t2
C:\Users\DrPepper\AppData\Local\Temp/ccHmMwMb.s:1874   .bss:0000000d reset16
C:\Users\DrPepper\AppData\Local\Temp/ccHmMwMb.s:1938   .bss:00000015 an_cnt
C:\Users\DrPepper\AppData\Local\Temp/ccHmMwMb.s:1914   .bss:00000011 STAT_V_step
                            *COM*:00000002 x16_grad
C:\Users\DrPepper\AppData\Local\Temp/ccHmMwMb.s:1944   .bss:00000017 an_cnt_fast
C:\Users\DrPepper\AppData\Local\Temp/ccHmMwMb.s:1908   .bss:00000010 STAT_dt_step
C:\Users\DrPepper\AppData\Local\Temp/ccHmMwMb.s:1550   .text:00000936 __vector_18
C:\Users\DrPepper\AppData\Local\Temp/ccHmMwMb.s:1920   .bss:00000012 ptr
C:\Users\DrPepper\AppData\Local\Temp/ccHmMwMb.s:1880   .bss:0000000f sync
                            *COM*:00000002 x16_simple
C:\Users\DrPepper\AppData\Local\Temp/ccHmMwMb.s:1950   .bss:00000019 reverted
C:\Users\DrPepper\AppData\Local\Temp/ccHmMwMb.s:1850   .bss:00000005 voltage16_hh
C:\Users\DrPepper\AppData\Local\Temp/ccHmMwMb.s:1961   .data:00000028 eventN
                            *COM*:00000001 c
                            *COM*:00000002 ADC_cnt

UNDEFINED SYMBOLS
__divmodqi4
__udivmodqi4
__udivmodhi4
__do_copy_data
__do_clear_bss
