   1               		.file	"main.c"
   2               	__SREG__ = 0x3f
   3               	__SP_H__ = 0x3e
   4               	__SP_L__ = 0x3d
   5               	__CCP__  = 0x34
   6               	__tmp_reg__ = 0
   7               	__zero_reg__ = 1
  15               	.Ltext0:
  16               	.global	ADC_Init
  18               	ADC_Init:
  19               	.LFB6:
  20               	.LM1:
  21               	/* prologue: function */
  22               	/* frame size = 0 */
  23               	.LM2:
  24 0000 EAE7      		ldi r30,lo8(122)
  25 0002 F0E0      		ldi r31,hi8(122)
  26 0004 8081      		ld r24,Z
  27 0006 8368      		ori r24,lo8(-125)
  28 0008 8083      		st Z,r24
  29               	.LM3:
  30 000a ECE7      		ldi r30,lo8(124)
  31 000c F0E0      		ldi r31,hi8(124)
  32 000e 8081      		ld r24,Z
  33 0010 8064      		ori r24,lo8(64)
  34 0012 8083      		st Z,r24
  35               	/* epilogue start */
  36               	.LM4:
  37 0014 0895      		ret
  38               	.LFE6:
  40               	.global	timer_init
  42               	timer_init:
  43               	.LFB7:
  44               	.LM5:
  45               	/* prologue: function */
  46               	/* frame size = 0 */
  47               	.LM6:
  48 0016 1092 B000 		sts 176,__zero_reg__
  49               	.LM7:
  50 001a E1EB      		ldi r30,lo8(177)
  51 001c F0E0      		ldi r31,hi8(177)
  52 001e 1082      		st Z,__zero_reg__
  53               	.LM8:
  54 0020 8081      		ld r24,Z
  55 0022 8260      		ori r24,lo8(2)
  56 0024 8083      		st Z,r24
  57               	.LM9:
  58 0026 81E0      		ldi r24,lo8(1)
  59 0028 8093 7000 		sts 112,r24
  60               	/* epilogue start */
  61               	.LM10:
  62 002c 0895      		ret
  63               	.LFE7:
  65               	.global	uart_init
  67               	uart_init:
  68               	.LFB8:
  69               	.LM11:
  70               	.LVL0:
  71               	/* prologue: function */
  72               	/* frame size = 0 */
  73               	.LM12:
  74 002e 9093 C500 		sts 197,r25
  75               	.LVL1:
  76               	.LM13:
  77 0032 8093 C400 		sts 196,r24
  78               	.LM14:
  79 0036 88E9      		ldi r24,lo8(-104)
  80               	.LVL2:
  81 0038 8093 C100 		sts 193,r24
  82               	.LM15:
  83 003c 8EE0      		ldi r24,lo8(14)
  84 003e 8093 C200 		sts 194,r24
  85               	/* epilogue start */
  86               	.LM16:
  87 0042 0895      		ret
  88               	.LFE8:
  90               	.global	SPI_MasterInit
  92               	SPI_MasterInit:
  93               	.LFB9:
  94               	.LM17:
  95               	/* prologue: function */
  96               	/* frame size = 0 */
  97               	.LM18:
  98 0044 8CE2      		ldi r24,lo8(44)
  99 0046 84B9      		out 36-32,r24
 100               	.LM19:
 101 0048 88E5      		ldi r24,lo8(88)
 102 004a 8CBD      		out 76-32,r24
 103               	/* epilogue start */
 104               	.LM20:
 105 004c 0895      		ret
 106               	.LFE9:
 108               	.global	gatherMult
 110               	gatherMult:
 111               	.LFB12:
 112               	.LM21:
 113               	/* prologue: function */
 114               	/* frame size = 0 */
 115               	.LM22:
 116 004e 5E98      		cbi 43-32,6
 117               	.LM23:
 118 0050 5F98      		cbi 43-32,7
 119               	.LM24:
 120 0052 5D98      		cbi 43-32,5
 121               	.LM25:
 122 0054 4498      		cbi 40-32,4
 123               	.LM26:
 124 0056 419A      		sbi 40-32,1
 125               	.LM27:
 126 0058 2A9A      		sbi 37-32,2
 127               	.LM28:
 128 005a 299A      		sbi 37-32,1
 129               	.LM29:
 130 005c 289A      		sbi 37-32,0
 131               	/* epilogue start */
 132               	.LM30:
 133 005e 0895      		ret
 134               	.LFE12:
 136               	.global	separMult
 138               	separMult:
 139               	.LFB13:
 140               	.LM31:
 141               	/* prologue: function */
 142               	/* frame size = 0 */
 143               	.LM32:
 144 0060 2998      		cbi 37-32,1
 145               	.LM33:
 146 0062 2A98      		cbi 37-32,2
 147               	.LM34:
 148 0064 4198      		cbi 40-32,1
 149               	.LM35:
 150 0066 449A      		sbi 40-32,4
 151               	.LM36:
 152 0068 5E9A      		sbi 43-32,6
 153               	.LM37:
 154 006a 5F9A      		sbi 43-32,7
 155               	.LM38:
 156 006c 289A      		sbi 37-32,0
 157               	.LM39:
 158 006e 5D9A      		sbi 43-32,5
 159               	/* epilogue start */
 160               	.LM40:
 161 0070 0895      		ret
 162               	.LFE13:
 164               	.global	SPI_WriteByte
 166               	SPI_WriteByte:
 167               	.LFB14:
 168               	.LM41:
 169               	.LVL3:
 170               	/* prologue: function */
 171               	/* frame size = 0 */
 172               	.LM42:
 173 0072 8EBD      		out 78-32,r24
 174               	.L14:
 175               	.LM43:
 176 0074 0DB4      		in __tmp_reg__,77-32
 177 0076 07FE      		sbrs __tmp_reg__,7
 178 0078 00C0      		rjmp .L14
 179               	/* epilogue start */
 180               	.LM44:
 181 007a 0895      		ret
 182               	.LFE14:
 184               	.global	prepareResetDAC
 186               	prepareResetDAC:
 187               	.LFB11:
 188               	.LM45:
 189               	.LVL4:
 190               	/* prologue: function */
 191               	/* frame size = 0 */
 192               	.LM46:
 193 007c 5B98      		cbi 43-32,3
 194               	.LM47:
 195 007e E82F      		mov r30,r24
 196 0080 FF27      		clr r31
 197 0082 E7FD      		sbrc r30,7
 198 0084 F095      		com r31
 199               	.LVL5:
 200 0086 E050      		subi r30,lo8(-(chan_addrs))
 201 0088 F040      		sbci r31,hi8(-(chan_addrs))
 202               	.LVL6:
 203 008a 8081      		ld r24,Z
 204 008c 8860      		ori r24,lo8(8)
 205 008e 90E0      		ldi r25,lo8(0)
 206 0090 0E94 0000 		call SPI_WriteByte
 207               	.LVL7:
 208               	.LM48:
 209 0094 80E0      		ldi r24,lo8(0)
 210 0096 90E0      		ldi r25,hi8(0)
 211 0098 0E94 0000 		call SPI_WriteByte
 212               	.LM49:
 213 009c 5B9A      		sbi 43-32,3
 214               	/* epilogue start */
 215               	.LM50:
 216 009e 0895      		ret
 217               	.LFE11:
 219               	.global	prepareSetDAC
 221               	prepareSetDAC:
 222               	.LFB10:
 223               	.LM51:
 224               	.LVL8:
 225 00a0 0F93      		push r16
 226 00a2 1F93      		push r17
 227               	/* prologue: function */
 228               	/* frame size = 0 */
 229 00a4 E62F      		mov r30,r22
 230               	.LM52:
 231 00a6 0027      		clr r16
 232 00a8 1127      		clr r17
 233 00aa 081B      		sub r16,r24
 234 00ac 190B      		sbc r17,r25
 235               	.LVL9:
 236               	.LM53:
 237 00ae 0050      		subi r16,lo8(-(2048))
 238 00b0 184F      		sbci r17,hi8(-(2048))
 239               	.LM54:
 240 00b2 5B98      		cbi 43-32,3
 241               	.LM55:
 242 00b4 812F      		mov r24,r17
 243 00b6 9927      		clr r25
 244 00b8 87FD      		sbrc r24,7
 245 00ba 9A95      		dec r25
 246 00bc 8F70      		andi r24,lo8(15)
 247 00be FF27      		clr r31
 248 00c0 E7FD      		sbrc r30,7
 249 00c2 F095      		com r31
 250               	.LVL10:
 251 00c4 E050      		subi r30,lo8(-(chan_addrs))
 252 00c6 F040      		sbci r31,hi8(-(chan_addrs))
 253               	.LVL11:
 254 00c8 2081      		ld r18,Z
 255 00ca 822B      		or r24,r18
 256 00cc 8093 0000 		sts send8,r24
 257               	.LM56:
 258 00d0 90E0      		ldi r25,lo8(0)
 259 00d2 0E94 0000 		call SPI_WriteByte
 260               	.LVL12:
 261               	.LM57:
 262 00d6 0093 0000 		sts send8,r16
 263               	.LM58:
 264 00da 802F      		mov r24,r16
 265 00dc 90E0      		ldi r25,lo8(0)
 266 00de 0E94 0000 		call SPI_WriteByte
 267               	.LM59:
 268 00e2 5B9A      		sbi 43-32,3
 269               	/* epilogue start */
 270               	.LM60:
 271 00e4 1F91      		pop r17
 272 00e6 0F91      		pop r16
 273               	.LVL13:
 274 00e8 0895      		ret
 275               	.LFE10:
 277               	.global	set_reverser
 279               	set_reverser:
 280               	.LFB15:
 281               	.LM61:
 282               	.LVL14:
 283               	/* prologue: function */
 284               	/* frame size = 0 */
 285               	/* epilogue start */
 286               	.LM62:
 287 00ea 0895      		ret
 288               	.LFE15:
 290               	.global	setDAC
 292               	setDAC:
 293               	.LFB16:
 294               	.LM63:
 295               	/* prologue: function */
 296               	/* frame size = 0 */
 297               	.LM64:
 298 00ec 5A98      		cbi 43-32,2
 299               	.LM65:
 300 00ee 5A9A      		sbi 43-32,2
 301               	/* epilogue start */
 302               	.LM66:
 303 00f0 0895      		ret
 304               	.LFE16:
 306               	.global	main
 308               	main:
 309               	.LFB17:
 310               	.LM67:
 311 00f2 1F93      		push r17
 312               	/* prologue: function */
 313               	/* frame size = 0 */
 314               	.LM68:
 315 00f4 8091 0000 		lds r24,STAT_CYCLE
 316 00f8 9091 0000 		lds r25,STAT_N
 317 00fc 899F      		mul r24,r25
 318 00fe 802D      		mov r24,r0
 319 0100 1124      		clr r1
 320 0102 8093 0000 		sts BIG_STAT_N,r24
 321 0106 E0E0      		ldi r30,lo8(chan_addrs)
 322 0108 F0E0      		ldi r31,hi8(chan_addrs)
 323               	.L26:
 324               	.LBB70:
 325               	.LM69:
 326 010a 8081      		ld r24,Z
 327 010c 8295      		swap r24
 328 010e 807F      		andi r24,lo8(-16)
 329 0110 8193      		st Z+,r24
 330               	.LM70:
 331 0112 80E0      		ldi r24,hi8(chan_addrs+8)
 332 0114 E030      		cpi r30,lo8(chan_addrs+8)
 333 0116 F807      		cpc r31,r24
 334 0118 01F4      		brne .L26
 335               	.LBE70:
 336               	.LM71:
 337 011a 88B1      		in r24,40-32
 338 011c 88B9      		out 40-32,r24
 339               	.LM72:
 340 011e 8EE1      		ldi r24,lo8(30)
 341 0120 87B9      		out 39-32,r24
 342               	.LM73:
 343 0122 8EEF      		ldi r24,lo8(-2)
 344 0124 8AB9      		out 42-32,r24
 345               	.LM74:
 346 0126 8FE1      		ldi r24,lo8(31)
 347 0128 84B9      		out 36-32,r24
 348               	.LM75:
 349               	/* #APP */
 350               	 ;  277 "main.c" 1
 351 012a 7894      		sei
 352               	 ;  0 "" 2
 353               	/* #NOAPP */
 354               	.LBB71:
 355               	.LBB72:
 356               	.LM76:
 357 012c 8CE2      		ldi r24,lo8(44)
 358 012e 84B9      		out 36-32,r24
 359               	.LM77:
 360 0130 88E5      		ldi r24,lo8(88)
 361 0132 8CBD      		out 76-32,r24
 362               	.LBE72:
 363               	.LBE71:
 364               	.LBB73:
 365               	.LBB74:
 366               	.LM78:
 367 0134 1092 B000 		sts 176,__zero_reg__
 368               	.LM79:
 369 0138 1092 B100 		sts 177,__zero_reg__
 370               	.LM80:
 371 013c 8091 B100 		lds r24,177
 372 0140 8260      		ori r24,lo8(2)
 373 0142 8093 B100 		sts 177,r24
 374               	.LM81:
 375 0146 81E0      		ldi r24,lo8(1)
 376 0148 8093 7000 		sts 112,r24
 377               	.LBE74:
 378               	.LBE73:
 379               	.LBB75:
 380               	.LBB76:
 381               	.LM82:
 382 014c 1092 C500 		sts 197,__zero_reg__
 383               	.LM83:
 384 0150 83E3      		ldi r24,lo8(51)
 385 0152 8093 C400 		sts 196,r24
 386               	.LM84:
 387 0156 88E9      		ldi r24,lo8(-104)
 388 0158 8093 C100 		sts 193,r24
 389               	.LM85:
 390 015c 8EE0      		ldi r24,lo8(14)
 391 015e 8093 C200 		sts 194,r24
 392               	.LBE76:
 393               	.LBE75:
 394               	.LBB77:
 395               	.LBB78:
 396               	.LM86:
 397 0162 8091 7A00 		lds r24,122
 398 0166 8368      		ori r24,lo8(-125)
 399 0168 8093 7A00 		sts 122,r24
 400               	.LM87:
 401 016c 8091 7C00 		lds r24,124
 402 0170 8064      		ori r24,lo8(64)
 403 0172 8093 7C00 		sts 124,r24
 404               	.LBE78:
 405               	.LBE77:
 406               	.LM88:
 407 0176 8091 7A00 		lds r24,122
 408 017a 8064      		ori r24,lo8(64)
 409 017c 8093 7A00 		sts 122,r24
 410               	.LM89:
 411 0180 8091 7800 		lds r24,120
 412               	.LM90:
 413 0184 8091 7800 		lds r24,120
 414 0188 10E0      		ldi r17,lo8(0)
 415               	.L27:
 416               	.LBB79:
 417               	.LM91:
 418 018a 80E0      		ldi r24,lo8(0)
 419 018c 90E0      		ldi r25,hi8(0)
 420 018e 612F      		mov r22,r17
 421 0190 0E94 0000 		call prepareSetDAC
 422 0194 1F5F      		subi r17,lo8(-(1))
 423               	.LM92:
 424 0196 1830      		cpi r17,lo8(8)
 425 0198 01F4      		brne .L27
 426               	.LBE79:
 427               	.LBB80:
 428               	.LBB81:
 429               	.LM93:
 430 019a 5A98      		cbi 43-32,2
 431               	.LM94:
 432 019c 5A9A      		sbi 43-32,2
 433               	.LBE81:
 434               	.LBE80:
 435               	.LM95:
 436 019e 0E94 0000 		call separMult
 437               	.L28:
 438 01a2 00C0      		rjmp .L28
 439               	.LFE17:
 441               	.global	__vector_9
 443               	__vector_9:
 444               	.LFB18:
 445               	.LM96:
 446 01a4 1F92      		push __zero_reg__
 447 01a6 0F92      		push r0
 448 01a8 0FB6      		in r0,__SREG__
 449 01aa 0F92      		push r0
 450 01ac 1124      		clr __zero_reg__
 451 01ae 2F93      		push r18
 452 01b0 3F93      		push r19
 453 01b2 4F93      		push r20
 454 01b4 5F93      		push r21
 455 01b6 6F93      		push r22
 456 01b8 7F93      		push r23
 457 01ba 8F93      		push r24
 458 01bc 9F93      		push r25
 459 01be AF93      		push r26
 460 01c0 BF93      		push r27
 461 01c2 EF93      		push r30
 462 01c4 FF93      		push r31
 463               	/* prologue: Signal */
 464               	/* frame size = 0 */
 465               	.LM97:
 466 01c6 2091 0000 		lds r18,ctr
 467 01ca 3091 0000 		lds r19,(ctr)+1
 468 01ce 8091 0000 		lds r24,time_step
 469 01d2 9091 0000 		lds r25,(time_step)+1
 470 01d6 8217      		cp r24,r18
 471 01d8 9307      		cpc r25,r19
 472 01da 04F0      		brlt .+2
 473 01dc 00C0      		rjmp .L33
 474               	.LM98:
 475 01de 6091 0000 		lds r22,MD
 476 01e2 6623      		tst r22
 477 01e4 01F0      		breq .+2
 478 01e6 00C0      		rjmp .L34
 479               	.LM99:
 480 01e8 2091 0000 		lds r18,event_cnt
 481 01ec 3091 0000 		lds r19,(event_cnt)+1
 482 01f0 2130      		cpi r18,1
 483 01f2 3105      		cpc r19,__zero_reg__
 484 01f4 01F4      		brne .L35
 485               	.LM100:
 486 01f6 9091 7800 		lds r25,120
 487 01fa 9093 0000 		sts ADCL_,r25
 488               	.LM101:
 489 01fe 8091 7900 		lds r24,121
 490 0202 8093 0000 		sts ADCH_,r24
 491               	.LM102:
 492 0206 9093 C600 		sts 198,r25
 493 020a 00C0      		rjmp .L36
 494               	.L35:
 495               	.LM103:
 496 020c 2230      		cpi r18,2
 497 020e 3105      		cpc r19,__zero_reg__
 498 0210 01F4      		brne .L37
 499               	.LM104:
 500 0212 8091 0000 		lds r24,ADCH_
 501 0216 8093 C600 		sts 198,r24
 502 021a 00C0      		rjmp .L36
 503               	.L37:
 504               	.LM105:
 505 021c 2115      		cp r18,__zero_reg__
 506 021e 3105      		cpc r19,__zero_reg__
 507 0220 01F4      		brne .L36
 508               	.LM106:
 509 0222 8FEF      		ldi r24,lo8(-1)
 510 0224 00C0      		rjmp .L114
 511               	.L36:
 512               	.LM107:
 513 0226 8091 0000 		lds r24,t1
 514 022a 90E0      		ldi r25,lo8(0)
 515 022c 2817      		cp r18,r24
 516 022e 3907      		cpc r19,r25
 517 0230 01F4      		brne .+2
 518 0232 00C0      		rjmp .L38
 519               	.LM108:
 520 0234 8091 0000 		lds r24,dT
 521 0238 90E0      		ldi r25,lo8(0)
 522 023a 2817      		cp r18,r24
 523 023c 3907      		cpc r19,r25
 524 023e 01F4      		brne .+2
 525 0240 00C0      		rjmp .L38
 526               	.LM109:
 527 0242 0196      		adiw r24,1
 528 0244 2817      		cp r18,r24
 529 0246 3907      		cpc r19,r25
 530 0248 01F4      		brne .+2
 531 024a 00C0      		rjmp .L107
 532               	.L39:
 533               	.LM110:
 534 024c 8091 0000 		lds r24,dTt2
 535 0250 90E0      		ldi r25,lo8(0)
 536 0252 2817      		cp r18,r24
 537 0254 3907      		cpc r19,r25
 538 0256 01F0      		breq .+2
 539 0258 00C0      		rjmp .L38
 540               	.LM111:
 541 025a 8091 C000 		lds r24,192
 542 025e 85FF      		sbrs r24,5
 543 0260 00C0      		rjmp .L40
 544               	.LM112:
 545 0262 8091 0000 		lds r24,_adc
 546 0266 8093 C600 		sts 198,r24
 547               	.L40:
 548               	.LM113:
 549 026a 1092 0000 		sts (accum)+1,__zero_reg__
 550 026e 1092 0000 		sts accum,__zero_reg__
 551               	.LM114:
 552 0272 1092 0000 		sts ADC_on,__zero_reg__
 553               	.LM115:
 554 0276 1092 0000 		sts accum_cnt,__zero_reg__
 555 027a 00C0      		rjmp .L38
 556               	.L34:
 557               	.LM116:
 558 027c 6130      		cpi r22,lo8(1)
 559 027e 01F0      		breq .+2
 560 0280 00C0      		rjmp .L41
 561               	.LBB82:
 562               	.LM117:
 563 0282 8091 0000 		lds r24,i.1506
 564 0286 9091 0000 		lds r25,(i.1506)+1
 565 028a 0196      		adiw r24,1
 566 028c 9093 0000 		sts (i.1506)+1,r25
 567 0290 8093 0000 		sts i.1506,r24
 568               	.LM118:
 569 0294 8091 0000 		lds r24,UDP_cnt
 570 0298 8130      		cpi r24,lo8(1)
 571 029a 01F0      		breq .L44
 572 029c 8130      		cpi r24,lo8(1)
 573 029e 00F0      		brlo .L43
 574 02a0 8230      		cpi r24,lo8(2)
 575 02a2 01F0      		breq .L45
 576 02a4 8330      		cpi r24,lo8(3)
 577 02a6 01F0      		breq .+2
 578 02a8 00C0      		rjmp .L42
 579 02aa 00C0      		rjmp .L115
 580               	.L43:
 581               	.LM119:
 582 02ac 8091 7A00 		lds r24,122
 583 02b0 8064      		ori r24,lo8(64)
 584 02b2 8093 7A00 		sts 122,r24
 585               	.LM120:
 586 02b6 8FEF      		ldi r24,lo8(-1)
 587 02b8 00C0      		rjmp .L100
 588               	.L44:
 589               	.LM121:
 590 02ba 8091 0000 		lds r24,ADCL_
 591 02be 8093 0000 		sts ADCL__,r24
 592               	.LM122:
 593 02c2 8091 0000 		lds r24,ADCH_
 594 02c6 8093 0000 		sts ADCH__,r24
 595               	.LM123:
 596 02ca 9091 7800 		lds r25,120
 597 02ce 9093 0000 		sts ADCL_,r25
 598               	.LM124:
 599 02d2 8091 7900 		lds r24,121
 600 02d6 8093 0000 		sts ADCH_,r24
 601               	.LM125:
 602 02da 9093 C600 		sts 198,r25
 603 02de 00C0      		rjmp .L42
 604               	.L45:
 605               	.LM126:
 606 02e0 8091 0000 		lds r24,ADCH_
 607               	.L100:
 608 02e4 8093 C600 		sts 198,r24
 609 02e8 00C0      		rjmp .L42
 610               	.L115:
 611               	.LM127:
 612 02ea 2091 0000 		lds r18,VAC16
 613 02ee 3091 0000 		lds r19,(VAC16)+1
 614 02f2 3093 0000 		sts (VAC16_H)+1,r19
 615 02f6 2093 0000 		sts VAC16_H,r18
 616               	.LM128:
 617 02fa 8091 0000 		lds r24,pos_phase
 618 02fe 8823      		tst r24
 619 0300 01F0      		breq .L47
 620               	.LM129:
 621 0302 205E      		subi r18,lo8(-(32))
 622 0304 3F4F      		sbci r19,hi8(-(32))
 623 0306 3093 0000 		sts (VAC16)+1,r19
 624 030a 2093 0000 		sts VAC16,r18
 625               	.LM130:
 626 030e 8091 0000 		lds r24,ref16
 627 0312 9091 0000 		lds r25,(ref16)+1
 628 0316 2817      		cp r18,r24
 629 0318 3907      		cpc r19,r25
 630 031a 04F0      		brlt .L48
 631               	.LM131:
 632 031c 1092 0000 		sts pos_phase,__zero_reg__
 633 0320 00C0      		rjmp .L48
 634               	.L47:
 635               	.LM132:
 636 0322 C901      		movw r24,r18
 637 0324 8097      		sbiw r24,32
 638 0326 9093 0000 		sts (VAC16)+1,r25
 639 032a 8093 0000 		sts VAC16,r24
 640               	.LM133:
 641 032e 21E0      		ldi r18,lo8(1)
 642 0330 30E0      		ldi r19,hi8(1)
 643 0332 4091 0000 		lds r20,x16
 644 0336 5091 0000 		lds r21,(x16)+1
 645 033a 241B      		sub r18,r20
 646 033c 350B      		sbc r19,r21
 647 033e 8217      		cp r24,r18
 648 0340 9307      		cpc r25,r19
 649 0342 04F4      		brge .L48
 650               	.LM134:
 651 0344 6093 0000 		sts pos_phase,r22
 652               	.L48:
 653               	.LM135:
 654 0348 8091 0000 		lds r24,VAC16
 655 034c 9091 0000 		lds r25,(VAC16)+1
 656 0350 9C01      		movw r18,r24
 657 0352 B4E0      		ldi r27,4
 658 0354 3595      	1:	asr r19
 659 0356 2795      		ror r18
 660 0358 BA95      		dec r27
 661 035a 01F4      		brne 1b
 662 035c 2093 C600 		sts 198,r18
 663               	.LM136:
 664 0360 6091 0000 		lds r22,chan
 665 0364 0E94 0000 		call prepareSetDAC
 666               	.LBB83:
 667               	.LBB84:
 668               	.LM137:
 669 0368 5A98      		cbi 43-32,2
 670               	.LM138:
 671 036a 5A9A      		sbi 43-32,2
 672               	.L42:
 673               	.LBE84:
 674               	.LBE83:
 675               	.LM139:
 676 036c 8091 0000 		lds r24,UDP_cnt
 677 0370 8F5F      		subi r24,lo8(-(1))
 678 0372 8370      		andi r24,lo8(3)
 679 0374 8093 0000 		sts UDP_cnt,r24
 680 0378 00C0      		rjmp .L38
 681               	.L41:
 682               	.LBE82:
 683               	.LM140:
 684 037a 6230      		cpi r22,lo8(2)
 685 037c 01F0      		breq .+2
 686 037e 00C0      		rjmp .L49
 687               	.LBB85:
 688               	.LM141:
 689 0380 80E1      		ldi r24,lo8(16)
 690 0382 8093 0000 		sts T,r24
 691               	.LM142:
 692 0386 4091 0000 		lds r20,event_cnt
 693 038a 5091 0000 		lds r21,(event_cnt)+1
 694 038e 4130      		cpi r20,1
 695 0390 5105      		cpc r21,__zero_reg__
 696 0392 01F4      		brne .L50
 697               	.LM143:
 698 0394 8091 0000 		lds r24,PROGRAM_done
 699 0398 8093 C600 		sts 198,r24
 700 039c 00C0      		rjmp .L51
 701               	.L50:
 702               	.LM144:
 703 039e 4230      		cpi r20,2
 704 03a0 5105      		cpc r21,__zero_reg__
 705 03a2 01F4      		brne .L52
 706               	.LM145:
 707 03a4 9091 7800 		lds r25,120
 708 03a8 9093 0000 		sts ADCL_,r25
 709               	.LM146:
 710 03ac 8091 7900 		lds r24,121
 711 03b0 8093 0000 		sts ADCH_,r24
 712               	.LM147:
 713 03b4 9093 C600 		sts 198,r25
 714 03b8 00C0      		rjmp .L53
 715               	.L52:
 716               	.LM148:
 717 03ba 4330      		cpi r20,3
 718 03bc 5105      		cpc r21,__zero_reg__
 719 03be 01F4      		brne .L54
 720               	.LM149:
 721 03c0 8091 0000 		lds r24,ADCH_
 722 03c4 8093 C600 		sts 198,r24
 723               	.LM150:
 724 03c8 382F      		mov r19,r24
 725 03ca 20E0      		ldi r18,lo8(0)
 726 03cc 8091 0000 		lds r24,ADCL_
 727 03d0 90E0      		ldi r25,lo8(0)
 728 03d2 822B      		or r24,r18
 729 03d4 932B      		or r25,r19
 730 03d6 9093 0000 		sts (_adc)+1,r25
 731 03da 8093 0000 		sts _adc,r24
 732               	.LM151:
 733 03de 20E0      		ldi r18,lo8(512)
 734 03e0 32E0      		ldi r19,hi8(512)
 735 03e2 281B      		sub r18,r24
 736 03e4 390B      		sbc r19,r25
 737 03e6 3093 0000 		sts (adc_h.1512)+1,r19
 738 03ea 2093 0000 		sts adc_h.1512,r18
 739               	.LM152:
 740 03ee 8091 0000 		lds r24,t1
 741 03f2 90E0      		ldi r25,lo8(0)
 742 03f4 2817      		cp r18,r24
 743 03f6 3907      		cpc r19,r25
 744 03f8 01F0      		breq .+2
 745 03fa 00C0      		rjmp .L51
 746               	.LM153:
 747 03fc 81E0      		ldi r24,lo8(1)
 748 03fe 8093 0000 		sts PROGRAM_done,r24
 749               	.LM154:
 750 0402 1092 0000 		sts (prog_val)+1,__zero_reg__
 751 0406 1092 0000 		sts prog_val,__zero_reg__
 752 040a 00C0      		rjmp .L55
 753               	.L54:
 754               	.LM155:
 755 040c 4115      		cp r20,__zero_reg__
 756 040e 5105      		cpc r21,__zero_reg__
 757 0410 01F4      		brne .L51
 758               	.LM156:
 759 0412 8FEF      		ldi r24,lo8(-1)
 760 0414 8093 C600 		sts 198,r24
 761               	.LM157:
 762 0418 2091 0000 		lds r18,prog_val
 763 041c 3091 0000 		lds r19,(prog_val)+1
 764 0420 205E      		subi r18,lo8(-(32))
 765 0422 3F4F      		sbci r19,hi8(-(32))
 766 0424 3093 0000 		sts (prog_val)+1,r19
 767 0428 2093 0000 		sts prog_val,r18
 768               	.LM158:
 769 042c 4091 0000 		lds r20,x16
 770 0430 5091 0000 		lds r21,(x16)+1
 771 0434 80E2      		ldi r24,lo8(32)
 772 0436 90E0      		ldi r25,hi8(32)
 773 0438 841B      		sub r24,r20
 774 043a 950B      		sbc r25,r21
 775 043c 2817      		cp r18,r24
 776 043e 3907      		cpc r19,r25
 777 0440 01F4      		brne .L56
 778               	.LM159:
 779 0442 1092 0000 		sts (prog_val)+1,__zero_reg__
 780 0446 1092 0000 		sts prog_val,__zero_reg__
 781 044a 00C0      		rjmp .L57
 782               	.L56:
 783               	.LM160:
 784 044c 8091 0000 		lds r24,t2
 785 0450 90E0      		ldi r25,lo8(0)
 786 0452 A4E0      		ldi r26,4
 787 0454 880F      	1:	lsl r24
 788 0456 991F      		rol r25
 789 0458 AA95      		dec r26
 790 045a 01F4      		brne 1b
 791 045c 8217      		cp r24,r18
 792 045e 9307      		cpc r25,r19
 793 0460 04F4      		brge .L57
 794               	.LM161:
 795 0462 8827      		clr r24
 796 0464 9927      		clr r25
 797 0466 841B      		sub r24,r20
 798 0468 950B      		sbc r25,r21
 799 046a 9093 0000 		sts (prog_val)+1,r25
 800 046e 8093 0000 		sts prog_val,r24
 801               	.L57:
 802               	.LM162:
 803 0472 8091 0000 		lds r24,PROGRAM_done
 804 0476 8823      		tst r24
 805 0478 01F0      		breq .L58
 806               	.LM163:
 807 047a 1092 0000 		sts (prog_val)+1,__zero_reg__
 808 047e 1092 0000 		sts prog_val,__zero_reg__
 809               	.L58:
 810               	.LM164:
 811 0482 8091 0000 		lds r24,prog_val
 812 0486 9091 0000 		lds r25,(prog_val)+1
 813 048a 00C0      		rjmp .L108
 814               	.L51:
 815               	.LM165:
 816 048c 4730      		cpi r20,7
 817 048e 5105      		cpc r21,__zero_reg__
 818 0490 01F4      		brne .+2
 819 0492 00C0      		rjmp .L111
 820               	.L53:
 821               	.LM166:
 822 0494 4930      		cpi r20,9
 823 0496 5105      		cpc r21,__zero_reg__
 824 0498 01F4      		brne .L55
 825               	.LM167:
 826 049a 8091 0000 		lds r24,ref16
 827 049e 9091 0000 		lds r25,(ref16)+1
 828 04a2 00C0      		rjmp .L108
 829               	.L55:
 830               	.LM168:
 831 04a4 4A30      		cpi r20,10
 832 04a6 5105      		cpc r21,__zero_reg__
 833 04a8 01F4      		brne .+2
 834 04aa 00C0      		rjmp .L107
 835               	.L59:
 836               	.LM169:
 837 04ac 4E30      		cpi r20,14
 838 04ae 5105      		cpc r21,__zero_reg__
 839 04b0 01F0      		breq .+2
 840 04b2 00C0      		rjmp .L38
 841               	.LM170:
 842 04b4 1092 0000 		sts (accum)+1,__zero_reg__
 843 04b8 1092 0000 		sts accum,__zero_reg__
 844               	.LM171:
 845 04bc 1092 0000 		sts ADC_on,__zero_reg__
 846               	.LM172:
 847 04c0 1092 0000 		sts accum_cnt,__zero_reg__
 848 04c4 00C0      		rjmp .L111
 849               	.L49:
 850               	.LBE85:
 851               	.LM173:
 852 04c6 6530      		cpi r22,lo8(5)
 853 04c8 01F0      		breq .+2
 854 04ca 00C0      		rjmp .L60
 855               	.LM174:
 856 04cc 8091 0000 		lds r24,event_cnt
 857 04d0 9091 0000 		lds r25,(event_cnt)+1
 858 04d4 0097      		sbiw r24,0
 859 04d6 01F0      		breq .L103
 860               	.L61:
 861               	.LM175:
 862 04d8 8130      		cpi r24,1
 863 04da 9105      		cpc r25,__zero_reg__
 864 04dc 01F4      		brne .L62
 865               	.LM176:
 866 04de 8091 0000 		lds r24,unset16
 867 04e2 9091 0000 		lds r25,(unset16)+1
 868 04e6 63E0      		ldi r22,lo8(3)
 869 04e8 0E94 0000 		call prepareSetDAC
 870               	.LM177:
 871 04ec 8091 0000 		lds r24,unset16
 872 04f0 9091 0000 		lds r25,(unset16)+1
 873 04f4 00C0      		rjmp .L109
 874               	.L62:
 875               	.LM178:
 876 04f6 8230      		cpi r24,2
 877 04f8 9105      		cpc r25,__zero_reg__
 878 04fa 01F4      		brne .L63
 879               	.LM179:
 880 04fc 80E0      		ldi r24,lo8(0)
 881 04fe 90E0      		ldi r25,hi8(0)
 882 0500 63E0      		ldi r22,lo8(3)
 883 0502 0E94 0000 		call prepareSetDAC
 884 0506 00C0      		rjmp .L113
 885               	.L63:
 886               	.LM180:
 887 0508 8330      		cpi r24,3
 888 050a 9105      		cpc r25,__zero_reg__
 889 050c 01F4      		brne .L64
 890               	.LM181:
 891 050e 0E94 0000 		call gatherMult
 892 0512 00C0      		rjmp .L38
 893               	.L64:
 894               	.LM182:
 895 0514 8430      		cpi r24,4
 896 0516 9105      		cpc r25,__zero_reg__
 897 0518 01F4      		brne .L65
 898               	.LM183:
 899 051a 8091 0000 		lds r24,x16
 900 051e 9091 0000 		lds r25,(x16)+1
 901 0522 00C0      		rjmp .L110
 902               	.L65:
 903               	.LM184:
 904 0524 8530      		cpi r24,5
 905 0526 9105      		cpc r25,__zero_reg__
 906 0528 01F0      		breq .L112
 907               	.L66:
 908               	.LM185:
 909 052a 8630      		cpi r24,6
 910 052c 9105      		cpc r25,__zero_reg__
 911 052e 01F4      		brne .L67
 912               	.LM186:
 913 0530 8FEF      		ldi r24,lo8(-1)
 914 0532 8093 C600 		sts 198,r24
 915               	.L103:
 916               	.LM187:
 917 0536 0E94 0000 		call separMult
 918 053a 00C0      		rjmp .L38
 919               	.L67:
 920               	.LM188:
 921 053c 8730      		cpi r24,7
 922 053e 9105      		cpc r25,__zero_reg__
 923 0540 01F4      		brne .L68
 924               	.LM189:
 925 0542 8091 0000 		lds r24,ref16
 926 0546 9091 0000 		lds r25,(ref16)+1
 927 054a 63E0      		ldi r22,lo8(3)
 928 054c 00C0      		rjmp .L105
 929               	.L68:
 930               	.LM190:
 931 054e 8930      		cpi r24,9
 932 0550 9105      		cpc r25,__zero_reg__
 933 0552 01F4      		brne .+2
 934 0554 00C0      		rjmp .L106
 935               	.L69:
 936               	.LM191:
 937 0556 8A30      		cpi r24,10
 938 0558 9105      		cpc r25,__zero_reg__
 939 055a 01F4      		brne .L70
 940               	.LM192:
 941 055c 8091 0000 		lds r24,ADCH_
 942 0560 8093 C600 		sts 198,r24
 943               	.L112:
 944               	.LM193:
 945 0564 80E0      		ldi r24,lo8(0)
 946 0566 90E0      		ldi r25,hi8(0)
 947               	.L110:
 948 0568 63E0      		ldi r22,lo8(3)
 949 056a 00C0      		rjmp .L102
 950               	.L70:
 951               	.LM194:
 952 056c 8B30      		cpi r24,11
 953 056e 9105      		cpc r25,__zero_reg__
 954 0570 01F4      		brne .L71
 955               	.LM195:
 956 0572 8091 0000 		lds r24,ref16
 957 0576 9091 0000 		lds r25,(ref16)+1
 958 057a 62E0      		ldi r22,lo8(2)
 959 057c 00C0      		rjmp .L105
 960               	.L71:
 961               	.LM196:
 962 057e 8D30      		cpi r24,13
 963 0580 9105      		cpc r25,__zero_reg__
 964 0582 01F4      		brne .+2
 965 0584 00C0      		rjmp .L106
 966               	.L72:
 967               	.LM197:
 968 0586 0E97      		sbiw r24,14
 969 0588 01F0      		breq .+2
 970 058a 00C0      		rjmp .L38
 971               	.LM198:
 972 058c 8091 0000 		lds r24,ADCH_
 973 0590 8093 C600 		sts 198,r24
 974               	.L113:
 975               	.LM199:
 976 0594 80E0      		ldi r24,lo8(0)
 977 0596 90E0      		ldi r25,hi8(0)
 978               	.L109:
 979 0598 62E0      		ldi r22,lo8(2)
 980               	.L102:
 981 059a 0E94 0000 		call prepareSetDAC
 982               	.LBB86:
 983               	.LBB87:
 984               	.LM200:
 985 059e 5A98      		cbi 43-32,2
 986               	.LM201:
 987 05a0 5A9A      		sbi 43-32,2
 988 05a2 00C0      		rjmp .L38
 989               	.L60:
 990               	.LBE87:
 991               	.LBE86:
 992               	.LM202:
 993 05a4 6630      		cpi r22,lo8(6)
 994 05a6 01F0      		breq .+2
 995 05a8 00C0      		rjmp .L38
 996               	.LM203:
 997 05aa 8091 0000 		lds r24,event_cnt
 998 05ae 9091 0000 		lds r25,(event_cnt)+1
 999 05b2 0097      		sbiw r24,0
 1000 05b4 01F4      		brne .L73
 1001               	.LM204:
 1002 05b6 8091 0000 		lds r24,unset16
 1003 05ba 9091 0000 		lds r25,(unset16)+1
 1004 05be 6091 0000 		lds r22,chan
 1005 05c2 0E94 0000 		call prepareSetDAC
 1006               	.LBB88:
 1007               	.LBB89:
 1008               	.LM205:
 1009 05c6 5A98      		cbi 43-32,2
 1010               	.LM206:
 1011 05c8 5A9A      		sbi 43-32,2
 1012               	.LBE89:
 1013               	.LBE88:
 1014               	.LM207:
 1015 05ca 8FEF      		ldi r24,lo8(-1)
 1016 05cc 00C0      		rjmp .L104
 1017               	.L73:
 1018               	.LM208:
 1019 05ce 8130      		cpi r24,1
 1020 05d0 9105      		cpc r25,__zero_reg__
 1021 05d2 01F4      		brne .L74
 1022               	.L111:
 1023               	.LM209:
 1024 05d4 80E0      		ldi r24,lo8(0)
 1025 05d6 90E0      		ldi r25,hi8(0)
 1026               	.L108:
 1027 05d8 6091 0000 		lds r22,chan
 1028 05dc 00C0      		rjmp .L102
 1029               	.L74:
 1030               	.LM210:
 1031 05de 8330      		cpi r24,3
 1032 05e0 9105      		cpc r25,__zero_reg__
 1033 05e2 01F0      		breq .+2
 1034 05e4 00C0      		rjmp .L75
 1035               	.LM211:
 1036 05e6 4091 0000 		lds r20,an_cnt
 1037 05ea 5091 0000 		lds r21,(an_cnt)+1
 1038 05ee 2091 0000 		lds r18,BIG_STAT_N
 1039 05f2 822F      		mov r24,r18
 1040 05f4 90E0      		ldi r25,lo8(0)
 1041 05f6 4817      		cp r20,r24
 1042 05f8 5907      		cpc r21,r25
 1043 05fa 00F4      		brsh .L76
 1044               	.LM212:
 1045 05fc 1092 0000 		sts STAT_V_step,__zero_reg__
 1046 0600 00C0      		rjmp .L77
 1047               	.L76:
 1048               	.LM213:
 1049 0602 822F      		mov r24,r18
 1050 0604 90E0      		ldi r25,lo8(0)
 1051 0606 9C01      		movw r18,r24
 1052 0608 220F      		lsl r18
 1053 060a 331F      		rol r19
 1054 060c 4217      		cp r20,r18
 1055 060e 5307      		cpc r21,r19
 1056 0610 00F4      		brsh .L78
 1057               	.LM214:
 1058 0612 81E0      		ldi r24,lo8(1)
 1059 0614 00C0      		rjmp .L101
 1060               	.L78:
 1061               	.LM215:
 1062 0616 280F      		add r18,r24
 1063 0618 391F      		adc r19,r25
 1064 061a 4217      		cp r20,r18
 1065 061c 5307      		cpc r21,r19
 1066 061e 00F4      		brsh .L79
 1067               	.LM216:
 1068 0620 82E0      		ldi r24,lo8(2)
 1069 0622 00C0      		rjmp .L101
 1070               	.L79:
 1071               	.LM217:
 1072 0624 9C01      		movw r18,r24
 1073 0626 220F      		lsl r18
 1074 0628 331F      		rol r19
 1075 062a 220F      		lsl r18
 1076 062c 331F      		rol r19
 1077 062e 4217      		cp r20,r18
 1078 0630 5307      		cpc r21,r19
 1079 0632 00F4      		brsh .L80
 1080               	.LM218:
 1081 0634 83E0      		ldi r24,lo8(3)
 1082 0636 00C0      		rjmp .L101
 1083               	.L80:
 1084               	.LM219:
 1085 0638 280F      		add r18,r24
 1086 063a 391F      		adc r19,r25
 1087 063c 4217      		cp r20,r18
 1088 063e 5307      		cpc r21,r19
 1089 0640 00F4      		brsh .L77
 1090               	.LM220:
 1091 0642 84E0      		ldi r24,lo8(4)
 1092               	.L101:
 1093 0644 8093 0000 		sts STAT_V_step,r24
 1094               	.L77:
 1095               	.LM221:
 1096 0648 8091 0000 		lds r24,STAT_V_step
 1097 064c 8093 C600 		sts 198,r24
 1098               	.LM222:
 1099 0650 90E0      		ldi r25,lo8(0)
 1100 0652 8095      		com r24
 1101 0654 9095      		com r25
 1102 0656 9695      		lsr r25
 1103 0658 982F      		mov r25,r24
 1104 065a 8827      		clr r24
 1105 065c 9795      		ror r25
 1106 065e 8795      		ror r24
 1107 0660 9093 0000 		sts (x16_grad)+1,r25
 1108 0664 8093 0000 		sts x16_grad,r24
 1109               	.LM223:
 1110 0668 6091 0000 		lds r22,chan
 1111 066c 0E94 0000 		call prepareSetDAC
 1112               	.LBB90:
 1113               	.LBB91:
 1114               	.LM224:
 1115 0670 5A98      		cbi 43-32,2
 1116               	.LM225:
 1117 0672 5A9A      		sbi 43-32,2
 1118               	.LBE91:
 1119               	.LBE90:
 1120               	.LM226:
 1121 0674 4091 0000 		lds r20,an_cnt_fast
 1122 0678 5091 0000 		lds r21,(an_cnt_fast)+1
 1123 067c 8091 0000 		lds r24,STAT_N
 1124 0680 90E0      		ldi r25,lo8(0)
 1125 0682 4817      		cp r20,r24
 1126 0684 5907      		cpc r21,r25
 1127 0686 00F4      		brsh .L81
 1128               	.LM227:
 1129 0688 1092 0000 		sts STAT_dt_step,__zero_reg__
 1130 068c 00C0      		rjmp .L82
 1131               	.L81:
 1132               	.LM228:
 1133 068e 9C01      		movw r18,r24
 1134 0690 220F      		lsl r18
 1135 0692 331F      		rol r19
 1136 0694 4217      		cp r20,r18
 1137 0696 5307      		cpc r21,r19
 1138 0698 00F4      		brsh .L83
 1139               	.LM229:
 1140 069a 81E0      		ldi r24,lo8(1)
 1141 069c 8093 0000 		sts STAT_dt_step,r24
 1142 06a0 80E0      		ldi r24,lo8(0)
 1143 06a2 90E0      		ldi r25,hi8(0)
 1144               	.LVL15:
 1145               	.L84:
 1146               	.LBB92:
 1147               	.LBB93:
 1148               	.LBB94:
 1149               	.LM230:
 1150 06a4 5A98      		cbi 43-32,2
 1151               	.LM231:
 1152 06a6 5A9A      		sbi 43-32,2
 1153               	.LBE94:
 1154               	.LBE93:
 1155               	.LM232:
 1156 06a8 0196      		adiw r24,1
 1157 06aa 8832      		cpi r24,40
 1158 06ac 9105      		cpc r25,__zero_reg__
 1159 06ae 01F4      		brne .L84
 1160 06b0 00C0      		rjmp .L82
 1161               	.LVL16:
 1162               	.L83:
 1163               	.LBE92:
 1164               	.LM233:
 1165 06b2 280F      		add r18,r24
 1166 06b4 391F      		adc r19,r25
 1167 06b6 4217      		cp r20,r18
 1168 06b8 5307      		cpc r21,r19
 1169 06ba 00F4      		brsh .L85
 1170               	.LM234:
 1171 06bc 82E0      		ldi r24,lo8(2)
 1172 06be 8093 0000 		sts STAT_dt_step,r24
 1173 06c2 80E0      		ldi r24,lo8(0)
 1174 06c4 90E0      		ldi r25,hi8(0)
 1175               	.LVL17:
 1176               	.L86:
 1177               	.LBB95:
 1178               	.LBB96:
 1179               	.LBB97:
 1180               	.LM235:
 1181 06c6 5A98      		cbi 43-32,2
 1182               	.LM236:
 1183 06c8 5A9A      		sbi 43-32,2
 1184               	.LBE97:
 1185               	.LBE96:
 1186               	.LM237:
 1187 06ca 0196      		adiw r24,1
 1188 06cc 803A      		cpi r24,160
 1189 06ce 9105      		cpc r25,__zero_reg__
 1190 06d0 01F4      		brne .L86
 1191 06d2 00C0      		rjmp .L82
 1192               	.LVL18:
 1193               	.L85:
 1194               	.LBE95:
 1195               	.LM238:
 1196 06d4 880F      		lsl r24
 1197 06d6 991F      		rol r25
 1198 06d8 880F      		lsl r24
 1199 06da 991F      		rol r25
 1200 06dc 4817      		cp r20,r24
 1201 06de 5907      		cpc r21,r25
 1202 06e0 00F4      		brsh .L87
 1203               	.LM239:
 1204 06e2 83E0      		ldi r24,lo8(3)
 1205 06e4 8093 0000 		sts STAT_dt_step,r24
 1206 06e8 80E0      		ldi r24,lo8(0)
 1207 06ea 90E0      		ldi r25,hi8(0)
 1208               	.LVL19:
 1209               	.L88:
 1210               	.LBB98:
 1211               	.LBB99:
 1212               	.LBB100:
 1213               	.LM240:
 1214 06ec 5A98      		cbi 43-32,2
 1215               	.LM241:
 1216 06ee 5A9A      		sbi 43-32,2
 1217               	.LBE100:
 1218               	.LBE99:
 1219               	.LM242:
 1220 06f0 0196      		adiw r24,1
 1221 06f2 22E0      		ldi r18,hi8(640)
 1222 06f4 8038      		cpi r24,lo8(640)
 1223 06f6 9207      		cpc r25,r18
 1224 06f8 01F4      		brne .L88
 1225 06fa 00C0      		rjmp .L82
 1226               	.LVL20:
 1227               	.L87:
 1228               	.LBE98:
 1229               	.LM243:
 1230 06fc 8091 0000 		lds r24,BIG_STAT_N
 1231 0700 90E0      		ldi r25,lo8(0)
 1232 0702 4817      		cp r20,r24
 1233 0704 5907      		cpc r21,r25
 1234 0706 00F4      		brsh .L82
 1235               	.LM244:
 1236 0708 84E0      		ldi r24,lo8(4)
 1237 070a 8093 0000 		sts STAT_dt_step,r24
 1238 070e 80E0      		ldi r24,lo8(0)
 1239 0710 90E0      		ldi r25,hi8(0)
 1240               	.LVL21:
 1241               	.L89:
 1242               	.LBB101:
 1243               	.LBB102:
 1244               	.LBB103:
 1245               	.LM245:
 1246 0712 5A98      		cbi 43-32,2
 1247               	.LM246:
 1248 0714 5A9A      		sbi 43-32,2
 1249               	.LBE103:
 1250               	.LBE102:
 1251               	.LM247:
 1252 0716 0196      		adiw r24,1
 1253 0718 2AE0      		ldi r18,hi8(2560)
 1254 071a 8030      		cpi r24,lo8(2560)
 1255 071c 9207      		cpc r25,r18
 1256 071e 01F4      		brne .L89
 1257               	.LVL22:
 1258               	.L82:
 1259               	.LBE101:
 1260               	.LM248:
 1261 0720 8091 0000 		lds r24,chan
 1262               	.LVL23:
 1263 0724 0E94 0000 		call prepareResetDAC
 1264               	.LBB104:
 1265               	.LBB105:
 1266               	.LM249:
 1267 0728 5A98      		cbi 43-32,2
 1268               	.LM250:
 1269 072a 5A9A      		sbi 43-32,2
 1270               	.LBE105:
 1271               	.LBE104:
 1272               	.LM251:
 1273 072c 8091 0000 		lds r24,an_cnt
 1274 0730 9091 0000 		lds r25,(an_cnt)+1
 1275 0734 0196      		adiw r24,1
 1276 0736 9093 0000 		sts (an_cnt)+1,r25
 1277 073a 8093 0000 		sts an_cnt,r24
 1278               	.LM252:
 1279 073e 2091 0000 		lds r18,BIG_STAT_N
 1280 0742 45E0      		ldi r20,lo8(5)
 1281 0744 249F      		mul r18,r20
 1282 0746 9001      		movw r18,r0
 1283 0748 1124      		clr r1
 1284 074a 2817      		cp r18,r24
 1285 074c 3907      		cpc r19,r25
 1286 074e 00F4      		brsh .L90
 1287 0750 1092 0000 		sts (an_cnt)+1,__zero_reg__
 1288 0754 1092 0000 		sts an_cnt,__zero_reg__
 1289               	.L90:
 1290               	.LM253:
 1291 0758 6091 0000 		lds r22,BIG_STAT_N
 1292 075c 8091 0000 		lds r24,an_cnt
 1293 0760 9091 0000 		lds r25,(an_cnt)+1
 1294 0764 70E0      		ldi r23,lo8(0)
 1295 0766 0E94 0000 		call __udivmodhi4
 1296 076a 9093 0000 		sts (an_cnt_fast)+1,r25
 1297 076e 8093 0000 		sts an_cnt_fast,r24
 1298 0772 00C0      		rjmp .L38
 1299               	.L75:
 1300               	.LM254:
 1301 0774 8430      		cpi r24,4
 1302 0776 9105      		cpc r25,__zero_reg__
 1303 0778 01F4      		brne .L91
 1304               	.LM255:
 1305 077a 8091 0000 		lds r24,STAT_dt_step
 1306               	.L114:
 1307 077e 8093 C600 		sts 198,r24
 1308 0782 00C0      		rjmp .L111
 1309               	.L91:
 1310               	.LM256:
 1311 0784 8630      		cpi r24,6
 1312 0786 9105      		cpc r25,__zero_reg__
 1313 0788 01F4      		brne .L92
 1314               	.LM257:
 1315 078a 8091 0000 		lds r24,ref16
 1316 078e 9091 0000 		lds r25,(ref16)+1
 1317 0792 6091 0000 		lds r22,chan
 1318               	.L105:
 1319 0796 0E94 0000 		call prepareSetDAC
 1320               	.LBB106:
 1321               	.LBB107:
 1322               	.LM258:
 1323 079a 5A98      		cbi 43-32,2
 1324               	.LM259:
 1325 079c 5A9A      		sbi 43-32,2
 1326               	.L107:
 1327               	.LBE107:
 1328               	.LBE106:
 1329               	.LM260:
 1330 079e 8091 7A00 		lds r24,122
 1331 07a2 8064      		ori r24,lo8(64)
 1332 07a4 8093 7A00 		sts 122,r24
 1333 07a8 00C0      		rjmp .L38
 1334               	.L92:
 1335               	.LM261:
 1336 07aa 8730      		cpi r24,7
 1337 07ac 9105      		cpc r25,__zero_reg__
 1338 07ae 01F4      		brne .L93
 1339               	.LM262:
 1340 07b0 80E0      		ldi r24,lo8(0)
 1341 07b2 90E0      		ldi r25,hi8(0)
 1342 07b4 6091 0000 		lds r22,chan
 1343 07b8 0E94 0000 		call prepareSetDAC
 1344               	.LBB108:
 1345               	.LBB109:
 1346               	.LM263:
 1347 07bc 5A98      		cbi 43-32,2
 1348               	.LM264:
 1349 07be 5A9A      		sbi 43-32,2
 1350               	.L106:
 1351               	.LBE109:
 1352               	.LBE108:
 1353               	.LM265:
 1354 07c0 9091 7800 		lds r25,120
 1355 07c4 9093 0000 		sts ADCL_,r25
 1356               	.LM266:
 1357 07c8 8091 7900 		lds r24,121
 1358 07cc 8093 0000 		sts ADCH_,r24
 1359               	.LM267:
 1360 07d0 9093 C600 		sts 198,r25
 1361 07d4 00C0      		rjmp .L38
 1362               	.L93:
 1363               	.LM268:
 1364 07d6 0897      		sbiw r24,8
 1365 07d8 01F4      		brne .L38
 1366               	.LM269:
 1367 07da 8091 0000 		lds r24,ADCH_
 1368               	.L104:
 1369 07de 8093 C600 		sts 198,r24
 1370               	.L38:
 1371               	.LM270:
 1372 07e2 1092 0000 		sts (ctr)+1,__zero_reg__
 1373 07e6 1092 0000 		sts ctr,__zero_reg__
 1374               	.LM271:
 1375 07ea 8091 0000 		lds r24,MD
 1376 07ee 2091 0000 		lds r18,event_cnt
 1377 07f2 3091 0000 		lds r19,(event_cnt)+1
 1378 07f6 8530      		cpi r24,lo8(5)
 1379 07f8 01F0      		breq .L94
 1380               	.LM272:
 1381 07fa 2F5F      		subi r18,lo8(-(1))
 1382 07fc 3F4F      		sbci r19,hi8(-(1))
 1383 07fe 3093 0000 		sts (event_cnt)+1,r19
 1384 0802 2093 0000 		sts event_cnt,r18
 1385               	.LM273:
 1386 0806 8091 0000 		lds r24,T
 1387 080a 90E0      		ldi r25,lo8(0)
 1388 080c 8217      		cp r24,r18
 1389 080e 9307      		cpc r25,r19
 1390 0810 04F4      		brge .L33
 1391               	.LM274:
 1392 0812 1092 0000 		sts (event_cnt)+1,__zero_reg__
 1393 0816 1092 0000 		sts event_cnt,__zero_reg__
 1394 081a 00C0      		rjmp .L33
 1395               	.L94:
 1396               	.LM275:
 1397 081c 2E31      		cpi r18,30
 1398 081e 3105      		cpc r19,__zero_reg__
 1399 0820 04F4      		brge .L33
 1400               	.LM276:
 1401 0822 2F5F      		subi r18,lo8(-(1))
 1402 0824 3F4F      		sbci r19,hi8(-(1))
 1403 0826 3093 0000 		sts (event_cnt)+1,r19
 1404 082a 2093 0000 		sts event_cnt,r18
 1405               	.L33:
 1406               	.LM277:
 1407 082e 8091 0000 		lds r24,ctr
 1408 0832 9091 0000 		lds r25,(ctr)+1
 1409 0836 0196      		adiw r24,1
 1410 0838 9093 0000 		sts (ctr)+1,r25
 1411 083c 8093 0000 		sts ctr,r24
 1412               	/* epilogue start */
 1413               	.LM278:
 1414 0840 FF91      		pop r31
 1415 0842 EF91      		pop r30
 1416 0844 BF91      		pop r27
 1417 0846 AF91      		pop r26
 1418 0848 9F91      		pop r25
 1419 084a 8F91      		pop r24
 1420 084c 7F91      		pop r23
 1421 084e 6F91      		pop r22
 1422 0850 5F91      		pop r21
 1423 0852 4F91      		pop r20
 1424 0854 3F91      		pop r19
 1425 0856 2F91      		pop r18
 1426 0858 0F90      		pop r0
 1427 085a 0FBE      		out __SREG__,r0
 1428 085c 0F90      		pop r0
 1429 085e 1F90      		pop __zero_reg__
 1430 0860 1895      		reti
 1431               	.LFE18:
 1433               	.global	__vector_18
 1435               	__vector_18:
 1436               	.LFB19:
 1437               	.LM279:
 1438 0862 1F92      		push __zero_reg__
 1439 0864 0F92      		push r0
 1440 0866 0FB6      		in r0,__SREG__
 1441 0868 0F92      		push r0
 1442 086a 1124      		clr __zero_reg__
 1443 086c 2F93      		push r18
 1444 086e 3F93      		push r19
 1445 0870 4F93      		push r20
 1446 0872 5F93      		push r21
 1447 0874 6F93      		push r22
 1448 0876 7F93      		push r23
 1449 0878 8F93      		push r24
 1450 087a 9F93      		push r25
 1451 087c AF93      		push r26
 1452 087e BF93      		push r27
 1453 0880 EF93      		push r30
 1454 0882 FF93      		push r31
 1455               	/* prologue: Signal */
 1456               	/* frame size = 0 */
 1457               	.LM280:
 1458 0884 8091 0000 		lds r24,ptr
 1459 0888 8430      		cpi r24,lo8(4)
 1460 088a 01F4      		brne .+2
 1461 088c 00C0      		rjmp .L122
 1462 088e 8530      		cpi r24,lo8(5)
 1463 0890 00F4      		brsh .L128
 1464 0892 8130      		cpi r24,lo8(1)
 1465 0894 01F0      		breq .L119
 1466 0896 8130      		cpi r24,lo8(1)
 1467 0898 00F0      		brlo .L118
 1468 089a 8230      		cpi r24,lo8(2)
 1469 089c 01F4      		brne .+2
 1470 089e 00C0      		rjmp .L120
 1471 08a0 8330      		cpi r24,lo8(3)
 1472 08a2 01F0      		breq .+2
 1473 08a4 00C0      		rjmp .L117
 1474 08a6 00C0      		rjmp .L135
 1475               	.L128:
 1476 08a8 8730      		cpi r24,lo8(7)
 1477 08aa 01F4      		brne .+2
 1478 08ac 00C0      		rjmp .L125
 1479 08ae 8830      		cpi r24,lo8(8)
 1480 08b0 00F4      		brsh .L129
 1481 08b2 8530      		cpi r24,lo8(5)
 1482 08b4 01F4      		brne .+2
 1483 08b6 00C0      		rjmp .L123
 1484 08b8 8630      		cpi r24,lo8(6)
 1485 08ba 01F0      		breq .+2
 1486 08bc 00C0      		rjmp .L117
 1487 08be 00C0      		rjmp .L136
 1488               	.L129:
 1489 08c0 8830      		cpi r24,lo8(8)
 1490 08c2 01F4      		brne .+2
 1491 08c4 00C0      		rjmp .L126
 1492 08c6 8930      		cpi r24,lo8(9)
 1493 08c8 01F0      		breq .+2
 1494 08ca 00C0      		rjmp .L117
 1495 08cc 00C0      		rjmp .L137
 1496               	.L118:
 1497               	.LM281:
 1498 08ce 8091 C600 		lds r24,198
 1499 08d2 8F3F      		cpi r24,lo8(-1)
 1500 08d4 01F0      		breq .L130
 1501               	.LM282:
 1502 08d6 1092 0000 		sts sync,__zero_reg__
 1503               	.LM283:
 1504 08da 83E0      		ldi r24,lo8(3)
 1505 08dc 8093 0000 		sts ptr,r24
 1506 08e0 00C0      		rjmp .L117
 1507               	.L130:
 1508               	.LM284:
 1509 08e2 81E0      		ldi r24,lo8(1)
 1510 08e4 8093 0000 		sts sync,r24
 1511 08e8 00C0      		rjmp .L117
 1512               	.L119:
 1513               	.LM285:
 1514 08ea 2091 C600 		lds r18,198
 1515 08ee 2093 0000 		sts MD,r18
 1516               	.LM286:
 1517 08f2 2130      		cpi r18,lo8(1)
 1518 08f4 01F4      		brne .L131
 1519               	.LM287:
 1520 08f6 84E0      		ldi r24,lo8(4)
 1521 08f8 90E0      		ldi r25,hi8(4)
 1522 08fa 9093 0000 		sts (time_step)+1,r25
 1523 08fe 8093 0000 		sts time_step,r24
 1524 0902 00C0      		rjmp .L117
 1525               	.L131:
 1526               	.LM288:
 1527 0904 86E0      		ldi r24,lo8(6)
 1528 0906 90E0      		ldi r25,hi8(6)
 1529 0908 9093 0000 		sts (time_step)+1,r25
 1530 090c 8093 0000 		sts time_step,r24
 1531               	.LM289:
 1532 0910 2230      		cpi r18,lo8(2)
 1533 0912 01F0      		breq .+2
 1534 0914 00C0      		rjmp .L117
 1535               	.LM290:
 1536 0916 1092 0000 		sts PROGRAM_done,__zero_reg__
 1537               	.LM291:
 1538 091a 1092 0000 		sts (prog_val)+1,__zero_reg__
 1539 091e 1092 0000 		sts prog_val,__zero_reg__
 1540 0922 00C0      		rjmp .L117
 1541               	.L120:
 1542               	.LM292:
 1543 0924 8091 C600 		lds r24,198
 1544 0928 90E0      		ldi r25,lo8(0)
 1545 092a 9093 0000 		sts (x16_simple)+1,r25
 1546 092e 8093 0000 		sts x16_simple,r24
 1547               	.LM293:
 1548 0932 44E0      		ldi r20,4
 1549 0934 880F      	1:	lsl r24
 1550 0936 991F      		rol r25
 1551 0938 4A95      		dec r20
 1552 093a 01F4      		brne 1b
 1553 093c 9093 0000 		sts (x16)+1,r25
 1554 0940 8093 0000 		sts x16,r24
 1555 0944 00C0      		rjmp .L117
 1556               	.L135:
 1557               	.LM294:
 1558 0946 8091 C600 		lds r24,198
 1559 094a 90E0      		ldi r25,lo8(0)
 1560 094c 34E0      		ldi r19,4
 1561 094e 880F      	1:	lsl r24
 1562 0950 991F      		rol r25
 1563 0952 3A95      		dec r19
 1564 0954 01F4      		brne 1b
 1565 0956 9093 0000 		sts (ref16)+1,r25
 1566 095a 8093 0000 		sts ref16,r24
 1567 095e 00C0      		rjmp .L117
 1568               	.L122:
 1569               	.LM295:
 1570 0960 8091 0000 		lds r24,MD
 1571 0964 8230      		cpi r24,lo8(2)
 1572 0966 01F4      		brne .L132
 1573               	.LM296:
 1574 0968 8091 C600 		lds r24,198
 1575 096c 8093 0000 		sts t1,r24
 1576 0970 00C0      		rjmp .L117
 1577               	.L132:
 1578               	.LM297:
 1579 0972 8091 C600 		lds r24,198
 1580 0976 90E0      		ldi r25,lo8(0)
 1581 0978 24E0      		ldi r18,4
 1582 097a 880F      	1:	lsl r24
 1583 097c 991F      		rol r25
 1584 097e 2A95      		dec r18
 1585 0980 01F4      		brne 1b
 1586 0982 9093 0000 		sts (unset16)+1,r25
 1587 0986 8093 0000 		sts unset16,r24
 1588 098a 00C0      		rjmp .L117
 1589               	.L123:
 1590               	.LM298:
 1591 098c 8091 C600 		lds r24,198
 1592 0990 8093 0000 		sts t2,r24
 1593 0994 00C0      		rjmp .L117
 1594               	.L136:
 1595               	.LM299:
 1596 0996 8091 C600 		lds r24,198
 1597 099a 8093 0000 		sts dT,r24
 1598 099e 00C0      		rjmp .L117
 1599               	.L125:
 1600               	.LM300:
 1601 09a0 8091 C600 		lds r24,198
 1602 09a4 8093 0000 		sts T,r24
 1603 09a8 00C0      		rjmp .L117
 1604               	.L126:
 1605               	.LM301:
 1606 09aa 8091 C600 		lds r24,198
 1607 09ae 8093 0000 		sts chan,r24
 1608 09b2 00C0      		rjmp .L117
 1609               	.L137:
 1610               	.LM302:
 1611 09b4 8091 C600 		lds r24,198
 1612 09b8 E091 0000 		lds r30,chan
 1613 09bc F0E0      		ldi r31,lo8(0)
 1614 09be E050      		subi r30,lo8(-(reverted))
 1615 09c0 F040      		sbci r31,hi8(-(reverted))
 1616 09c2 8083      		st Z,r24
 1617               	.LM303:
 1618 09c4 1092 0000 		sts (event_cnt)+1,__zero_reg__
 1619 09c8 1092 0000 		sts event_cnt,__zero_reg__
 1620               	.LM304:
 1621 09cc 8091 0000 		lds r24,MD
 1622 09d0 8330      		cpi r24,lo8(3)
 1623 09d2 01F4      		brne .L133
 1624               	.LM305:
 1625 09d4 0E94 0000 		call gatherMult
 1626 09d8 00C0      		rjmp .L117
 1627               	.L133:
 1628               	.LM306:
 1629 09da 8430      		cpi r24,lo8(4)
 1630 09dc 01F4      		brne .L117
 1631               	.LM307:
 1632 09de 0E94 0000 		call separMult
 1633               	.L117:
 1634               	.LM308:
 1635 09e2 8091 0000 		lds r24,t2
 1636 09e6 9091 0000 		lds r25,dT
 1637 09ea 890F      		add r24,r25
 1638 09ec 8093 0000 		sts dTt2,r24
 1639               	.LM309:
 1640 09f0 8091 0000 		lds r24,ptr
 1641 09f4 8F5F      		subi r24,lo8(-(1))
 1642 09f6 6AE0      		ldi r22,lo8(10)
 1643 09f8 0E94 0000 		call __udivmodqi4
 1644 09fc 9093 0000 		sts ptr,r25
 1645               	/* epilogue start */
 1646               	.LM310:
 1647 0a00 FF91      		pop r31
 1648 0a02 EF91      		pop r30
 1649 0a04 BF91      		pop r27
 1650 0a06 AF91      		pop r26
 1651 0a08 9F91      		pop r25
 1652 0a0a 8F91      		pop r24
 1653 0a0c 7F91      		pop r23
 1654 0a0e 6F91      		pop r22
 1655 0a10 5F91      		pop r21
 1656 0a12 4F91      		pop r20
 1657 0a14 3F91      		pop r19
 1658 0a16 2F91      		pop r18
 1659 0a18 0F90      		pop r0
 1660 0a1a 0FBE      		out __SREG__,r0
 1661 0a1c 0F90      		pop r0
 1662 0a1e 1F90      		pop __zero_reg__
 1663 0a20 1895      		reti
 1664               	.LFE19:
 1666               	.global	MD
 1667               	.global	MD
 1668               		.section .bss
 1671               	MD:
 1672 0000 00        		.skip 1,0
 1673               	.global	STAT_N
 1674               		.data
 1677               	STAT_N:
 1678 0000 0E        		.byte	14
 1679               	.global	STAT_CYCLE
 1682               	STAT_CYCLE:
 1683 0001 05        		.byte	5
 1684               	.global	chan_addrs
 1687               	chan_addrs:
 1688 0002 00        		.byte	0
 1689 0003 01        		.byte	1
 1690 0004 02        		.byte	2
 1691 0005 03        		.byte	3
 1692 0006 07        		.byte	7
 1693 0007 06        		.byte	6
 1694 0008 05        		.byte	5
 1695 0009 04        		.byte	4
 1696               	.global	VAC16
 1697               	.global	VAC16
 1698               		.section .bss
 1701               	VAC16:
 1702 0001 0000      		.skip 2,0
 1703               	.global	VAC16_H
 1704               	.global	VAC16_H
 1707               	VAC16_H:
 1708 0003 0000      		.skip 2,0
 1709               	.global	VAC16_HH
 1710               	.global	VAC16_HH
 1713               	VAC16_HH:
 1714 0005 0000      		.skip 2,0
 1715               	.global	prog_val
 1716               	.global	prog_val
 1719               	prog_val:
 1720 0007 0000      		.skip 2,0
 1721               	.global	x16
 1722               	.global	x16
 1725               	x16:
 1726 0009 0000      		.skip 2,0
 1727               	.global	ref16
 1728               	.global	ref16
 1731               	ref16:
 1732 000b 0000      		.skip 2,0
 1733               	.global	unset16
 1734               	.global	unset16
 1737               	unset16:
 1738 000d 0000      		.skip 2,0
 1739               	.global	sync
 1740               	.global	sync
 1743               	sync:
 1744 000f 00        		.skip 1,0
 1745               	.global	t1
 1746               		.data
 1749               	t1:
 1750 000a 02        		.byte	2
 1751               	.global	t2
 1754               	t2:
 1755 000b 02        		.byte	2
 1756               	.global	dTt2
 1759               	dTt2:
 1760 000c 0A        		.byte	10
 1761               	.global	pos_phase
 1764               	pos_phase:
 1765 000d 01        		.byte	1
 1766               	.global	STAT_dt_step
 1767               	.global	STAT_dt_step
 1768               		.section .bss
 1771               	STAT_dt_step:
 1772 0010 00        		.skip 1,0
 1773               	.global	STAT_V_step
 1774               	.global	STAT_V_step
 1777               	STAT_V_step:
 1778 0011 00        		.skip 1,0
 1779               	.global	ptr
 1780               	.global	ptr
 1783               	ptr:
 1784 0012 00        		.skip 1,0
 1785               	.global	PROGRAM_done
 1786               	.global	PROGRAM_done
 1789               	PROGRAM_done:
 1790 0013 00        		.skip 1,0
 1791               	.global	chan
 1792               	.global	chan
 1795               	chan:
 1796 0014 00        		.skip 1,0
 1797               	.global	an_cnt
 1798               	.global	an_cnt
 1801               	an_cnt:
 1802 0015 0000      		.skip 2,0
 1803               	.global	an_cnt_fast
 1804               	.global	an_cnt_fast
 1807               	an_cnt_fast:
 1808 0017 0000      		.skip 2,0
 1809               	.global	reverted
 1810               	.global	reverted
 1813               	reverted:
 1814 0019 0000 0000 		.skip 8,0
 1814      0000 0000 
 1815               	.global	time_step
 1816               		.data
 1819               	time_step:
 1820 000e 0600      		.word	6
 1821               	.global	eventN
 1824               	eventN:
 1825 0010 6400      		.word	100
 1826               		.lcomm adc_h.1512,2
 1827               		.lcomm i.1506,2
 1828               		.comm BIG_STAT_N,1,1
 1829               		.comm x16_grad,2,1
 1830               		.comm x16_simple,2,1
 1831               		.comm dT,1,1
 1832               		.comm T,1,1
 1833               		.comm send8,1,1
 1834               		.comm UDP_cnt,1,1
 1835               		.comm c,1,1
 1836               		.comm ADC_on,1,1
 1837               		.comm _adc,2,1
 1838               		.comm ctr,2,1
 1839               		.comm accum,2,1
 1840               		.comm event_cnt,2,1
 1841               		.comm ADC_cnt,2,1
 1842               		.comm ADCH_,1,1
 1843               		.comm ADCL_,1,1
 1844               		.comm ADCH__,1,1
 1845               		.comm ADCL__,1,1
 1846               		.comm accum_cnt,1,1
 1975               	.Letext0:
DEFINED SYMBOLS
                            *ABS*:00000000 main.c
C:\Users\DrPepper\AppData\Local\Temp/ccyL6b68.s:2      *ABS*:0000003f __SREG__
C:\Users\DrPepper\AppData\Local\Temp/ccyL6b68.s:3      *ABS*:0000003e __SP_H__
C:\Users\DrPepper\AppData\Local\Temp/ccyL6b68.s:4      *ABS*:0000003d __SP_L__
C:\Users\DrPepper\AppData\Local\Temp/ccyL6b68.s:5      *ABS*:00000034 __CCP__
C:\Users\DrPepper\AppData\Local\Temp/ccyL6b68.s:6      *ABS*:00000000 __tmp_reg__
C:\Users\DrPepper\AppData\Local\Temp/ccyL6b68.s:7      *ABS*:00000001 __zero_reg__
C:\Users\DrPepper\AppData\Local\Temp/ccyL6b68.s:18     .text:00000000 ADC_Init
C:\Users\DrPepper\AppData\Local\Temp/ccyL6b68.s:42     .text:00000016 timer_init
C:\Users\DrPepper\AppData\Local\Temp/ccyL6b68.s:67     .text:0000002e uart_init
C:\Users\DrPepper\AppData\Local\Temp/ccyL6b68.s:92     .text:00000044 SPI_MasterInit
C:\Users\DrPepper\AppData\Local\Temp/ccyL6b68.s:110    .text:0000004e gatherMult
C:\Users\DrPepper\AppData\Local\Temp/ccyL6b68.s:138    .text:00000060 separMult
C:\Users\DrPepper\AppData\Local\Temp/ccyL6b68.s:166    .text:00000072 SPI_WriteByte
C:\Users\DrPepper\AppData\Local\Temp/ccyL6b68.s:186    .text:0000007c prepareResetDAC
C:\Users\DrPepper\AppData\Local\Temp/ccyL6b68.s:1687   .data:00000002 chan_addrs
C:\Users\DrPepper\AppData\Local\Temp/ccyL6b68.s:221    .text:000000a0 prepareSetDAC
                            *COM*:00000001 send8
C:\Users\DrPepper\AppData\Local\Temp/ccyL6b68.s:279    .text:000000ea set_reverser
C:\Users\DrPepper\AppData\Local\Temp/ccyL6b68.s:292    .text:000000ec setDAC
C:\Users\DrPepper\AppData\Local\Temp/ccyL6b68.s:308    .text:000000f2 main
C:\Users\DrPepper\AppData\Local\Temp/ccyL6b68.s:1682   .data:00000001 STAT_CYCLE
C:\Users\DrPepper\AppData\Local\Temp/ccyL6b68.s:1677   .data:00000000 STAT_N
                            *COM*:00000001 BIG_STAT_N
C:\Users\DrPepper\AppData\Local\Temp/ccyL6b68.s:443    .text:000001a4 __vector_9
                            *COM*:00000002 ctr
C:\Users\DrPepper\AppData\Local\Temp/ccyL6b68.s:1819   .data:0000000e time_step
C:\Users\DrPepper\AppData\Local\Temp/ccyL6b68.s:1671   .bss:00000000 MD
                            *COM*:00000002 event_cnt
                            *COM*:00000001 ADCL_
                            *COM*:00000001 ADCH_
C:\Users\DrPepper\AppData\Local\Temp/ccyL6b68.s:1749   .data:0000000a t1
                            *COM*:00000001 dT
C:\Users\DrPepper\AppData\Local\Temp/ccyL6b68.s:1759   .data:0000000c dTt2
                            *COM*:00000002 _adc
                            *COM*:00000002 accum
                            *COM*:00000001 ADC_on
                            *COM*:00000001 accum_cnt
C:\Users\DrPepper\AppData\Local\Temp/ccyL6b68.s:1826   .bss:00000023 i.1506
                            *COM*:00000001 UDP_cnt
                            *COM*:00000001 ADCL__
                            *COM*:00000001 ADCH__
C:\Users\DrPepper\AppData\Local\Temp/ccyL6b68.s:1701   .bss:00000001 VAC16
C:\Users\DrPepper\AppData\Local\Temp/ccyL6b68.s:1707   .bss:00000003 VAC16_H
C:\Users\DrPepper\AppData\Local\Temp/ccyL6b68.s:1764   .data:0000000d pos_phase
C:\Users\DrPepper\AppData\Local\Temp/ccyL6b68.s:1731   .bss:0000000b ref16
C:\Users\DrPepper\AppData\Local\Temp/ccyL6b68.s:1725   .bss:00000009 x16
C:\Users\DrPepper\AppData\Local\Temp/ccyL6b68.s:1795   .bss:00000014 chan
                            *COM*:00000001 T
C:\Users\DrPepper\AppData\Local\Temp/ccyL6b68.s:1789   .bss:00000013 PROGRAM_done
                             .bss:00000021 adc_h.1512
C:\Users\DrPepper\AppData\Local\Temp/ccyL6b68.s:1719   .bss:00000007 prog_val
C:\Users\DrPepper\AppData\Local\Temp/ccyL6b68.s:1754   .data:0000000b t2
C:\Users\DrPepper\AppData\Local\Temp/ccyL6b68.s:1737   .bss:0000000d unset16
C:\Users\DrPepper\AppData\Local\Temp/ccyL6b68.s:1801   .bss:00000015 an_cnt
C:\Users\DrPepper\AppData\Local\Temp/ccyL6b68.s:1777   .bss:00000011 STAT_V_step
                            *COM*:00000002 x16_grad
C:\Users\DrPepper\AppData\Local\Temp/ccyL6b68.s:1807   .bss:00000017 an_cnt_fast
C:\Users\DrPepper\AppData\Local\Temp/ccyL6b68.s:1771   .bss:00000010 STAT_dt_step
C:\Users\DrPepper\AppData\Local\Temp/ccyL6b68.s:1435   .text:00000862 __vector_18
C:\Users\DrPepper\AppData\Local\Temp/ccyL6b68.s:1783   .bss:00000012 ptr
C:\Users\DrPepper\AppData\Local\Temp/ccyL6b68.s:1743   .bss:0000000f sync
                            *COM*:00000002 x16_simple
C:\Users\DrPepper\AppData\Local\Temp/ccyL6b68.s:1813   .bss:00000019 reverted
C:\Users\DrPepper\AppData\Local\Temp/ccyL6b68.s:1713   .bss:00000005 VAC16_HH
C:\Users\DrPepper\AppData\Local\Temp/ccyL6b68.s:1824   .data:00000010 eventN
                            *COM*:00000001 c
                            *COM*:00000002 ADC_cnt

UNDEFINED SYMBOLS
__udivmodhi4
__udivmodqi4
__do_copy_data
__do_clear_bss
