   1               		.file	"main.c"
   2               	__SREG__ = 0x3f
   3               	__SP_H__ = 0x3e
   4               	__SP_L__ = 0x3d
   5               	__CCP__  = 0x34
   6               	__tmp_reg__ = 0
   7               	__zero_reg__ = 1
  15               	.Ltext0:
  16               	.global	set_pin
  18               	set_pin:
  19               	.LFB6:
  20               	.LM1:
  21 0000 DF93      		push r29
  22 0002 CF93      		push r28
  23 0004 00D0      		rcall .
  24 0006 0F92      		push __tmp_reg__
  25 0008 CDB7      		in r28,__SP_L__
  26 000a DEB7      		in r29,__SP_H__
  27               	/* prologue: function */
  28               	/* frame size = 3 */
  29 000c 6983      		std Y+1,r22
  30 000e 7A83      		std Y+2,r23
  31 0010 8B83      		std Y+3,r24
  32               	.LM2:
  33 0012 E981      		ldd r30,Y+1
  34 0014 FA81      		ldd r31,Y+2
  35               	.LM3:
  36 0016 21E0      		ldi r18,lo8(1)
  37 0018 30E0      		ldi r19,hi8(1)
  38 001a 00C0      		rjmp 2f
  39 001c 220F      	1:	lsl r18
  40 001e 331F      		rol r19
  41 0020 8A95      	2:	dec r24
  42 0022 02F4      		brpl 1b
  43 0024 8081      		ld r24,Z
  44 0026 822B      		or r24,r18
  45 0028 8083      		st Z,r24
  46               	/* epilogue start */
  47               	.LM4:
  48 002a 0F90      		pop __tmp_reg__
  49 002c 0F90      		pop __tmp_reg__
  50 002e 0F90      		pop __tmp_reg__
  51 0030 CF91      		pop r28
  52 0032 DF91      		pop r29
  53 0034 0895      		ret
  54               	.LFE6:
  56               	.global	reset_pin
  58               	reset_pin:
  59               	.LFB7:
  60               	.LM5:
  61 0036 DF93      		push r29
  62 0038 CF93      		push r28
  63 003a 00D0      		rcall .
  64 003c 0F92      		push __tmp_reg__
  65 003e CDB7      		in r28,__SP_L__
  66 0040 DEB7      		in r29,__SP_H__
  67               	/* prologue: function */
  68               	/* frame size = 3 */
  69 0042 6983      		std Y+1,r22
  70 0044 7A83      		std Y+2,r23
  71 0046 8B83      		std Y+3,r24
  72               	.LM6:
  73 0048 E981      		ldd r30,Y+1
  74 004a FA81      		ldd r31,Y+2
  75               	.LM7:
  76 004c 21E0      		ldi r18,lo8(1)
  77 004e 30E0      		ldi r19,hi8(1)
  78 0050 00C0      		rjmp 2f
  79 0052 220F      	1:	lsl r18
  80 0054 331F      		rol r19
  81 0056 8A95      	2:	dec r24
  82 0058 02F4      		brpl 1b
  83 005a 2095      		com r18
  84 005c 8081      		ld r24,Z
  85 005e 8223      		and r24,r18
  86 0060 8083      		st Z,r24
  87               	/* epilogue start */
  88               	.LM8:
  89 0062 0F90      		pop __tmp_reg__
  90 0064 0F90      		pop __tmp_reg__
  91 0066 0F90      		pop __tmp_reg__
  92 0068 CF91      		pop r28
  93 006a DF91      		pop r29
  94 006c 0895      		ret
  95               	.LFE7:
  97               	.global	gatherMult
  99               	gatherMult:
 100               	.LFB8:
 101               	.LM9:
 102               	/* prologue: function */
 103               	/* frame size = 0 */
 104               	.LM10:
 105 006e E091 0000 		lds r30,sep2_pin
 106 0072 F091 0000 		lds r31,(sep2_pin)+1
 107               	.LBB97:
 108               	.LBB98:
 109               	.LM11:
 110 0076 41E0      		ldi r20,lo8(1)
 111 0078 50E0      		ldi r21,hi8(1)
 112 007a CA01      		movw r24,r20
 113 007c 0090 0000 		lds r0,sep2_pin+2
 114 0080 00C0      		rjmp 2f
 115 0082 880F      	1:	lsl r24
 116 0084 991F      		rol r25
 117 0086 0A94      	2:	dec r0
 118 0088 02F4      		brpl 1b
 119 008a 8095      		com r24
 120 008c 2081      		ld r18,Z
 121 008e 2823      		and r18,r24
 122 0090 2083      		st Z,r18
 123               	.LM12:
 124 0092 E091 0000 		lds r30,sep3_pin
 125 0096 F091 0000 		lds r31,(sep3_pin)+1
 126               	.LBE98:
 127               	.LBE97:
 128               	.LBB99:
 129               	.LBB100:
 130               	.LM13:
 131 009a CA01      		movw r24,r20
 132 009c 0090 0000 		lds r0,sep3_pin+2
 133 00a0 00C0      		rjmp 2f
 134 00a2 880F      	1:	lsl r24
 135 00a4 991F      		rol r25
 136 00a6 0A94      	2:	dec r0
 137 00a8 02F4      		brpl 1b
 138 00aa 8095      		com r24
 139 00ac 2081      		ld r18,Z
 140 00ae 2823      		and r18,r24
 141 00b0 2083      		st Z,r18
 142               	.LM14:
 143 00b2 E091 0000 		lds r30,sep1_pin
 144 00b6 F091 0000 		lds r31,(sep1_pin)+1
 145               	.LBE100:
 146               	.LBE99:
 147               	.LBB101:
 148               	.LBB102:
 149               	.LM15:
 150 00ba CA01      		movw r24,r20
 151 00bc 0090 0000 		lds r0,sep1_pin+2
 152 00c0 00C0      		rjmp 2f
 153 00c2 880F      	1:	lsl r24
 154 00c4 991F      		rol r25
 155 00c6 0A94      	2:	dec r0
 156 00c8 02F4      		brpl 1b
 157 00ca 8095      		com r24
 158 00cc 2081      		ld r18,Z
 159 00ce 2823      		and r18,r24
 160 00d0 2083      		st Z,r18
 161               	.LBE102:
 162               	.LBE101:
 163               	.LM16:
 164 00d2 4198      		cbi 40-32,1
 165               	.LM17:
 166 00d4 2A98      		cbi 37-32,2
 167               	.LM18:
 168 00d6 2998      		cbi 37-32,1
 169               	.LM19:
 170 00d8 E091 0000 		lds r30,sep4_pin
 171 00dc F091 0000 		lds r31,(sep4_pin)+1
 172               	.LBB103:
 173               	.LBB104:
 174               	.LM20:
 175 00e0 CA01      		movw r24,r20
 176 00e2 0090 0000 		lds r0,sep4_pin+2
 177 00e6 00C0      		rjmp 2f
 178 00e8 880F      	1:	lsl r24
 179 00ea 991F      		rol r25
 180 00ec 0A94      	2:	dec r0
 181 00ee 02F4      		brpl 1b
 182 00f0 8095      		com r24
 183 00f2 2081      		ld r18,Z
 184 00f4 2823      		and r18,r24
 185 00f6 2083      		st Z,r18
 186               	.LM21:
 187 00f8 E091 0000 		lds r30,resister_pin
 188 00fc F091 0000 		lds r31,(resister_pin)+1
 189               	.LBE104:
 190               	.LBE103:
 191               	.LBB105:
 192               	.LBB106:
 193               	.LM22:
 194 0100 0090 0000 		lds r0,resister_pin+2
 195 0104 00C0      		rjmp 2f
 196 0106 440F      	1:	lsl r20
 197 0108 551F      		rol r21
 198 010a 0A94      	2:	dec r0
 199 010c 02F4      		brpl 1b
 200 010e 8081      		ld r24,Z
 201 0110 842B      		or r24,r20
 202 0112 8083      		st Z,r24
 203               	/* epilogue start */
 204               	.LBE106:
 205               	.LBE105:
 206               	.LM23:
 207 0114 0895      		ret
 208               	.LFE8:
 210               	.global	usualMult
 212               	usualMult:
 213               	.LFB9:
 214               	.LM24:
 215               	/* prologue: function */
 216               	/* frame size = 0 */
 217               	.LM25:
 218 0116 2998      		cbi 37-32,1
 219               	.LM26:
 220 0118 2A98      		cbi 37-32,2
 221               	.LM27:
 222 011a 4198      		cbi 40-32,1
 223               	.LM28:
 224 011c E091 0000 		lds r30,resister_pin
 225 0120 F091 0000 		lds r31,(resister_pin)+1
 226               	.LBB107:
 227               	.LBB108:
 228               	.LM29:
 229 0124 21E0      		ldi r18,lo8(1)
 230 0126 30E0      		ldi r19,hi8(1)
 231 0128 A901      		movw r20,r18
 232 012a 0090 0000 		lds r0,resister_pin+2
 233 012e 00C0      		rjmp 2f
 234 0130 440F      	1:	lsl r20
 235 0132 551F      		rol r21
 236 0134 0A94      	2:	dec r0
 237 0136 02F4      		brpl 1b
 238 0138 8081      		ld r24,Z
 239 013a 842B      		or r24,r20
 240 013c 8083      		st Z,r24
 241               	.LM30:
 242 013e E091 0000 		lds r30,sep2_pin
 243 0142 F091 0000 		lds r31,(sep2_pin)+1
 244               	.LBE108:
 245               	.LBE107:
 246               	.LBB109:
 247               	.LBB110:
 248               	.LM31:
 249 0146 A901      		movw r20,r18
 250 0148 0090 0000 		lds r0,sep2_pin+2
 251 014c 00C0      		rjmp 2f
 252 014e 440F      	1:	lsl r20
 253 0150 551F      		rol r21
 254 0152 0A94      	2:	dec r0
 255 0154 02F4      		brpl 1b
 256 0156 8081      		ld r24,Z
 257 0158 842B      		or r24,r20
 258 015a 8083      		st Z,r24
 259               	.LM32:
 260 015c E091 0000 		lds r30,sep3_pin
 261 0160 F091 0000 		lds r31,(sep3_pin)+1
 262               	.LBE110:
 263               	.LBE109:
 264               	.LBB111:
 265               	.LBB112:
 266               	.LM33:
 267 0164 A901      		movw r20,r18
 268 0166 0090 0000 		lds r0,sep3_pin+2
 269 016a 00C0      		rjmp 2f
 270 016c 440F      	1:	lsl r20
 271 016e 551F      		rol r21
 272 0170 0A94      	2:	dec r0
 273 0172 02F4      		brpl 1b
 274 0174 8081      		ld r24,Z
 275 0176 842B      		or r24,r20
 276 0178 8083      		st Z,r24
 277               	.LM34:
 278 017a E091 0000 		lds r30,sep4_pin
 279 017e F091 0000 		lds r31,(sep4_pin)+1
 280               	.LBE112:
 281               	.LBE111:
 282               	.LBB113:
 283               	.LBB114:
 284               	.LM35:
 285 0182 A901      		movw r20,r18
 286 0184 0090 0000 		lds r0,sep4_pin+2
 287 0188 00C0      		rjmp 2f
 288 018a 440F      	1:	lsl r20
 289 018c 551F      		rol r21
 290 018e 0A94      	2:	dec r0
 291 0190 02F4      		brpl 1b
 292 0192 8081      		ld r24,Z
 293 0194 842B      		or r24,r20
 294 0196 8083      		st Z,r24
 295               	.LM36:
 296 0198 E091 0000 		lds r30,sep1_pin
 297 019c F091 0000 		lds r31,(sep1_pin)+1
 298               	.LBE114:
 299               	.LBE113:
 300               	.LBB115:
 301               	.LBB116:
 302               	.LM37:
 303 01a0 0090 0000 		lds r0,sep1_pin+2
 304 01a4 00C0      		rjmp 2f
 305 01a6 220F      	1:	lsl r18
 306 01a8 331F      		rol r19
 307 01aa 0A94      	2:	dec r0
 308 01ac 02F4      		brpl 1b
 309 01ae 8081      		ld r24,Z
 310 01b0 822B      		or r24,r18
 311 01b2 8083      		st Z,r24
 312               	/* epilogue start */
 313               	.LBE116:
 314               	.LBE115:
 315               	.LM38:
 316 01b4 0895      		ret
 317               	.LFE9:
 319               	.global	set_reverser
 321               	set_reverser:
 322               	.LFB10:
 323               	.LM39:
 324               	.LVL0:
 325               	/* prologue: function */
 326               	/* frame size = 0 */
 327               	/* epilogue start */
 328               	.LM40:
 329 01b6 0895      		ret
 330               	.LFE10:
 332               	.global	ADC_Init
 334               	ADC_Init:
 335               	.LFB12:
 336               	.LM41:
 337               	/* prologue: function */
 338               	/* frame size = 0 */
 339               	.LM42:
 340 01b8 EAE7      		ldi r30,lo8(122)
 341 01ba F0E0      		ldi r31,hi8(122)
 342 01bc 8081      		ld r24,Z
 343 01be 8368      		ori r24,lo8(-125)
 344 01c0 8083      		st Z,r24
 345               	.LM43:
 346 01c2 ECE7      		ldi r30,lo8(124)
 347 01c4 F0E0      		ldi r31,hi8(124)
 348 01c6 8081      		ld r24,Z
 349 01c8 8064      		ori r24,lo8(64)
 350 01ca 8083      		st Z,r24
 351               	/* epilogue start */
 352               	.LM44:
 353 01cc 0895      		ret
 354               	.LFE12:
 356               	.global	timer_init
 358               	timer_init:
 359               	.LFB13:
 360               	.LM45:
 361               	/* prologue: function */
 362               	/* frame size = 0 */
 363               	.LM46:
 364 01ce 1092 B000 		sts 176,__zero_reg__
 365               	.LM47:
 366 01d2 E1EB      		ldi r30,lo8(177)
 367 01d4 F0E0      		ldi r31,hi8(177)
 368 01d6 1082      		st Z,__zero_reg__
 369               	.LM48:
 370 01d8 8081      		ld r24,Z
 371 01da 8260      		ori r24,lo8(2)
 372 01dc 8083      		st Z,r24
 373               	.LM49:
 374 01de 81E0      		ldi r24,lo8(1)
 375 01e0 8093 7000 		sts 112,r24
 376               	/* epilogue start */
 377               	.LM50:
 378 01e4 0895      		ret
 379               	.LFE13:
 381               	.global	uart_init
 383               	uart_init:
 384               	.LFB14:
 385               	.LM51:
 386               	.LVL1:
 387               	/* prologue: function */
 388               	/* frame size = 0 */
 389               	.LM52:
 390 01e6 9093 C500 		sts 197,r25
 391               	.LVL2:
 392               	.LM53:
 393 01ea 8093 C400 		sts 196,r24
 394               	.LM54:
 395 01ee 88E9      		ldi r24,lo8(-104)
 396               	.LVL3:
 397 01f0 8093 C100 		sts 193,r24
 398               	.LM55:
 399 01f4 8EE0      		ldi r24,lo8(14)
 400 01f6 8093 C200 		sts 194,r24
 401               	/* epilogue start */
 402               	.LM56:
 403 01fa 0895      		ret
 404               	.LFE14:
 406               	.global	SPI_MasterInit
 408               	SPI_MasterInit:
 409               	.LFB15:
 410               	.LM57:
 411               	/* prologue: function */
 412               	/* frame size = 0 */
 413               	.LM58:
 414 01fc 84B1      		in r24,36-32
 415 01fe 8C62      		ori r24,lo8(44)
 416 0200 84B9      		out 36-32,r24
 417               	.LM59:
 418 0202 88E5      		ldi r24,lo8(88)
 419 0204 8CBD      		out 76-32,r24
 420               	/* epilogue start */
 421               	.LM60:
 422 0206 0895      		ret
 423               	.LFE15:
 425               	.global	SPI_WriteByte
 427               	SPI_WriteByte:
 428               	.LFB17:
 429               	.LM61:
 430               	.LVL4:
 431               	/* prologue: function */
 432               	/* frame size = 0 */
 433               	.LM62:
 434 0208 8EBD      		out 78-32,r24
 435               	.L20:
 436               	.LM63:
 437 020a 0DB4      		in __tmp_reg__,77-32
 438 020c 07FE      		sbrs __tmp_reg__,7
 439 020e 00C0      		rjmp .L20
 440               	/* epilogue start */
 441               	.LM64:
 442 0210 0895      		ret
 443               	.LFE17:
 445               	.global	prepareResetDAC
 447               	prepareResetDAC:
 448               	.LFB16:
 449               	.LM65:
 450               	.LVL5:
 451 0212 EF92      		push r14
 452 0214 FF92      		push r15
 453 0216 0F93      		push r16
 454 0218 1F93      		push r17
 455               	/* prologue: function */
 456               	/* frame size = 0 */
 457               	.LM66:
 458 021a 282F      		mov r18,r24
 459 021c 2595      		asr r18
 460 021e 2595      		asr r18
 461 0220 2595      		asr r18
 462 0222 3327      		clr r19
 463 0224 27FD      		sbrc r18,7
 464 0226 3095      		com r19
 465 0228 8901      		movw r16,r18
 466 022a 000F      		lsl r16
 467 022c 111F      		rol r17
 468 022e 020F      		add r16,r18
 469 0230 131F      		adc r17,r19
 470 0232 0050      		subi r16,lo8(-(SYNC_PINS))
 471 0234 1040      		sbci r17,hi8(-(SYNC_PINS))
 472 0236 D801      		movw r26,r16
 473 0238 ED91      		ld r30,X+
 474 023a FC91      		ld r31,X
 475 023c 1197      		sbiw r26,1
 476               	.LBB117:
 477               	.LBB118:
 478               	.LM67:
 479 023e 91E0      		ldi r25,lo8(1)
 480 0240 E92E      		mov r14,r25
 481 0242 F12C      		mov r15,__zero_reg__
 482 0244 9701      		movw r18,r14
 483 0246 1296      		adiw r26,2
 484 0248 0C90      		ld r0,X
 485 024a 00C0      		rjmp 2f
 486 024c 220F      	1:	lsl r18
 487 024e 331F      		rol r19
 488 0250 0A94      	2:	dec r0
 489 0252 02F4      		brpl 1b
 490 0254 2095      		com r18
 491 0256 9081      		ld r25,Z
 492 0258 9223      		and r25,r18
 493 025a 9083      		st Z,r25
 494               	.LBE118:
 495               	.LBE117:
 496               	.LM68:
 497 025c 68E0      		ldi r22,lo8(8)
 498 025e 0E94 0000 		call __divmodqi4
 499               	.LVL6:
 500 0262 E92F      		mov r30,r25
 501 0264 FF27      		clr r31
 502 0266 E7FD      		sbrc r30,7
 503 0268 F095      		com r31
 504 026a E050      		subi r30,lo8(-(chan_addrs))
 505 026c F040      		sbci r31,hi8(-(chan_addrs))
 506 026e 8081      		ld r24,Z
 507 0270 8860      		ori r24,lo8(8)
 508 0272 90E0      		ldi r25,lo8(0)
 509 0274 0E94 0000 		call SPI_WriteByte
 510               	.LM69:
 511 0278 80E0      		ldi r24,lo8(0)
 512 027a 90E0      		ldi r25,hi8(0)
 513 027c 0E94 0000 		call SPI_WriteByte
 514               	.LM70:
 515 0280 D801      		movw r26,r16
 516 0282 ED91      		ld r30,X+
 517 0284 FC91      		ld r31,X
 518 0286 1197      		sbiw r26,1
 519               	.LBB119:
 520               	.LBB120:
 521               	.LM71:
 522 0288 1296      		adiw r26,2
 523 028a 0C90      		ld r0,X
 524 028c 00C0      		rjmp 2f
 525 028e EE0C      	1:	lsl r14
 526 0290 FF1C      		rol r15
 527 0292 0A94      	2:	dec r0
 528 0294 02F4      		brpl 1b
 529 0296 8081      		ld r24,Z
 530 0298 8E29      		or r24,r14
 531 029a 8083      		st Z,r24
 532               	/* epilogue start */
 533               	.LBE120:
 534               	.LBE119:
 535               	.LM72:
 536 029c 1F91      		pop r17
 537 029e 0F91      		pop r16
 538 02a0 FF90      		pop r15
 539 02a2 EF90      		pop r14
 540 02a4 0895      		ret
 541               	.LFE16:
 543               	.global	prepareSetDAC
 545               	prepareSetDAC:
 546               	.LFB11:
 547               	.LM73:
 548               	.LVL7:
 549 02a6 CF92      		push r12
 550 02a8 DF92      		push r13
 551 02aa EF92      		push r14
 552 02ac FF92      		push r15
 553 02ae 0F93      		push r16
 554 02b0 1F93      		push r17
 555 02b2 CF93      		push r28
 556 02b4 DF93      		push r29
 557               	/* prologue: function */
 558               	/* frame size = 0 */
 559 02b6 E62F      		mov r30,r22
 560               	.LM74:
 561 02b8 EE24      		clr r14
 562 02ba FF24      		clr r15
 563 02bc E81A      		sub r14,r24
 564 02be F90A      		sbc r15,r25
 565               	.LVL8:
 566               	.LM75:
 567 02c0 80E0      		ldi r24,lo8(2048)
 568 02c2 98E0      		ldi r25,hi8(2048)
 569 02c4 E80E      		add r14,r24
 570 02c6 F91E      		adc r15,r25
 571               	.LM76:
 572 02c8 862F      		mov r24,r22
 573 02ca 8695      		lsr r24
 574 02cc 8695      		lsr r24
 575 02ce 8695      		lsr r24
 576 02d0 90E0      		ldi r25,lo8(0)
 577 02d2 8C01      		movw r16,r24
 578 02d4 000F      		lsl r16
 579 02d6 111F      		rol r17
 580 02d8 080F      		add r16,r24
 581 02da 191F      		adc r17,r25
 582 02dc 0050      		subi r16,lo8(-(SYNC_PINS))
 583 02de 1040      		sbci r17,hi8(-(SYNC_PINS))
 584 02e0 E801      		movw r28,r16
 585 02e2 A881      		ld r26,Y
 586 02e4 B981      		ldd r27,Y+1
 587               	.LBB121:
 588               	.LBB122:
 589               	.LM77:
 590 02e6 61E0      		ldi r22,lo8(1)
 591 02e8 C62E      		mov r12,r22
 592 02ea D12C      		mov r13,__zero_reg__
 593               	.LVL9:
 594 02ec C601      		movw r24,r12
 595 02ee 0A80      		ldd r0,Y+2
 596 02f0 00C0      		rjmp 2f
 597 02f2 880F      	1:	lsl r24
 598 02f4 991F      		rol r25
 599 02f6 0A94      	2:	dec r0
 600 02f8 02F4      		brpl 1b
 601 02fa 8095      		com r24
 602 02fc 2C91      		ld r18,X
 603 02fe 2823      		and r18,r24
 604 0300 2C93      		st X,r18
 605               	.LBE122:
 606               	.LBE121:
 607               	.LM78:
 608 0302 8F2D      		mov r24,r15
 609 0304 9927      		clr r25
 610 0306 87FD      		sbrc r24,7
 611 0308 9A95      		dec r25
 612 030a 8F70      		andi r24,lo8(15)
 613 030c F0E0      		ldi r31,lo8(0)
 614               	.LVL10:
 615 030e E770      		andi r30,lo8(7)
 616 0310 F070      		andi r31,hi8(7)
 617               	.LVL11:
 618 0312 E050      		subi r30,lo8(-(chan_addrs))
 619 0314 F040      		sbci r31,hi8(-(chan_addrs))
 620               	.LVL12:
 621 0316 2081      		ld r18,Z
 622 0318 822B      		or r24,r18
 623 031a 90E0      		ldi r25,lo8(0)
 624 031c 0E94 0000 		call SPI_WriteByte
 625               	.LVL13:
 626               	.LM79:
 627 0320 E092 0000 		sts send8.1410,r14
 628               	.LM80:
 629 0324 8E2D      		mov r24,r14
 630 0326 90E0      		ldi r25,lo8(0)
 631 0328 0E94 0000 		call SPI_WriteByte
 632               	.LM81:
 633 032c E881      		ld r30,Y
 634 032e F981      		ldd r31,Y+1
 635               	.LBB123:
 636               	.LBB124:
 637               	.LM82:
 638 0330 0A80      		ldd r0,Y+2
 639 0332 00C0      		rjmp 2f
 640 0334 CC0C      	1:	lsl r12
 641 0336 DD1C      		rol r13
 642 0338 0A94      	2:	dec r0
 643 033a 02F4      		brpl 1b
 644 033c 8081      		ld r24,Z
 645 033e 8C29      		or r24,r12
 646 0340 8083      		st Z,r24
 647               	/* epilogue start */
 648               	.LBE124:
 649               	.LBE123:
 650               	.LM83:
 651 0342 DF91      		pop r29
 652 0344 CF91      		pop r28
 653 0346 1F91      		pop r17
 654 0348 0F91      		pop r16
 655 034a FF90      		pop r15
 656 034c EF90      		pop r14
 657               	.LVL14:
 658 034e DF90      		pop r13
 659 0350 CF90      		pop r12
 660 0352 0895      		ret
 661               	.LFE11:
 663               	.global	setDAC
 665               	setDAC:
 666               	.LFB18:
 667               	.LM84:
 668               	/* prologue: function */
 669               	/* frame size = 0 */
 670               	.LM85:
 671 0354 5A98      		cbi 43-32,2
 672               	.LM86:
 673 0356 5A9A      		sbi 43-32,2
 674               	/* epilogue start */
 675               	.LM87:
 676 0358 0895      		ret
 677               	.LFE18:
 679               	.global	main
 681               	main:
 682               	.LFB19:
 683               	.LM88:
 684 035a 1F93      		push r17
 685               	/* prologue: function */
 686               	/* frame size = 0 */
 687               	.LM89:
 688 035c 8091 0000 		lds r24,STAT_CYCLE
 689 0360 9091 0000 		lds r25,STAT_N
 690 0364 899F      		mul r24,r25
 691 0366 802D      		mov r24,r0
 692 0368 1124      		clr r1
 693 036a 8093 0000 		sts BIG_STAT_N,r24
 694 036e E0E0      		ldi r30,lo8(chan_addrs)
 695 0370 F0E0      		ldi r31,hi8(chan_addrs)
 696 0372 90E0      		ldi r25,lo8(0)
 697               	.LVL15:
 698               	.L30:
 699               	.LBB125:
 700               	.LM90:
 701 0374 892F      		mov r24,r25
 702 0376 8295      		swap r24
 703 0378 807F      		andi r24,lo8(-16)
 704 037a 8193      		st Z+,r24
 705               	.LM91:
 706 037c 9F5F      		subi r25,lo8(-(1))
 707 037e 9830      		cpi r25,lo8(8)
 708 0380 01F4      		brne .L30
 709               	.LBE125:
 710               	.LM92:
 711 0382 8EE1      		ldi r24,lo8(30)
 712 0384 87B9      		out 39-32,r24
 713               	.LM93:
 714 0386 8FEF      		ldi r24,lo8(-1)
 715 0388 8AB9      		out 42-32,r24
 716               	.LM94:
 717 038a 8FE1      		ldi r24,lo8(31)
 718 038c 84B9      		out 36-32,r24
 719               	.LM95:
 720               	/* #APP */
 721               	 ;  178 "main.c" 1
 722 038e 7894      		sei
 723               	 ;  0 "" 2
 724               	/* #NOAPP */
 725               	.LBB126:
 726               	.LBB127:
 727               	.LM96:
 728 0390 84B1      		in r24,36-32
 729 0392 8C62      		ori r24,lo8(44)
 730 0394 84B9      		out 36-32,r24
 731               	.LM97:
 732 0396 88E5      		ldi r24,lo8(88)
 733 0398 8CBD      		out 76-32,r24
 734               	.LBE127:
 735               	.LBE126:
 736               	.LBB128:
 737               	.LBB129:
 738               	.LM98:
 739 039a 1092 B000 		sts 176,__zero_reg__
 740               	.LM99:
 741 039e 1092 B100 		sts 177,__zero_reg__
 742               	.LM100:
 743 03a2 8091 B100 		lds r24,177
 744 03a6 8260      		ori r24,lo8(2)
 745 03a8 8093 B100 		sts 177,r24
 746               	.LM101:
 747 03ac 81E0      		ldi r24,lo8(1)
 748 03ae 8093 7000 		sts 112,r24
 749               	.LBE129:
 750               	.LBE128:
 751               	.LBB130:
 752               	.LBB131:
 753               	.LM102:
 754 03b2 1092 C500 		sts 197,__zero_reg__
 755               	.LM103:
 756 03b6 83E3      		ldi r24,lo8(51)
 757 03b8 8093 C400 		sts 196,r24
 758               	.LM104:
 759 03bc 88E9      		ldi r24,lo8(-104)
 760 03be 8093 C100 		sts 193,r24
 761               	.LM105:
 762 03c2 8EE0      		ldi r24,lo8(14)
 763 03c4 8093 C200 		sts 194,r24
 764               	.LBE131:
 765               	.LBE130:
 766               	.LBB132:
 767               	.LBB133:
 768               	.LM106:
 769 03c8 8091 7A00 		lds r24,122
 770 03cc 8368      		ori r24,lo8(-125)
 771 03ce 8093 7A00 		sts 122,r24
 772               	.LM107:
 773 03d2 8091 7C00 		lds r24,124
 774 03d6 8064      		ori r24,lo8(64)
 775 03d8 8093 7C00 		sts 124,r24
 776               	.LBE133:
 777               	.LBE132:
 778               	.LM108:
 779 03dc 8091 7A00 		lds r24,122
 780 03e0 8064      		ori r24,lo8(64)
 781 03e2 8093 7A00 		sts 122,r24
 782               	.LM109:
 783 03e6 8091 7800 		lds r24,120
 784               	.LM110:
 785 03ea 8091 7800 		lds r24,120
 786 03ee 10E0      		ldi r17,lo8(0)
 787               	.L31:
 788               	.LBB134:
 789               	.LM111:
 790 03f0 80E0      		ldi r24,lo8(0)
 791 03f2 90E0      		ldi r25,hi8(0)
 792 03f4 612F      		mov r22,r17
 793 03f6 0E94 0000 		call prepareSetDAC
 794               	.LVL16:
 795 03fa 1F5F      		subi r17,lo8(-(1))
 796               	.LM112:
 797 03fc 1034      		cpi r17,lo8(64)
 798 03fe 01F4      		brne .L31
 799               	.LBE134:
 800               	.LBB135:
 801               	.LBB136:
 802               	.LM113:
 803 0400 5A98      		cbi 43-32,2
 804               	.LM114:
 805 0402 5A9A      		sbi 43-32,2
 806               	.L32:
 807 0404 00C0      		rjmp .L32
 808               	.LBE136:
 809               	.LBE135:
 810               	.LFE19:
 812               	.global	__vector_9
 814               	__vector_9:
 815               	.LFB20:
 816               	.LM115:
 817 0406 1F92      		push __zero_reg__
 818 0408 0F92      		push r0
 819 040a 0FB6      		in r0,__SREG__
 820 040c 0F92      		push r0
 821 040e 1124      		clr __zero_reg__
 822 0410 2F93      		push r18
 823 0412 3F93      		push r19
 824 0414 4F93      		push r20
 825 0416 5F93      		push r21
 826 0418 6F93      		push r22
 827 041a 7F93      		push r23
 828 041c 8F93      		push r24
 829 041e 9F93      		push r25
 830 0420 AF93      		push r26
 831 0422 BF93      		push r27
 832 0424 EF93      		push r30
 833 0426 FF93      		push r31
 834               	/* prologue: Signal */
 835               	/* frame size = 0 */
 836               	.LM116:
 837 0428 8091 0000 		lds r24,mode_active
 838 042c 8823      		tst r24
 839 042e 01F4      		brne .+2
 840 0430 00C0      		rjmp .L102
 841               	.LM117:
 842 0432 2091 0000 		lds r18,_ctr
 843 0436 3091 0000 		lds r19,(_ctr)+1
 844 043a 8091 0000 		lds r24,time_step
 845 043e 9091 0000 		lds r25,(time_step)+1
 846 0442 8217      		cp r24,r18
 847 0444 9307      		cpc r25,r19
 848 0446 04F0      		brlt .+2
 849 0448 00C0      		rjmp .L38
 850               	.LM118:
 851 044a 8091 0000 		lds r24,MD
 852 044e 8823      		tst r24
 853 0450 01F4      		brne .L39
 854               	.LM119:
 855 0452 8091 0000 		lds r24,event_cnt
 856 0456 9091 0000 		lds r25,(event_cnt)+1
 857 045a 0097      		sbiw r24,0
 858 045c 01F4      		brne .L40
 859               	.LM120:
 860 045e 8FEF      		ldi r24,lo8(-1)
 861 0460 8093 C600 		sts 198,r24
 862               	.LM121:
 863 0464 8091 0000 		lds r24,x16
 864 0468 9091 0000 		lds r25,(x16)+1
 865 046c 00C0      		rjmp .L120
 866               	.L40:
 867               	.LM122:
 868 046e 8130      		cpi r24,1
 869 0470 9105      		cpc r25,__zero_reg__
 870 0472 01F4      		brne .L42
 871               	.LM123:
 872 0474 8091 7A00 		lds r24,122
 873 0478 8064      		ori r24,lo8(64)
 874 047a 8093 7A00 		sts 122,r24
 875 047e 00C0      		rjmp .L113
 876               	.L42:
 877               	.LM124:
 878 0480 8230      		cpi r24,2
 879 0482 9105      		cpc r25,__zero_reg__
 880 0484 01F0      		breq .L113
 881               	.L43:
 882               	.LM125:
 883 0486 8330      		cpi r24,3
 884 0488 9105      		cpc r25,__zero_reg__
 885 048a 01F4      		brne .+2
 886 048c 00C0      		rjmp .L41
 887               	.LM126:
 888 048e 8430      		cpi r24,4
 889 0490 9105      		cpc r25,__zero_reg__
 890 0492 01F4      		brne .+2
 891 0494 00C0      		rjmp .L114
 892               	.L44:
 893               	.LM127:
 894 0496 0597      		sbiw r24,5
 895 0498 01F0      		breq .+2
 896 049a 00C0      		rjmp .L41
 897               	.LM128:
 898 049c 8091 0000 		lds r24,ADCH_
 899 04a0 8093 C600 		sts 198,r24
 900 04a4 00C0      		rjmp .L108
 901               	.L39:
 902               	.LM129:
 903 04a6 8730      		cpi r24,lo8(7)
 904 04a8 01F4      		brne .L45
 905               	.LM130:
 906 04aa 8093 0000 		sts T,r24
 907               	.LM131:
 908 04ae 8091 0000 		lds r24,event_cnt
 909 04b2 9091 0000 		lds r25,(event_cnt)+1
 910 04b6 0097      		sbiw r24,0
 911 04b8 01F4      		brne .L46
 912               	.LM132:
 913 04ba 8FEF      		ldi r24,lo8(-1)
 914 04bc 8093 C600 		sts 198,r24
 915               	.LM133:
 916 04c0 8091 0000 		lds r24,x8
 917 04c4 9927      		clr r25
 918 04c6 87FD      		sbrc r24,7
 919 04c8 9095      		com r25
 920 04ca A4E0      		ldi r26,4
 921 04cc 880F      	1:	lsl r24
 922 04ce 991F      		rol r25
 923 04d0 AA95      		dec r26
 924 04d2 01F4      		brne 1b
 925 04d4 9093 0000 		sts (x16)+1,r25
 926 04d8 8093 0000 		sts x16,r24
 927 04dc 00C0      		rjmp .L104
 928               	.L46:
 929               	.LM134:
 930 04de 8130      		cpi r24,1
 931 04e0 9105      		cpc r25,__zero_reg__
 932 04e2 01F4      		brne .L47
 933               	.L113:
 934               	.LM135:
 935 04e4 1092 C600 		sts 198,__zero_reg__
 936 04e8 00C0      		rjmp .L41
 937               	.L47:
 938               	.LM136:
 939 04ea 8230      		cpi r24,2
 940 04ec 9105      		cpc r25,__zero_reg__
 941 04ee 01F4      		brne .+2
 942 04f0 00C0      		rjmp .L114
 943               	.L48:
 944               	.LM137:
 945 04f2 8330      		cpi r24,3
 946 04f4 9105      		cpc r25,__zero_reg__
 947 04f6 01F4      		brne .L130
 948 04f8 00C0      		rjmp .L53
 949               	.L45:
 950               	.LM138:
 951 04fa 8130      		cpi r24,lo8(1)
 952 04fc 01F0      		breq .+2
 953 04fe 00C0      		rjmp .L50
 954               	.LM139:
 955 0500 8091 0000 		lds r24,event_cnt
 956 0504 9091 0000 		lds r25,(event_cnt)+1
 957 0508 8230      		cpi r24,2
 958 050a 9105      		cpc r25,__zero_reg__
 959 050c 01F0      		breq .L53
 960 050e 8330      		cpi r24,3
 961 0510 9105      		cpc r25,__zero_reg__
 962 0512 04F4      		brge .L56
 963 0514 0097      		sbiw r24,0
 964 0516 01F0      		breq .L51
 965 0518 0197      		sbiw r24,1
 966 051a 01F0      		breq .+2
 967 051c 00C0      		rjmp .L41
 968 051e 00C0      		rjmp .L144
 969               	.L56:
 970 0520 8330      		cpi r24,3
 971 0522 9105      		cpc r25,__zero_reg__
 972 0524 01F0      		breq .L54
 973               	.L130:
 974 0526 0497      		sbiw r24,4
 975 0528 01F0      		breq .+2
 976 052a 00C0      		rjmp .L41
 977 052c 00C0      		rjmp .L107
 978               	.L51:
 979               	.LM140:
 980 052e 8091 7A00 		lds r24,122
 981 0532 8064      		ori r24,lo8(64)
 982 0534 8093 7A00 		sts 122,r24
 983 0538 00C0      		rjmp .L119
 984               	.L144:
 985               	.LM141:
 986 053a 8091 0000 		lds r24,ADCL_
 987 053e 8093 0000 		sts ADCL__,r24
 988               	.LM142:
 989 0542 8091 0000 		lds r24,ADCH_
 990 0546 8093 0000 		sts ADCH__,r24
 991 054a 00C0      		rjmp .L114
 992               	.L53:
 993               	.LM143:
 994 054c 8091 0000 		lds r24,ADCH_
 995 0550 00C0      		rjmp .L109
 996               	.L54:
 997               	.LM144:
 998 0552 2091 0000 		lds r18,voltage16
 999 0556 3091 0000 		lds r19,(voltage16)+1
 1000 055a 3093 0000 		sts (voltage16_h)+1,r19
 1001 055e 2093 0000 		sts voltage16_h,r18
 1002               	.LM145:
 1003 0562 8091 0000 		lds r24,pos_phase
 1004 0566 8823      		tst r24
 1005 0568 01F0      		breq .L57
 1006               	.LM146:
 1007 056a 205E      		subi r18,lo8(-(32))
 1008 056c 3F4F      		sbci r19,hi8(-(32))
 1009 056e 3093 0000 		sts (voltage16)+1,r19
 1010 0572 2093 0000 		sts voltage16,r18
 1011               	.LM147:
 1012 0576 8091 0000 		lds r24,ref16
 1013 057a 9091 0000 		lds r25,(ref16)+1
 1014 057e 2817      		cp r18,r24
 1015 0580 3907      		cpc r19,r25
 1016 0582 04F0      		brlt .L58
 1017               	.LM148:
 1018 0584 1092 0000 		sts pos_phase,__zero_reg__
 1019 0588 00C0      		rjmp .L58
 1020               	.L57:
 1021               	.LM149:
 1022 058a C901      		movw r24,r18
 1023 058c 8097      		sbiw r24,32
 1024 058e 9093 0000 		sts (voltage16)+1,r25
 1025 0592 8093 0000 		sts voltage16,r24
 1026               	.LM150:
 1027 0596 21E0      		ldi r18,lo8(1)
 1028 0598 30E0      		ldi r19,hi8(1)
 1029 059a 4091 0000 		lds r20,x16
 1030 059e 5091 0000 		lds r21,(x16)+1
 1031 05a2 241B      		sub r18,r20
 1032 05a4 350B      		sbc r19,r21
 1033 05a6 8217      		cp r24,r18
 1034 05a8 9307      		cpc r25,r19
 1035 05aa 04F4      		brge .L58
 1036               	.LM151:
 1037 05ac 81E0      		ldi r24,lo8(1)
 1038 05ae 8093 0000 		sts pos_phase,r24
 1039               	.L58:
 1040               	.LM152:
 1041 05b2 8091 0000 		lds r24,voltage16
 1042 05b6 9091 0000 		lds r25,(voltage16)+1
 1043 05ba 9C01      		movw r18,r24
 1044 05bc F4E0      		ldi r31,4
 1045 05be 3595      	1:	asr r19
 1046 05c0 2795      		ror r18
 1047 05c2 FA95      		dec r31
 1048 05c4 01F4      		brne 1b
 1049 05c6 2093 C600 		sts 198,r18
 1050 05ca 00C0      		rjmp .L120
 1051               	.L50:
 1052               	.LM153:
 1053 05cc 8230      		cpi r24,lo8(2)
 1054 05ce 01F0      		breq .+2
 1055 05d0 00C0      		rjmp .L59
 1056               	.LBB137:
 1057               	.LM154:
 1058 05d2 80E1      		ldi r24,lo8(16)
 1059 05d4 8093 0000 		sts T,r24
 1060               	.LM155:
 1061 05d8 8091 0000 		lds r24,event_cnt
 1062 05dc 9091 0000 		lds r25,(event_cnt)+1
 1063 05e0 0097      		sbiw r24,0
 1064 05e2 01F4      		brne .L60
 1065               	.LM156:
 1066 05e4 8FEF      		ldi r24,lo8(-1)
 1067 05e6 8093 C600 		sts 198,r24
 1068               	.LM157:
 1069 05ea 8091 0000 		lds r24,ref16
 1070 05ee 9091 0000 		lds r25,(ref16)+1
 1071               	.L104:
 1072 05f2 6091 0000 		lds r22,chan
 1073               	.L105:
 1074 05f6 0E94 0000 		call prepareSetDAC
 1075               	.LBB138:
 1076               	.LBB139:
 1077               	.LM158:
 1078 05fa 5A98      		cbi 43-32,2
 1079               	.LM159:
 1080 05fc 5A9A      		sbi 43-32,2
 1081               	.LBE139:
 1082               	.LBE138:
 1083               	.LM160:
 1084 05fe 8091 7A00 		lds r24,122
 1085 0602 8064      		ori r24,lo8(64)
 1086 0604 8093 7A00 		sts 122,r24
 1087 0608 00C0      		rjmp .L41
 1088               	.L60:
 1089               	.LM161:
 1090 060a 8130      		cpi r24,1
 1091 060c 9105      		cpc r25,__zero_reg__
 1092 060e 01F4      		brne .L61
 1093               	.LM162:
 1094 0610 8091 0000 		lds r24,PROGRAM_done
 1095 0614 00C0      		rjmp .L109
 1096               	.L61:
 1097               	.LM163:
 1098 0616 8230      		cpi r24,2
 1099 0618 9105      		cpc r25,__zero_reg__
 1100 061a 01F4      		brne .+2
 1101 061c 00C0      		rjmp .L114
 1102               	.L62:
 1103               	.LM164:
 1104 061e 8330      		cpi r24,3
 1105 0620 9105      		cpc r25,__zero_reg__
 1106 0622 01F4      		brne .L63
 1107               	.LM165:
 1108 0624 8091 0000 		lds r24,ADCH_
 1109 0628 8093 C600 		sts 198,r24
 1110               	.LM166:
 1111 062c 382F      		mov r19,r24
 1112 062e 20E0      		ldi r18,lo8(0)
 1113 0630 8091 0000 		lds r24,ADCL_
 1114 0634 90E0      		ldi r25,lo8(0)
 1115 0636 822B      		or r24,r18
 1116 0638 932B      		or r25,r19
 1117 063a 9093 0000 		sts (_adc)+1,r25
 1118 063e 8093 0000 		sts _adc,r24
 1119               	.LM167:
 1120 0642 20E0      		ldi r18,lo8(512)
 1121 0644 32E0      		ldi r19,hi8(512)
 1122 0646 281B      		sub r18,r24
 1123 0648 390B      		sbc r19,r25
 1124 064a 3093 0000 		sts (adc_h.1520)+1,r19
 1125 064e 2093 0000 		sts adc_h.1520,r18
 1126               	.LM168:
 1127 0652 8091 0000 		lds r24,t1
 1128 0656 90E0      		ldi r25,lo8(0)
 1129 0658 2817      		cp r18,r24
 1130 065a 3907      		cpc r19,r25
 1131 065c 00F4      		brsh .L64
 1132               	.LM169:
 1133 065e 8091 0000 		lds r24,x16
 1134 0662 9091 0000 		lds r25,(x16)+1
 1135 0666 9095      		com r25
 1136 0668 8195      		neg r24
 1137 066a 9F4F      		sbci r25,lo8(-1)
 1138 066c 9093 0000 		sts (proging_val)+1,r25
 1139 0670 8093 0000 		sts proging_val,r24
 1140 0674 00C0      		rjmp .L41
 1141               	.L64:
 1142               	.LM170:
 1143 0676 0196      		adiw r24,1
 1144 0678 2817      		cp r18,r24
 1145 067a 3907      		cpc r19,r25
 1146 067c 00F0      		brlo .+2
 1147 067e 00C0      		rjmp .L41
 1148               	.LM171:
 1149 0680 81E0      		ldi r24,lo8(1)
 1150 0682 8093 0000 		sts PROGRAM_done,r24
 1151               	.LM172:
 1152 0686 1092 0000 		sts (proging_val)+1,__zero_reg__
 1153 068a 1092 0000 		sts proging_val,__zero_reg__
 1154               	.LM173:
 1155 068e 8091 0000 		lds r24,ref16
 1156 0692 9091 0000 		lds r25,(ref16)+1
 1157               	.L120:
 1158 0696 6091 0000 		lds r22,chan
 1159 069a 00C0      		rjmp .L103
 1160               	.L63:
 1161               	.LM174:
 1162 069c 8430      		cpi r24,4
 1163 069e 9105      		cpc r25,__zero_reg__
 1164 06a0 01F0      		breq .+2
 1165 06a2 00C0      		rjmp .L65
 1166               	.LM175:
 1167 06a4 1092 C600 		sts 198,__zero_reg__
 1168               	.LM176:
 1169 06a8 8091 0000 		lds r24,PROGRAM_done
 1170 06ac 8823      		tst r24
 1171 06ae 01F0      		breq .L66
 1172               	.LM177:
 1173 06b0 1092 0000 		sts (proging_val)+1,__zero_reg__
 1174 06b4 1092 0000 		sts proging_val,__zero_reg__
 1175               	.L66:
 1176               	.LM178:
 1177 06b8 8091 0000 		lds r24,proging_val
 1178 06bc 9091 0000 		lds r25,(proging_val)+1
 1179 06c0 6091 0000 		lds r22,chan
 1180 06c4 0E94 0000 		call prepareSetDAC
 1181               	.LBB140:
 1182               	.LBB141:
 1183               	.LM179:
 1184 06c8 5A98      		cbi 43-32,2
 1185               	.LM180:
 1186 06ca 5A9A      		sbi 43-32,2
 1187               	.LBE141:
 1188               	.LBE140:
 1189               	.LM181:
 1190 06cc 2091 0000 		lds r18,proging_val
 1191 06d0 3091 0000 		lds r19,(proging_val)+1
 1192 06d4 8091 0000 		lds r24,x16
 1193 06d8 9091 0000 		lds r25,(x16)+1
 1194 06dc 4427      		clr r20
 1195 06de 5527      		clr r21
 1196 06e0 481B      		sub r20,r24
 1197 06e2 590B      		sbc r21,r25
 1198 06e4 2417      		cp r18,r20
 1199 06e6 3507      		cpc r19,r21
 1200 06e8 01F4      		brne .L67
 1201               	.LM182:
 1202 06ea 1092 0000 		sts (proging_val)+1,__zero_reg__
 1203 06ee 1092 0000 		sts proging_val,__zero_reg__
 1204 06f2 00C0      		rjmp .L41
 1205               	.L67:
 1206               	.LM183:
 1207 06f4 8091 0000 		lds r24,t2
 1208 06f8 90E0      		ldi r25,lo8(0)
 1209 06fa E4E0      		ldi r30,4
 1210 06fc 880F      	1:	lsl r24
 1211 06fe 991F      		rol r25
 1212 0700 EA95      		dec r30
 1213 0702 01F4      		brne 1b
 1214 0704 8217      		cp r24,r18
 1215 0706 9307      		cpc r25,r19
 1216 0708 04F4      		brge .L68
 1217               	.LM184:
 1218 070a 5093 0000 		sts (proging_val)+1,r21
 1219 070e 4093 0000 		sts proging_val,r20
 1220 0712 00C0      		rjmp .L41
 1221               	.L68:
 1222               	.LM185:
 1223 0714 205E      		subi r18,lo8(-(32))
 1224 0716 3F4F      		sbci r19,hi8(-(32))
 1225 0718 3093 0000 		sts (proging_val)+1,r19
 1226 071c 2093 0000 		sts proging_val,r18
 1227 0720 00C0      		rjmp .L41
 1228               	.L65:
 1229               	.LM186:
 1230 0722 0597      		sbiw r24,5
 1231 0724 01F0      		breq .+2
 1232 0726 00C0      		rjmp .L41
 1233               	.LM187:
 1234 0728 80E0      		ldi r24,lo8(0)
 1235 072a 90E0      		ldi r25,hi8(0)
 1236 072c 6091 0000 		lds r22,chan
 1237 0730 0E94 0000 		call prepareSetDAC
 1238               	.LBB142:
 1239               	.LBB143:
 1240               	.LM188:
 1241 0734 5A98      		cbi 43-32,2
 1242               	.LM189:
 1243 0736 5A9A      		sbi 43-32,2
 1244 0738 00C0      		rjmp .L108
 1245               	.L59:
 1246               	.LBE143:
 1247               	.LBE142:
 1248               	.LBE137:
 1249               	.LM190:
 1250 073a 8830      		cpi r24,lo8(8)
 1251 073c 01F4      		brne .L69
 1252               	.LM191:
 1253 073e 8091 0000 		lds r24,event_cnt
 1254 0742 9091 0000 		lds r25,(event_cnt)+1
 1255 0746 0097      		sbiw r24,0
 1256 0748 01F4      		brne .+2
 1257 074a 00C0      		rjmp .L110
 1258               	.L70:
 1259               	.LM192:
 1260 074c 8130      		cpi r24,1
 1261 074e 9105      		cpc r25,__zero_reg__
 1262 0750 01F4      		brne .L71
 1263               	.LM193:
 1264 0752 8091 0000 		lds r24,reset16
 1265 0756 9091 0000 		lds r25,(reset16)+1
 1266 075a 60E0      		ldi r22,lo8(0)
 1267 075c 0E94 0000 		call prepareSetDAC
 1268               	.LM194:
 1269 0760 8091 0000 		lds r24,reset16
 1270 0764 9091 0000 		lds r25,(reset16)+1
 1271 0768 61E0      		ldi r22,lo8(1)
 1272 076a 0E94 0000 		call prepareSetDAC
 1273               	.LM195:
 1274 076e 8091 0000 		lds r24,reset16
 1275 0772 9091 0000 		lds r25,(reset16)+1
 1276 0776 62E0      		ldi r22,lo8(2)
 1277 0778 0E94 0000 		call prepareSetDAC
 1278               	.LM196:
 1279 077c 8091 0000 		lds r24,reset16
 1280 0780 9091 0000 		lds r25,(reset16)+1
 1281 0784 00C0      		rjmp .L121
 1282               	.L71:
 1283               	.LM197:
 1284 0786 8230      		cpi r24,2
 1285 0788 9105      		cpc r25,__zero_reg__
 1286 078a 01F4      		brne .L72
 1287               	.LM198:
 1288 078c 80E0      		ldi r24,lo8(0)
 1289 078e 90E0      		ldi r25,hi8(0)
 1290 0790 60E0      		ldi r22,lo8(0)
 1291 0792 0E94 0000 		call prepareSetDAC
 1292               	.LM199:
 1293 0796 80E0      		ldi r24,lo8(0)
 1294 0798 90E0      		ldi r25,hi8(0)
 1295 079a 61E0      		ldi r22,lo8(1)
 1296 079c 0E94 0000 		call prepareSetDAC
 1297               	.LM200:
 1298 07a0 80E0      		ldi r24,lo8(0)
 1299 07a2 90E0      		ldi r25,hi8(0)
 1300 07a4 62E0      		ldi r22,lo8(2)
 1301 07a6 0E94 0000 		call prepareSetDAC
 1302 07aa 00C0      		rjmp .L125
 1303               	.L72:
 1304               	.LM201:
 1305 07ac 8330      		cpi r24,3
 1306 07ae 9105      		cpc r25,__zero_reg__
 1307 07b0 01F4      		brne .L89
 1308               	.L119:
 1309               	.LM202:
 1310 07b2 8FEF      		ldi r24,lo8(-1)
 1311               	.L109:
 1312 07b4 8093 C600 		sts 198,r24
 1313 07b8 00C0      		rjmp .L41
 1314               	.L69:
 1315               	.LM203:
 1316 07ba 8530      		cpi r24,lo8(5)
 1317 07bc 01F0      		breq .+2
 1318 07be 00C0      		rjmp .L41
 1319               	.LM204:
 1320 07c0 8091 0000 		lds r24,event_cnt
 1321 07c4 9091 0000 		lds r25,(event_cnt)+1
 1322 07c8 0097      		sbiw r24,0
 1323 07ca 01F4      		brne .L86
 1324               	.LM205:
 1325 07cc 0E94 0000 		call gatherMult
 1326 07d0 00C0      		rjmp .L41
 1327               	.L86:
 1328               	.LM206:
 1329 07d2 8130      		cpi r24,1
 1330 07d4 9105      		cpc r25,__zero_reg__
 1331 07d6 01F4      		brne .L87
 1332               	.LM207:
 1333 07d8 8091 0000 		lds r24,x16
 1334 07dc 9091 0000 		lds r25,(x16)+1
 1335 07e0 9095      		com r25
 1336 07e2 8195      		neg r24
 1337 07e4 9F4F      		sbci r25,lo8(-1)
 1338               	.L122:
 1339 07e6 60E0      		ldi r22,lo8(0)
 1340               	.L103:
 1341 07e8 0E94 0000 		call prepareSetDAC
 1342               	.LBB144:
 1343               	.LBB145:
 1344               	.LM208:
 1345 07ec 5A98      		cbi 43-32,2
 1346               	.LM209:
 1347 07ee 5A9A      		sbi 43-32,2
 1348 07f0 00C0      		rjmp .L41
 1349               	.L87:
 1350               	.LBE145:
 1351               	.LBE144:
 1352               	.LM210:
 1353 07f2 8230      		cpi r24,2
 1354 07f4 9105      		cpc r25,__zero_reg__
 1355 07f6 01F0      		breq .L127
 1356               	.L88:
 1357               	.LM211:
 1358 07f8 8330      		cpi r24,3
 1359 07fa 9105      		cpc r25,__zero_reg__
 1360 07fc 01F4      		brne .L89
 1361               	.LM212:
 1362 07fe 8FEF      		ldi r24,lo8(-1)
 1363 0800 8093 C600 		sts 198,r24
 1364               	.L110:
 1365               	.LM213:
 1366 0804 0E94 0000 		call usualMult
 1367 0808 00C0      		rjmp .L41
 1368               	.L89:
 1369               	.LM214:
 1370 080a 8430      		cpi r24,4
 1371 080c 9105      		cpc r25,__zero_reg__
 1372 080e 01F4      		brne .L90
 1373               	.LM215:
 1374 0810 8091 0000 		lds r24,ref16
 1375 0814 9091 0000 		lds r25,(ref16)+1
 1376 0818 60E0      		ldi r22,lo8(0)
 1377 081a 00C0      		rjmp .L105
 1378               	.L90:
 1379               	.LM216:
 1380 081c 8530      		cpi r24,5
 1381 081e 9105      		cpc r25,__zero_reg__
 1382 0820 01F4      		brne .+2
 1383 0822 00C0      		rjmp .L114
 1384               	.L91:
 1385               	.LM217:
 1386 0824 8630      		cpi r24,6
 1387 0826 9105      		cpc r25,__zero_reg__
 1388 0828 01F4      		brne .L92
 1389               	.LM218:
 1390 082a 8091 0000 		lds r24,ADCH_
 1391 082e 8093 C600 		sts 198,r24
 1392               	.L127:
 1393               	.LM219:
 1394 0832 80E0      		ldi r24,lo8(0)
 1395 0834 90E0      		ldi r25,hi8(0)
 1396 0836 00C0      		rjmp .L122
 1397               	.L92:
 1398               	.LM220:
 1399 0838 8730      		cpi r24,7
 1400 083a 9105      		cpc r25,__zero_reg__
 1401 083c 01F4      		brne .L93
 1402               	.LM221:
 1403 083e 8091 0000 		lds r24,ref16
 1404 0842 9091 0000 		lds r25,(ref16)+1
 1405 0846 61E0      		ldi r22,lo8(1)
 1406 0848 00C0      		rjmp .L105
 1407               	.L93:
 1408               	.LM222:
 1409 084a 8830      		cpi r24,8
 1410 084c 9105      		cpc r25,__zero_reg__
 1411 084e 01F0      		breq .L114
 1412               	.L94:
 1413               	.LM223:
 1414 0850 8930      		cpi r24,9
 1415 0852 9105      		cpc r25,__zero_reg__
 1416 0854 01F4      		brne .L95
 1417               	.LM224:
 1418 0856 8091 0000 		lds r24,ADCH_
 1419 085a 8093 C600 		sts 198,r24
 1420               	.LM225:
 1421 085e 80E0      		ldi r24,lo8(0)
 1422 0860 90E0      		ldi r25,hi8(0)
 1423 0862 61E0      		ldi r22,lo8(1)
 1424 0864 00C0      		rjmp .L103
 1425               	.L95:
 1426               	.LM226:
 1427 0866 8A30      		cpi r24,10
 1428 0868 9105      		cpc r25,__zero_reg__
 1429 086a 01F4      		brne .L96
 1430               	.LM227:
 1431 086c 8091 0000 		lds r24,ref16
 1432 0870 9091 0000 		lds r25,(ref16)+1
 1433 0874 62E0      		ldi r22,lo8(2)
 1434 0876 00C0      		rjmp .L105
 1435               	.L96:
 1436               	.LM228:
 1437 0878 8B30      		cpi r24,11
 1438 087a 9105      		cpc r25,__zero_reg__
 1439 087c 01F0      		breq .L114
 1440               	.L97:
 1441               	.LM229:
 1442 087e 8C30      		cpi r24,12
 1443 0880 9105      		cpc r25,__zero_reg__
 1444 0882 01F4      		brne .L98
 1445               	.LM230:
 1446 0884 8091 0000 		lds r24,ADCH_
 1447 0888 8093 C600 		sts 198,r24
 1448               	.LM231:
 1449 088c 80E0      		ldi r24,lo8(0)
 1450 088e 90E0      		ldi r25,hi8(0)
 1451 0890 62E0      		ldi r22,lo8(2)
 1452 0892 00C0      		rjmp .L103
 1453               	.L98:
 1454               	.LM232:
 1455 0894 8D30      		cpi r24,13
 1456 0896 9105      		cpc r25,__zero_reg__
 1457 0898 01F4      		brne .L99
 1458               	.LM233:
 1459 089a 8091 0000 		lds r24,ref16
 1460 089e 9091 0000 		lds r25,(ref16)+1
 1461 08a2 63E0      		ldi r22,lo8(3)
 1462 08a4 00C0      		rjmp .L105
 1463               	.L99:
 1464               	.LM234:
 1465 08a6 8E30      		cpi r24,14
 1466 08a8 9105      		cpc r25,__zero_reg__
 1467 08aa 01F4      		brne .L100
 1468               	.L114:
 1469               	.LM235:
 1470 08ac 9091 7800 		lds r25,120
 1471 08b0 9093 0000 		sts ADCL_,r25
 1472               	.LM236:
 1473 08b4 8091 7900 		lds r24,121
 1474 08b8 8093 0000 		sts ADCH_,r24
 1475               	.LM237:
 1476 08bc 9093 C600 		sts 198,r25
 1477 08c0 00C0      		rjmp .L41
 1478               	.L100:
 1479               	.LM238:
 1480 08c2 8F30      		cpi r24,15
 1481 08c4 9105      		cpc r25,__zero_reg__
 1482 08c6 01F4      		brne .L101
 1483               	.LM239:
 1484 08c8 8091 0000 		lds r24,ADCH_
 1485 08cc 8093 C600 		sts 198,r24
 1486               	.L125:
 1487               	.LM240:
 1488 08d0 80E0      		ldi r24,lo8(0)
 1489 08d2 90E0      		ldi r25,hi8(0)
 1490               	.L121:
 1491 08d4 63E0      		ldi r22,lo8(3)
 1492 08d6 00C0      		rjmp .L103
 1493               	.L101:
 1494               	.LM241:
 1495 08d8 4097      		sbiw r24,16
 1496 08da 01F4      		brne .L41
 1497               	.L107:
 1498               	.LM242:
 1499 08dc 1092 C600 		sts 198,__zero_reg__
 1500               	.L108:
 1501               	.LM243:
 1502 08e0 1092 0000 		sts mode_active,__zero_reg__
 1503               	.L41:
 1504               	.LM244:
 1505 08e4 1092 0000 		sts (_ctr)+1,__zero_reg__
 1506 08e8 1092 0000 		sts _ctr,__zero_reg__
 1507               	.LM245:
 1508 08ec 8091 0000 		lds r24,mode_active
 1509 08f0 8823      		tst r24
 1510 08f2 01F0      		breq .L38
 1511 08f4 8091 0000 		lds r24,event_cnt
 1512 08f8 9091 0000 		lds r25,(event_cnt)+1
 1513 08fc 0196      		adiw r24,1
 1514 08fe 9093 0000 		sts (event_cnt)+1,r25
 1515 0902 8093 0000 		sts event_cnt,r24
 1516               	.L38:
 1517               	.LM246:
 1518 0906 8091 0000 		lds r24,_ctr
 1519 090a 9091 0000 		lds r25,(_ctr)+1
 1520 090e 0196      		adiw r24,1
 1521 0910 9093 0000 		sts (_ctr)+1,r25
 1522 0914 8093 0000 		sts _ctr,r24
 1523               	.L102:
 1524               	/* epilogue start */
 1525               	.LM247:
 1526 0918 FF91      		pop r31
 1527 091a EF91      		pop r30
 1528 091c BF91      		pop r27
 1529 091e AF91      		pop r26
 1530 0920 9F91      		pop r25
 1531 0922 8F91      		pop r24
 1532 0924 7F91      		pop r23
 1533 0926 6F91      		pop r22
 1534 0928 5F91      		pop r21
 1535 092a 4F91      		pop r20
 1536 092c 3F91      		pop r19
 1537 092e 2F91      		pop r18
 1538 0930 0F90      		pop r0
 1539 0932 0FBE      		out __SREG__,r0
 1540 0934 0F90      		pop r0
 1541 0936 1F90      		pop __zero_reg__
 1542 0938 1895      		reti
 1543               	.LFE20:
 1545               	.global	__vector_18
 1547               	__vector_18:
 1548               	.LFB21:
 1549               	.LM248:
 1550 093a 1F92      		push __zero_reg__
 1551 093c 0F92      		push r0
 1552 093e 0FB6      		in r0,__SREG__
 1553 0940 0F92      		push r0
 1554 0942 1124      		clr __zero_reg__
 1555 0944 2F93      		push r18
 1556 0946 3F93      		push r19
 1557 0948 4F93      		push r20
 1558 094a 5F93      		push r21
 1559 094c 6F93      		push r22
 1560 094e 7F93      		push r23
 1561 0950 8F93      		push r24
 1562 0952 9F93      		push r25
 1563 0954 AF93      		push r26
 1564 0956 BF93      		push r27
 1565 0958 EF93      		push r30
 1566 095a FF93      		push r31
 1567               	/* prologue: Signal */
 1568               	/* frame size = 0 */
 1569               	.LM249:
 1570 095c 8091 0000 		lds r24,ptr
 1571 0960 8430      		cpi r24,lo8(4)
 1572 0962 01F4      		brne .+2
 1573 0964 00C0      		rjmp .L151
 1574 0966 8530      		cpi r24,lo8(5)
 1575 0968 00F4      		brsh .L157
 1576 096a 8130      		cpi r24,lo8(1)
 1577 096c 01F0      		breq .L148
 1578 096e 8130      		cpi r24,lo8(1)
 1579 0970 00F0      		brlo .L147
 1580 0972 8230      		cpi r24,lo8(2)
 1581 0974 01F4      		brne .+2
 1582 0976 00C0      		rjmp .L149
 1583 0978 8330      		cpi r24,lo8(3)
 1584 097a 01F0      		breq .+2
 1585 097c 00C0      		rjmp .L146
 1586 097e 00C0      		rjmp .L165
 1587               	.L157:
 1588 0980 8730      		cpi r24,lo8(7)
 1589 0982 01F4      		brne .+2
 1590 0984 00C0      		rjmp .L154
 1591 0986 8830      		cpi r24,lo8(8)
 1592 0988 00F4      		brsh .L158
 1593 098a 8530      		cpi r24,lo8(5)
 1594 098c 01F4      		brne .+2
 1595 098e 00C0      		rjmp .L152
 1596 0990 8630      		cpi r24,lo8(6)
 1597 0992 01F0      		breq .+2
 1598 0994 00C0      		rjmp .L146
 1599 0996 00C0      		rjmp .L166
 1600               	.L158:
 1601 0998 8830      		cpi r24,lo8(8)
 1602 099a 01F4      		brne .+2
 1603 099c 00C0      		rjmp .L155
 1604 099e 8930      		cpi r24,lo8(9)
 1605 09a0 01F0      		breq .+2
 1606 09a2 00C0      		rjmp .L146
 1607 09a4 00C0      		rjmp .L167
 1608               	.L147:
 1609               	.LM250:
 1610 09a6 8091 C600 		lds r24,198
 1611 09aa 8F3F      		cpi r24,lo8(-1)
 1612 09ac 01F0      		breq .L159
 1613               	.LM251:
 1614 09ae 1092 0000 		sts sync,__zero_reg__
 1615               	.LM252:
 1616 09b2 83E0      		ldi r24,lo8(3)
 1617 09b4 8093 0000 		sts ptr,r24
 1618 09b8 00C0      		rjmp .L146
 1619               	.L159:
 1620               	.LM253:
 1621 09ba 81E0      		ldi r24,lo8(1)
 1622 09bc 8093 0000 		sts sync,r24
 1623 09c0 00C0      		rjmp .L146
 1624               	.L148:
 1625               	.LM254:
 1626 09c2 2091 C600 		lds r18,198
 1627 09c6 2093 0000 		sts MD,r18
 1628               	.LM255:
 1629 09ca 2130      		cpi r18,lo8(1)
 1630 09cc 01F4      		brne .L160
 1631               	.LM256:
 1632 09ce 84E0      		ldi r24,lo8(4)
 1633 09d0 90E0      		ldi r25,hi8(4)
 1634 09d2 9093 0000 		sts (time_step)+1,r25
 1635 09d6 8093 0000 		sts time_step,r24
 1636 09da 00C0      		rjmp .L146
 1637               	.L160:
 1638               	.LM257:
 1639 09dc 86E0      		ldi r24,lo8(6)
 1640 09de 90E0      		ldi r25,hi8(6)
 1641 09e0 9093 0000 		sts (time_step)+1,r25
 1642 09e4 8093 0000 		sts time_step,r24
 1643               	.LM258:
 1644 09e8 2230      		cpi r18,lo8(2)
 1645 09ea 01F0      		breq .+2
 1646 09ec 00C0      		rjmp .L146
 1647               	.LM259:
 1648 09ee 1092 0000 		sts PROGRAM_done,__zero_reg__
 1649               	.LM260:
 1650 09f2 1092 0000 		sts (proging_val)+1,__zero_reg__
 1651 09f6 1092 0000 		sts proging_val,__zero_reg__
 1652 09fa 00C0      		rjmp .L146
 1653               	.L149:
 1654               	.LM261:
 1655 09fc 8091 C600 		lds r24,198
 1656 0a00 8093 0000 		sts x8,r24
 1657               	.LM262:
 1658 0a04 90E0      		ldi r25,lo8(0)
 1659 0a06 9093 0000 		sts (x16_simple)+1,r25
 1660 0a0a 8093 0000 		sts x16_simple,r24
 1661               	.LM263:
 1662 0a0e 34E0      		ldi r19,4
 1663 0a10 880F      	1:	lsl r24
 1664 0a12 991F      		rol r25
 1665 0a14 3A95      		dec r19
 1666 0a16 01F4      		brne 1b
 1667 0a18 9093 0000 		sts (x16)+1,r25
 1668 0a1c 8093 0000 		sts x16,r24
 1669 0a20 00C0      		rjmp .L146
 1670               	.L165:
 1671               	.LM264:
 1672 0a22 8091 C600 		lds r24,198
 1673 0a26 90E0      		ldi r25,lo8(0)
 1674 0a28 24E0      		ldi r18,4
 1675 0a2a 880F      	1:	lsl r24
 1676 0a2c 991F      		rol r25
 1677 0a2e 2A95      		dec r18
 1678 0a30 01F4      		brne 1b
 1679 0a32 9093 0000 		sts (ref16)+1,r25
 1680 0a36 8093 0000 		sts ref16,r24
 1681 0a3a 00C0      		rjmp .L146
 1682               	.L151:
 1683               	.LM265:
 1684 0a3c 8091 0000 		lds r24,MD
 1685 0a40 8230      		cpi r24,lo8(2)
 1686 0a42 01F4      		brne .L161
 1687               	.LM266:
 1688 0a44 8091 C600 		lds r24,198
 1689 0a48 8093 0000 		sts t1,r24
 1690 0a4c 00C0      		rjmp .L146
 1691               	.L161:
 1692               	.LM267:
 1693 0a4e 8091 C600 		lds r24,198
 1694 0a52 90E0      		ldi r25,lo8(0)
 1695 0a54 B4E0      		ldi r27,4
 1696 0a56 880F      	1:	lsl r24
 1697 0a58 991F      		rol r25
 1698 0a5a BA95      		dec r27
 1699 0a5c 01F4      		brne 1b
 1700 0a5e 9093 0000 		sts (reset16)+1,r25
 1701 0a62 8093 0000 		sts reset16,r24
 1702 0a66 00C0      		rjmp .L146
 1703               	.L152:
 1704               	.LM268:
 1705 0a68 8091 C600 		lds r24,198
 1706 0a6c 8093 0000 		sts t2,r24
 1707 0a70 00C0      		rjmp .L146
 1708               	.L166:
 1709               	.LM269:
 1710 0a72 8091 C600 		lds r24,198
 1711 0a76 8093 0000 		sts dT,r24
 1712 0a7a 00C0      		rjmp .L146
 1713               	.L154:
 1714               	.LM270:
 1715 0a7c 8091 C600 		lds r24,198
 1716 0a80 8093 0000 		sts T,r24
 1717 0a84 00C0      		rjmp .L146
 1718               	.L155:
 1719               	.LM271:
 1720 0a86 8091 C600 		lds r24,198
 1721 0a8a 8093 0000 		sts chan,r24
 1722 0a8e 00C0      		rjmp .L146
 1723               	.L167:
 1724               	.LM272:
 1725 0a90 8091 C600 		lds r24,198
 1726 0a94 E091 0000 		lds r30,chan
 1727 0a98 F0E0      		ldi r31,lo8(0)
 1728 0a9a E050      		subi r30,lo8(-(reverted))
 1729 0a9c F040      		sbci r31,hi8(-(reverted))
 1730 0a9e 8083      		st Z,r24
 1731               	.LM273:
 1732 0aa0 8091 0000 		lds r24,MD
 1733 0aa4 8330      		cpi r24,lo8(3)
 1734 0aa6 01F4      		brne .L162
 1735               	.LM274:
 1736 0aa8 0E94 0000 		call gatherMult
 1737 0aac 00C0      		rjmp .L163
 1738               	.L162:
 1739               	.LM275:
 1740 0aae 8430      		cpi r24,lo8(4)
 1741 0ab0 01F4      		brne .L163
 1742               	.LM276:
 1743 0ab2 0E94 0000 		call usualMult
 1744               	.L163:
 1745               	.LM277:
 1746 0ab6 1092 0000 		sts (event_cnt)+1,__zero_reg__
 1747 0aba 1092 0000 		sts event_cnt,__zero_reg__
 1748               	.LM278:
 1749 0abe 81E0      		ldi r24,lo8(1)
 1750 0ac0 8093 0000 		sts mode_active,r24
 1751               	.L146:
 1752               	.LM279:
 1753 0ac4 8091 0000 		lds r24,t2
 1754 0ac8 9091 0000 		lds r25,dT
 1755 0acc 890F      		add r24,r25
 1756 0ace 8093 0000 		sts dTt2,r24
 1757               	.LM280:
 1758 0ad2 8091 0000 		lds r24,ptr
 1759 0ad6 8F5F      		subi r24,lo8(-(1))
 1760 0ad8 6AE0      		ldi r22,lo8(10)
 1761 0ada 0E94 0000 		call __udivmodqi4
 1762 0ade 9093 0000 		sts ptr,r25
 1763               	/* epilogue start */
 1764               	.LM281:
 1765 0ae2 FF91      		pop r31
 1766 0ae4 EF91      		pop r30
 1767 0ae6 BF91      		pop r27
 1768 0ae8 AF91      		pop r26
 1769 0aea 9F91      		pop r25
 1770 0aec 8F91      		pop r24
 1771 0aee 7F91      		pop r23
 1772 0af0 6F91      		pop r22
 1773 0af2 5F91      		pop r21
 1774 0af4 4F91      		pop r20
 1775 0af6 3F91      		pop r19
 1776 0af8 2F91      		pop r18
 1777 0afa 0F90      		pop r0
 1778 0afc 0FBE      		out __SREG__,r0
 1779 0afe 0F90      		pop r0
 1780 0b00 1F90      		pop __zero_reg__
 1781 0b02 1895      		reti
 1782               	.LFE21:
 1784               	.global	SYNC_PINS
 1785               		.data
 1788               	SYNC_PINS:
 1789 0000 2B00      		.word	43
 1790 0002 05        		.byte	5
 1791 0003 2B00      		.word	43
 1792 0005 06        		.byte	6
 1793 0006 2B00      		.word	43
 1794 0008 07        		.byte	7
 1795 0009 2500      		.word	37
 1796 000b 00        		.byte	0
 1797 000c 2500      		.word	37
 1798 000e 01        		.byte	1
 1799 000f 2800      		.word	40
 1800 0011 02        		.byte	2
 1801 0012 2800      		.word	40
 1802 0014 03        		.byte	3
 1803 0015 2800      		.word	40
 1804 0017 04        		.byte	4
 1805               	.global	sep1_pin
 1808               	sep1_pin:
 1809 0018 2B00      		.word	43
 1810 001a 05        		.byte	5
 1811               	.global	sep2_pin
 1814               	sep2_pin:
 1815 001b 2B00      		.word	43
 1816 001d 06        		.byte	6
 1817               	.global	sep3_pin
 1820               	sep3_pin:
 1821 001e 2B00      		.word	43
 1822 0020 07        		.byte	7
 1823               	.global	sep4_pin
 1826               	sep4_pin:
 1827 0021 2500      		.word	37
 1828 0023 00        		.byte	0
 1829               	.global	resister_pin
 1832               	resister_pin:
 1833 0024 2800      		.word	40
 1834 0026 04        		.byte	4
 1835               	.global	MD
 1836               	.global	MD
 1837               		.section .bss
 1840               	MD:
 1841 0000 00        		.skip 1,0
 1842               	.global	STAT_N
 1843               		.data
 1846               	STAT_N:
 1847 0027 11        		.byte	17
 1848               	.global	STAT_CYCLE
 1851               	STAT_CYCLE:
 1852 0028 05        		.byte	5
 1853               	.global	voltage16
 1854               	.global	voltage16
 1855               		.section .bss
 1858               	voltage16:
 1859 0001 0000      		.skip 2,0
 1860               	.global	voltage16_h
 1861               	.global	voltage16_h
 1864               	voltage16_h:
 1865 0003 0000      		.skip 2,0
 1866               	.global	voltage16_hh
 1867               	.global	voltage16_hh
 1870               	voltage16_hh:
 1871 0005 0000      		.skip 2,0
 1872               	.global	proging_val
 1873               	.global	proging_val
 1876               	proging_val:
 1877 0007 0000      		.skip 2,0
 1878               	.global	x16
 1879               	.global	x16
 1882               	x16:
 1883 0009 0000      		.skip 2,0
 1884               	.global	ref16
 1885               	.global	ref16
 1888               	ref16:
 1889 000b 0000      		.skip 2,0
 1890               	.global	reset16
 1891               	.global	reset16
 1894               	reset16:
 1895 000d 0000      		.skip 2,0
 1896               	.global	sync
 1897               	.global	sync
 1900               	sync:
 1901 000f 00        		.skip 1,0
 1902               	.global	t1
 1903               		.data
 1906               	t1:
 1907 0029 02        		.byte	2
 1908               	.global	t2
 1911               	t2:
 1912 002a 02        		.byte	2
 1913               	.global	dTt2
 1916               	dTt2:
 1917 002b 0A        		.byte	10
 1918               	.global	pos_phase
 1921               	pos_phase:
 1922 002c 01        		.byte	1
 1923               	.global	STAT_dt_step
 1924               	.global	STAT_dt_step
 1925               		.section .bss
 1928               	STAT_dt_step:
 1929 0010 00        		.skip 1,0
 1930               	.global	STAT_V_step
 1931               	.global	STAT_V_step
 1934               	STAT_V_step:
 1935 0011 00        		.skip 1,0
 1936               	.global	ptr
 1937               	.global	ptr
 1940               	ptr:
 1941 0012 00        		.skip 1,0
 1942               	.global	PROGRAM_done
 1943               	.global	PROGRAM_done
 1946               	PROGRAM_done:
 1947 0013 00        		.skip 1,0
 1948               	.global	chan
 1949               	.global	chan
 1952               	chan:
 1953 0014 00        		.skip 1,0
 1954               	.global	mode_active
 1955               	.global	mode_active
 1958               	mode_active:
 1959 0015 00        		.skip 1,0
 1960               	.global	an_cnt
 1961               	.global	an_cnt
 1964               	an_cnt:
 1965 0016 0000      		.skip 2,0
 1966               	.global	an_cnt_fast
 1967               	.global	an_cnt_fast
 1970               	an_cnt_fast:
 1971 0018 0000      		.skip 2,0
 1972               	.global	reverted
 1973               	.global	reverted
 1976               	reverted:
 1977 001a 0000 0000 		.skip 64,0
 1977      0000 0000 
 1977      0000 0000 
 1977      0000 0000 
 1977      0000 0000 
 1978               	.global	time_step
 1979               		.data
 1982               	time_step:
 1983 002d 0600      		.word	6
 1984               	.global	eventN
 1987               	eventN:
 1988 002f 6400      		.word	100
 1989               		.lcomm adc_h.1520,2
 1990               		.lcomm send8.1410,1
 1991               		.comm chan_addrs,8,1
 1992               		.comm BIG_STAT_N,1,1
 1993               		.comm x16_grad,2,1
 1994               		.comm x16_simple,2,1
 1995               		.comm x8,1,1
 1996               		.comm dT,1,1
 1997               		.comm T,1,1
 1998               		.comm VAC_cnt,1,1
 1999               		.comm c,1,1
 2000               		.comm _adc,2,1
 2001               		.comm _ctr,2,1
 2002               		.comm event_cnt,2,1
 2003               		.comm ADC_cnt,2,1
 2004               		.comm ADCH_,1,1
 2005               		.comm ADCL_,1,1
 2006               		.comm ADCH__,1,1
 2007               		.comm ADCL__,1,1
 2152               	.Letext0:
DEFINED SYMBOLS
                            *ABS*:00000000 main.c
C:\Users\DrPepper\AppData\Local\Temp/ccoqtG6k.s:2      *ABS*:0000003f __SREG__
C:\Users\DrPepper\AppData\Local\Temp/ccoqtG6k.s:3      *ABS*:0000003e __SP_H__
C:\Users\DrPepper\AppData\Local\Temp/ccoqtG6k.s:4      *ABS*:0000003d __SP_L__
C:\Users\DrPepper\AppData\Local\Temp/ccoqtG6k.s:5      *ABS*:00000034 __CCP__
C:\Users\DrPepper\AppData\Local\Temp/ccoqtG6k.s:6      *ABS*:00000000 __tmp_reg__
C:\Users\DrPepper\AppData\Local\Temp/ccoqtG6k.s:7      *ABS*:00000001 __zero_reg__
C:\Users\DrPepper\AppData\Local\Temp/ccoqtG6k.s:18     .text:00000000 set_pin
C:\Users\DrPepper\AppData\Local\Temp/ccoqtG6k.s:58     .text:00000036 reset_pin
C:\Users\DrPepper\AppData\Local\Temp/ccoqtG6k.s:99     .text:0000006e gatherMult
C:\Users\DrPepper\AppData\Local\Temp/ccoqtG6k.s:1814   .data:0000001b sep2_pin
C:\Users\DrPepper\AppData\Local\Temp/ccoqtG6k.s:1820   .data:0000001e sep3_pin
C:\Users\DrPepper\AppData\Local\Temp/ccoqtG6k.s:1808   .data:00000018 sep1_pin
C:\Users\DrPepper\AppData\Local\Temp/ccoqtG6k.s:1826   .data:00000021 sep4_pin
C:\Users\DrPepper\AppData\Local\Temp/ccoqtG6k.s:1832   .data:00000024 resister_pin
C:\Users\DrPepper\AppData\Local\Temp/ccoqtG6k.s:212    .text:00000116 usualMult
C:\Users\DrPepper\AppData\Local\Temp/ccoqtG6k.s:321    .text:000001b6 set_reverser
C:\Users\DrPepper\AppData\Local\Temp/ccoqtG6k.s:334    .text:000001b8 ADC_Init
C:\Users\DrPepper\AppData\Local\Temp/ccoqtG6k.s:358    .text:000001ce timer_init
C:\Users\DrPepper\AppData\Local\Temp/ccoqtG6k.s:383    .text:000001e6 uart_init
C:\Users\DrPepper\AppData\Local\Temp/ccoqtG6k.s:408    .text:000001fc SPI_MasterInit
C:\Users\DrPepper\AppData\Local\Temp/ccoqtG6k.s:427    .text:00000208 SPI_WriteByte
C:\Users\DrPepper\AppData\Local\Temp/ccoqtG6k.s:447    .text:00000212 prepareResetDAC
C:\Users\DrPepper\AppData\Local\Temp/ccoqtG6k.s:1788   .data:00000000 SYNC_PINS
                            *COM*:00000008 chan_addrs
C:\Users\DrPepper\AppData\Local\Temp/ccoqtG6k.s:545    .text:000002a6 prepareSetDAC
C:\Users\DrPepper\AppData\Local\Temp/ccoqtG6k.s:1989   .bss:0000005c send8.1410
C:\Users\DrPepper\AppData\Local\Temp/ccoqtG6k.s:665    .text:00000354 setDAC
C:\Users\DrPepper\AppData\Local\Temp/ccoqtG6k.s:681    .text:0000035a main
C:\Users\DrPepper\AppData\Local\Temp/ccoqtG6k.s:1851   .data:00000028 STAT_CYCLE
C:\Users\DrPepper\AppData\Local\Temp/ccoqtG6k.s:1846   .data:00000027 STAT_N
                            *COM*:00000001 BIG_STAT_N
C:\Users\DrPepper\AppData\Local\Temp/ccoqtG6k.s:814    .text:00000406 __vector_9
C:\Users\DrPepper\AppData\Local\Temp/ccoqtG6k.s:1958   .bss:00000015 mode_active
                            *COM*:00000002 _ctr
C:\Users\DrPepper\AppData\Local\Temp/ccoqtG6k.s:1982   .data:0000002d time_step
C:\Users\DrPepper\AppData\Local\Temp/ccoqtG6k.s:1840   .bss:00000000 MD
                            *COM*:00000002 event_cnt
C:\Users\DrPepper\AppData\Local\Temp/ccoqtG6k.s:1882   .bss:00000009 x16
                            *COM*:00000001 ADCH_
                            *COM*:00000001 T
                            *COM*:00000001 x8
                            *COM*:00000001 ADCL_
                            *COM*:00000001 ADCL__
                            *COM*:00000001 ADCH__
C:\Users\DrPepper\AppData\Local\Temp/ccoqtG6k.s:1858   .bss:00000001 voltage16
C:\Users\DrPepper\AppData\Local\Temp/ccoqtG6k.s:1864   .bss:00000003 voltage16_h
C:\Users\DrPepper\AppData\Local\Temp/ccoqtG6k.s:1921   .data:0000002c pos_phase
C:\Users\DrPepper\AppData\Local\Temp/ccoqtG6k.s:1888   .bss:0000000b ref16
C:\Users\DrPepper\AppData\Local\Temp/ccoqtG6k.s:1952   .bss:00000014 chan
C:\Users\DrPepper\AppData\Local\Temp/ccoqtG6k.s:1946   .bss:00000013 PROGRAM_done
                            *COM*:00000002 _adc
                             .bss:0000005a adc_h.1520
C:\Users\DrPepper\AppData\Local\Temp/ccoqtG6k.s:1906   .data:00000029 t1
C:\Users\DrPepper\AppData\Local\Temp/ccoqtG6k.s:1876   .bss:00000007 proging_val
C:\Users\DrPepper\AppData\Local\Temp/ccoqtG6k.s:1911   .data:0000002a t2
C:\Users\DrPepper\AppData\Local\Temp/ccoqtG6k.s:1894   .bss:0000000d reset16
C:\Users\DrPepper\AppData\Local\Temp/ccoqtG6k.s:1547   .text:0000093a __vector_18
C:\Users\DrPepper\AppData\Local\Temp/ccoqtG6k.s:1940   .bss:00000012 ptr
C:\Users\DrPepper\AppData\Local\Temp/ccoqtG6k.s:1900   .bss:0000000f sync
                            *COM*:00000002 x16_simple
                            *COM*:00000001 dT
C:\Users\DrPepper\AppData\Local\Temp/ccoqtG6k.s:1976   .bss:0000001a reverted
C:\Users\DrPepper\AppData\Local\Temp/ccoqtG6k.s:1916   .data:0000002b dTt2
C:\Users\DrPepper\AppData\Local\Temp/ccoqtG6k.s:1870   .bss:00000005 voltage16_hh
C:\Users\DrPepper\AppData\Local\Temp/ccoqtG6k.s:1928   .bss:00000010 STAT_dt_step
C:\Users\DrPepper\AppData\Local\Temp/ccoqtG6k.s:1934   .bss:00000011 STAT_V_step
C:\Users\DrPepper\AppData\Local\Temp/ccoqtG6k.s:1964   .bss:00000016 an_cnt
C:\Users\DrPepper\AppData\Local\Temp/ccoqtG6k.s:1970   .bss:00000018 an_cnt_fast
C:\Users\DrPepper\AppData\Local\Temp/ccoqtG6k.s:1987   .data:0000002f eventN
                            *COM*:00000002 x16_grad
                            *COM*:00000001 VAC_cnt
                            *COM*:00000001 c
                            *COM*:00000002 ADC_cnt

UNDEFINED SYMBOLS
__divmodqi4
__udivmodqi4
__do_copy_data
__do_clear_bss
