   1               		.file	"main.c"
   2               	__SREG__ = 0x3f
   3               	__SP_H__ = 0x3e
   4               	__SP_L__ = 0x3d
   5               	__CCP__  = 0x34
   6               	__tmp_reg__ = 0
   7               	__zero_reg__ = 1
  15               	.Ltext0:
  16               	.global	ADC_Init
  18               	ADC_Init:
  19               	.LFB6:
  20               	.LM1:
  21               	/* prologue: function */
  22               	/* frame size = 0 */
  23               	.LM2:
  24 0000 EAE7      		ldi r30,lo8(122)
  25 0002 F0E0      		ldi r31,hi8(122)
  26 0004 8081      		ld r24,Z
  27 0006 8368      		ori r24,lo8(-125)
  28 0008 8083      		st Z,r24
  29               	.LM3:
  30 000a ECE7      		ldi r30,lo8(124)
  31 000c F0E0      		ldi r31,hi8(124)
  32 000e 8081      		ld r24,Z
  33 0010 8064      		ori r24,lo8(64)
  34 0012 8083      		st Z,r24
  35               	/* epilogue start */
  36               	.LM4:
  37 0014 0895      		ret
  38               	.LFE6:
  40               	.global	timer_init
  42               	timer_init:
  43               	.LFB7:
  44               	.LM5:
  45               	/* prologue: function */
  46               	/* frame size = 0 */
  47               	.LM6:
  48 0016 1092 B000 		sts 176,__zero_reg__
  49               	.LM7:
  50 001a E1EB      		ldi r30,lo8(177)
  51 001c F0E0      		ldi r31,hi8(177)
  52 001e 1082      		st Z,__zero_reg__
  53               	.LM8:
  54 0020 8081      		ld r24,Z
  55 0022 8260      		ori r24,lo8(2)
  56 0024 8083      		st Z,r24
  57               	.LM9:
  58 0026 81E0      		ldi r24,lo8(1)
  59 0028 8093 7000 		sts 112,r24
  60               	/* epilogue start */
  61               	.LM10:
  62 002c 0895      		ret
  63               	.LFE7:
  65               	.global	uart_init
  67               	uart_init:
  68               	.LFB8:
  69               	.LM11:
  70               	.LVL0:
  71               	/* prologue: function */
  72               	/* frame size = 0 */
  73               	.LM12:
  74 002e 9093 C500 		sts 197,r25
  75               	.LVL1:
  76               	.LM13:
  77 0032 8093 C400 		sts 196,r24
  78               	.LM14:
  79 0036 88E9      		ldi r24,lo8(-104)
  80               	.LVL2:
  81 0038 8093 C100 		sts 193,r24
  82               	.LM15:
  83 003c 8EE0      		ldi r24,lo8(14)
  84 003e 8093 C200 		sts 194,r24
  85               	/* epilogue start */
  86               	.LM16:
  87 0042 0895      		ret
  88               	.LFE8:
  90               	.global	SPI_MasterInit
  92               	SPI_MasterInit:
  93               	.LFB9:
  94               	.LM17:
  95               	/* prologue: function */
  96               	/* frame size = 0 */
  97               	.LM18:
  98 0044 8CE2      		ldi r24,lo8(44)
  99 0046 84B9      		out 36-32,r24
 100               	.LM19:
 101 0048 88E5      		ldi r24,lo8(88)
 102 004a 8CBD      		out 76-32,r24
 103               	/* epilogue start */
 104               	.LM20:
 105 004c 0895      		ret
 106               	.LFE9:
 108               	.global	gatherMult
 110               	gatherMult:
 111               	.LFB12:
 112               	.LM21:
 113               	/* prologue: function */
 114               	/* frame size = 0 */
 115               	.LM22:
 116 004e 5E98      		cbi 43-32,6
 117               	.LM23:
 118 0050 5F98      		cbi 43-32,7
 119               	.LM24:
 120 0052 5D98      		cbi 43-32,5
 121               	.LM25:
 122 0054 4498      		cbi 40-32,4
 123               	.LM26:
 124 0056 419A      		sbi 40-32,1
 125               	.LM27:
 126 0058 2A9A      		sbi 37-32,2
 127               	.LM28:
 128 005a 299A      		sbi 37-32,1
 129               	.LM29:
 130 005c 289A      		sbi 37-32,0
 131               	/* epilogue start */
 132               	.LM30:
 133 005e 0895      		ret
 134               	.LFE12:
 136               	.global	separMult
 138               	separMult:
 139               	.LFB13:
 140               	.LM31:
 141               	/* prologue: function */
 142               	/* frame size = 0 */
 143               	.LM32:
 144 0060 2998      		cbi 37-32,1
 145               	.LM33:
 146 0062 2A98      		cbi 37-32,2
 147               	.LM34:
 148 0064 4198      		cbi 40-32,1
 149               	.LM35:
 150 0066 449A      		sbi 40-32,4
 151               	.LM36:
 152 0068 5E9A      		sbi 43-32,6
 153               	.LM37:
 154 006a 5F9A      		sbi 43-32,7
 155               	.LM38:
 156 006c 289A      		sbi 37-32,0
 157               	.LM39:
 158 006e 5D9A      		sbi 43-32,5
 159               	/* epilogue start */
 160               	.LM40:
 161 0070 0895      		ret
 162               	.LFE13:
 164               	.global	SPI_WriteByte
 166               	SPI_WriteByte:
 167               	.LFB14:
 168               	.LM41:
 169               	.LVL3:
 170               	/* prologue: function */
 171               	/* frame size = 0 */
 172               	.LM42:
 173 0072 8EBD      		out 78-32,r24
 174               	.L14:
 175               	.LM43:
 176 0074 0DB4      		in __tmp_reg__,77-32
 177 0076 07FE      		sbrs __tmp_reg__,7
 178 0078 00C0      		rjmp .L14
 179               	/* epilogue start */
 180               	.LM44:
 181 007a 0895      		ret
 182               	.LFE14:
 184               	.global	prepareResetDAC
 186               	prepareResetDAC:
 187               	.LFB11:
 188               	.LM45:
 189               	.LVL4:
 190               	/* prologue: function */
 191               	/* frame size = 0 */
 192               	.LM46:
 193 007c 5B98      		cbi 43-32,3
 194               	.LM47:
 195 007e E82F      		mov r30,r24
 196 0080 FF27      		clr r31
 197 0082 E7FD      		sbrc r30,7
 198 0084 F095      		com r31
 199               	.LVL5:
 200 0086 E050      		subi r30,lo8(-(chan_addrs))
 201 0088 F040      		sbci r31,hi8(-(chan_addrs))
 202               	.LVL6:
 203 008a 8081      		ld r24,Z
 204 008c 8860      		ori r24,lo8(8)
 205 008e 90E0      		ldi r25,lo8(0)
 206 0090 0E94 0000 		call SPI_WriteByte
 207               	.LVL7:
 208               	.LM48:
 209 0094 80E0      		ldi r24,lo8(0)
 210 0096 90E0      		ldi r25,hi8(0)
 211 0098 0E94 0000 		call SPI_WriteByte
 212               	.LM49:
 213 009c 5B9A      		sbi 43-32,3
 214               	/* epilogue start */
 215               	.LM50:
 216 009e 0895      		ret
 217               	.LFE11:
 219               	.global	prepareSetDAC
 221               	prepareSetDAC:
 222               	.LFB10:
 223               	.LM51:
 224               	.LVL8:
 225 00a0 0F93      		push r16
 226 00a2 1F93      		push r17
 227               	/* prologue: function */
 228               	/* frame size = 0 */
 229 00a4 E62F      		mov r30,r22
 230               	.LM52:
 231 00a6 0027      		clr r16
 232 00a8 1127      		clr r17
 233 00aa 081B      		sub r16,r24
 234 00ac 190B      		sbc r17,r25
 235               	.LVL9:
 236               	.LM53:
 237 00ae 0050      		subi r16,lo8(-(2048))
 238 00b0 184F      		sbci r17,hi8(-(2048))
 239               	.LM54:
 240 00b2 5B98      		cbi 43-32,3
 241               	.LM55:
 242 00b4 812F      		mov r24,r17
 243 00b6 9927      		clr r25
 244 00b8 87FD      		sbrc r24,7
 245 00ba 9A95      		dec r25
 246 00bc 8F70      		andi r24,lo8(15)
 247 00be FF27      		clr r31
 248 00c0 E7FD      		sbrc r30,7
 249 00c2 F095      		com r31
 250               	.LVL10:
 251 00c4 E050      		subi r30,lo8(-(chan_addrs))
 252 00c6 F040      		sbci r31,hi8(-(chan_addrs))
 253               	.LVL11:
 254 00c8 2081      		ld r18,Z
 255 00ca 822B      		or r24,r18
 256 00cc 8093 0000 		sts send8,r24
 257               	.LM56:
 258 00d0 90E0      		ldi r25,lo8(0)
 259 00d2 0E94 0000 		call SPI_WriteByte
 260               	.LVL12:
 261               	.LM57:
 262 00d6 0093 0000 		sts send8,r16
 263               	.LM58:
 264 00da 802F      		mov r24,r16
 265 00dc 90E0      		ldi r25,lo8(0)
 266 00de 0E94 0000 		call SPI_WriteByte
 267               	.LM59:
 268 00e2 5B9A      		sbi 43-32,3
 269               	/* epilogue start */
 270               	.LM60:
 271 00e4 1F91      		pop r17
 272 00e6 0F91      		pop r16
 273               	.LVL13:
 274 00e8 0895      		ret
 275               	.LFE10:
 277               	.global	set_reverser
 279               	set_reverser:
 280               	.LFB15:
 281               	.LM61:
 282               	.LVL14:
 283               	/* prologue: function */
 284               	/* frame size = 0 */
 285               	/* epilogue start */
 286               	.LM62:
 287 00ea 0895      		ret
 288               	.LFE15:
 290               	.global	setDAC
 292               	setDAC:
 293               	.LFB16:
 294               	.LM63:
 295               	/* prologue: function */
 296               	/* frame size = 0 */
 297               	.LM64:
 298 00ec 5A98      		cbi 43-32,2
 299               	.LM65:
 300 00ee 5A9A      		sbi 43-32,2
 301               	/* epilogue start */
 302               	.LM66:
 303 00f0 0895      		ret
 304               	.LFE16:
 306               	.global	main
 308               	main:
 309               	.LFB17:
 310               	.LM67:
 311 00f2 1F93      		push r17
 312               	/* prologue: function */
 313               	/* frame size = 0 */
 314               	.LM68:
 315 00f4 8091 0000 		lds r24,STAT_CYCLE
 316 00f8 9091 0000 		lds r25,STAT_N
 317 00fc 899F      		mul r24,r25
 318 00fe 802D      		mov r24,r0
 319 0100 1124      		clr r1
 320 0102 8093 0000 		sts BIG_STAT_N,r24
 321 0106 E0E0      		ldi r30,lo8(chan_addrs)
 322 0108 F0E0      		ldi r31,hi8(chan_addrs)
 323               	.L26:
 324               	.LBB70:
 325               	.LM69:
 326 010a 8081      		ld r24,Z
 327 010c 8295      		swap r24
 328 010e 807F      		andi r24,lo8(-16)
 329 0110 8193      		st Z+,r24
 330               	.LM70:
 331 0112 80E0      		ldi r24,hi8(chan_addrs+8)
 332 0114 E030      		cpi r30,lo8(chan_addrs+8)
 333 0116 F807      		cpc r31,r24
 334 0118 01F4      		brne .L26
 335               	.LBE70:
 336               	.LM71:
 337 011a 88B1      		in r24,40-32
 338 011c 88B9      		out 40-32,r24
 339               	.LM72:
 340 011e 8EE1      		ldi r24,lo8(30)
 341 0120 87B9      		out 39-32,r24
 342               	.LM73:
 343 0122 8EEF      		ldi r24,lo8(-2)
 344 0124 8AB9      		out 42-32,r24
 345               	.LM74:
 346 0126 8FE1      		ldi r24,lo8(31)
 347 0128 84B9      		out 36-32,r24
 348               	.LM75:
 349               	/* #APP */
 350               	 ;  278 "main.c" 1
 351 012a 7894      		sei
 352               	 ;  0 "" 2
 353               	/* #NOAPP */
 354               	.LBB71:
 355               	.LBB72:
 356               	.LM76:
 357 012c 8CE2      		ldi r24,lo8(44)
 358 012e 84B9      		out 36-32,r24
 359               	.LM77:
 360 0130 88E5      		ldi r24,lo8(88)
 361 0132 8CBD      		out 76-32,r24
 362               	.LBE72:
 363               	.LBE71:
 364               	.LBB73:
 365               	.LBB74:
 366               	.LM78:
 367 0134 1092 B000 		sts 176,__zero_reg__
 368               	.LM79:
 369 0138 1092 B100 		sts 177,__zero_reg__
 370               	.LM80:
 371 013c 8091 B100 		lds r24,177
 372 0140 8260      		ori r24,lo8(2)
 373 0142 8093 B100 		sts 177,r24
 374               	.LM81:
 375 0146 81E0      		ldi r24,lo8(1)
 376 0148 8093 7000 		sts 112,r24
 377               	.LBE74:
 378               	.LBE73:
 379               	.LBB75:
 380               	.LBB76:
 381               	.LM82:
 382 014c 1092 C500 		sts 197,__zero_reg__
 383               	.LM83:
 384 0150 83E3      		ldi r24,lo8(51)
 385 0152 8093 C400 		sts 196,r24
 386               	.LM84:
 387 0156 88E9      		ldi r24,lo8(-104)
 388 0158 8093 C100 		sts 193,r24
 389               	.LM85:
 390 015c 8EE0      		ldi r24,lo8(14)
 391 015e 8093 C200 		sts 194,r24
 392               	.LBE76:
 393               	.LBE75:
 394               	.LBB77:
 395               	.LBB78:
 396               	.LM86:
 397 0162 8091 7A00 		lds r24,122
 398 0166 8368      		ori r24,lo8(-125)
 399 0168 8093 7A00 		sts 122,r24
 400               	.LM87:
 401 016c 8091 7C00 		lds r24,124
 402 0170 8064      		ori r24,lo8(64)
 403 0172 8093 7C00 		sts 124,r24
 404               	.LBE78:
 405               	.LBE77:
 406               	.LM88:
 407 0176 8091 7A00 		lds r24,122
 408 017a 8064      		ori r24,lo8(64)
 409 017c 8093 7A00 		sts 122,r24
 410               	.LM89:
 411 0180 8091 7800 		lds r24,120
 412               	.LM90:
 413 0184 8091 7800 		lds r24,120
 414 0188 10E0      		ldi r17,lo8(0)
 415               	.L27:
 416               	.LBB79:
 417               	.LM91:
 418 018a 80E0      		ldi r24,lo8(0)
 419 018c 90E0      		ldi r25,hi8(0)
 420 018e 612F      		mov r22,r17
 421 0190 0E94 0000 		call prepareSetDAC
 422 0194 1F5F      		subi r17,lo8(-(1))
 423               	.LM92:
 424 0196 1830      		cpi r17,lo8(8)
 425 0198 01F4      		brne .L27
 426               	.LBE79:
 427               	.LBB80:
 428               	.LBB81:
 429               	.LM93:
 430 019a 5A98      		cbi 43-32,2
 431               	.LM94:
 432 019c 5A9A      		sbi 43-32,2
 433               	.LBE81:
 434               	.LBE80:
 435               	.LM95:
 436 019e 0E94 0000 		call separMult
 437               	.L28:
 438 01a2 00C0      		rjmp .L28
 439               	.LFE17:
 441               	.global	__vector_9
 443               	__vector_9:
 444               	.LFB18:
 445               	.LM96:
 446 01a4 1F92      		push __zero_reg__
 447 01a6 0F92      		push r0
 448 01a8 0FB6      		in r0,__SREG__
 449 01aa 0F92      		push r0
 450 01ac 1124      		clr __zero_reg__
 451 01ae 2F93      		push r18
 452 01b0 3F93      		push r19
 453 01b2 4F93      		push r20
 454 01b4 5F93      		push r21
 455 01b6 6F93      		push r22
 456 01b8 7F93      		push r23
 457 01ba 8F93      		push r24
 458 01bc 9F93      		push r25
 459 01be AF93      		push r26
 460 01c0 BF93      		push r27
 461 01c2 EF93      		push r30
 462 01c4 FF93      		push r31
 463               	/* prologue: Signal */
 464               	/* frame size = 0 */
 465               	.LM97:
 466 01c6 2091 0000 		lds r18,ctr
 467 01ca 3091 0000 		lds r19,(ctr)+1
 468 01ce 8091 0000 		lds r24,time_step
 469 01d2 9091 0000 		lds r25,(time_step)+1
 470 01d6 8217      		cp r24,r18
 471 01d8 9307      		cpc r25,r19
 472 01da 04F0      		brlt .+2
 473 01dc 00C0      		rjmp .L33
 474               	.LM98:
 475 01de 6091 0000 		lds r22,MD
 476 01e2 6623      		tst r22
 477 01e4 01F0      		breq .+2
 478 01e6 00C0      		rjmp .L34
 479               	.LM99:
 480 01e8 2091 0000 		lds r18,event_cnt
 481 01ec 3091 0000 		lds r19,(event_cnt)+1
 482 01f0 2130      		cpi r18,1
 483 01f2 3105      		cpc r19,__zero_reg__
 484 01f4 01F4      		brne .L35
 485               	.LM100:
 486 01f6 9091 7800 		lds r25,120
 487 01fa 9093 0000 		sts ADCL_,r25
 488               	.LM101:
 489 01fe 8091 7900 		lds r24,121
 490 0202 8093 0000 		sts ADCH_,r24
 491               	.LM102:
 492 0206 9093 C600 		sts 198,r25
 493 020a 00C0      		rjmp .L36
 494               	.L35:
 495               	.LM103:
 496 020c 2230      		cpi r18,2
 497 020e 3105      		cpc r19,__zero_reg__
 498 0210 01F4      		brne .L37
 499               	.LM104:
 500 0212 8091 0000 		lds r24,ADCH_
 501 0216 8093 C600 		sts 198,r24
 502 021a 00C0      		rjmp .L36
 503               	.L37:
 504               	.LM105:
 505 021c 2115      		cp r18,__zero_reg__
 506 021e 3105      		cpc r19,__zero_reg__
 507 0220 01F4      		brne .L36
 508               	.LM106:
 509 0222 8FEF      		ldi r24,lo8(-1)
 510 0224 00C0      		rjmp .L116
 511               	.L36:
 512               	.LM107:
 513 0226 8091 0000 		lds r24,t1
 514 022a 90E0      		ldi r25,lo8(0)
 515 022c 2817      		cp r18,r24
 516 022e 3907      		cpc r19,r25
 517 0230 01F4      		brne .+2
 518 0232 00C0      		rjmp .L38
 519               	.LM108:
 520 0234 8091 0000 		lds r24,dT
 521 0238 90E0      		ldi r25,lo8(0)
 522 023a 2817      		cp r18,r24
 523 023c 3907      		cpc r19,r25
 524 023e 01F4      		brne .+2
 525 0240 00C0      		rjmp .L38
 526               	.LM109:
 527 0242 0196      		adiw r24,1
 528 0244 2817      		cp r18,r24
 529 0246 3907      		cpc r19,r25
 530 0248 01F4      		brne .+2
 531 024a 00C0      		rjmp .L109
 532               	.L39:
 533               	.LM110:
 534 024c 8091 0000 		lds r24,dTt2
 535 0250 90E0      		ldi r25,lo8(0)
 536 0252 2817      		cp r18,r24
 537 0254 3907      		cpc r19,r25
 538 0256 01F0      		breq .+2
 539 0258 00C0      		rjmp .L38
 540               	.LM111:
 541 025a 8091 C000 		lds r24,192
 542 025e 85FF      		sbrs r24,5
 543 0260 00C0      		rjmp .L40
 544               	.LM112:
 545 0262 8091 0000 		lds r24,_adc
 546 0266 8093 C600 		sts 198,r24
 547               	.L40:
 548               	.LM113:
 549 026a 1092 0000 		sts (accum)+1,__zero_reg__
 550 026e 1092 0000 		sts accum,__zero_reg__
 551               	.LM114:
 552 0272 1092 0000 		sts ADC_on,__zero_reg__
 553               	.LM115:
 554 0276 1092 0000 		sts accum_cnt,__zero_reg__
 555 027a 00C0      		rjmp .L38
 556               	.L34:
 557               	.LM116:
 558 027c 6130      		cpi r22,lo8(1)
 559 027e 01F0      		breq .+2
 560 0280 00C0      		rjmp .L41
 561               	.LBB82:
 562               	.LM117:
 563 0282 8091 0000 		lds r24,i.1506
 564 0286 9091 0000 		lds r25,(i.1506)+1
 565 028a 0196      		adiw r24,1
 566 028c 9093 0000 		sts (i.1506)+1,r25
 567 0290 8093 0000 		sts i.1506,r24
 568               	.LM118:
 569 0294 8091 0000 		lds r24,UDP_cnt
 570 0298 8230      		cpi r24,lo8(2)
 571 029a 01F0      		breq .L45
 572 029c 8330      		cpi r24,lo8(3)
 573 029e 00F4      		brsh .L48
 574 02a0 8823      		tst r24
 575 02a2 01F0      		breq .L43
 576 02a4 8130      		cpi r24,lo8(1)
 577 02a6 01F0      		breq .+2
 578 02a8 00C0      		rjmp .L42
 579 02aa 00C0      		rjmp .L117
 580               	.L48:
 581 02ac 8330      		cpi r24,lo8(3)
 582 02ae 01F0      		breq .L46
 583 02b0 8430      		cpi r24,lo8(4)
 584 02b2 01F0      		breq .+2
 585 02b4 00C0      		rjmp .L42
 586 02b6 00C0      		rjmp .L47
 587               	.L43:
 588               	.LM119:
 589 02b8 8091 7A00 		lds r24,122
 590 02bc 8064      		ori r24,lo8(64)
 591 02be 8093 7A00 		sts 122,r24
 592               	.LM120:
 593 02c2 8FEF      		ldi r24,lo8(-1)
 594 02c4 00C0      		rjmp .L102
 595               	.L117:
 596               	.LM121:
 597 02c6 8091 0000 		lds r24,ADCL_
 598 02ca 8093 0000 		sts ADCL__,r24
 599               	.LM122:
 600 02ce 8091 0000 		lds r24,ADCH_
 601 02d2 8093 0000 		sts ADCH__,r24
 602               	.LM123:
 603 02d6 9091 7800 		lds r25,120
 604 02da 9093 0000 		sts ADCL_,r25
 605               	.LM124:
 606 02de 8091 7900 		lds r24,121
 607 02e2 8093 0000 		sts ADCH_,r24
 608               	.LM125:
 609 02e6 9093 C600 		sts 198,r25
 610 02ea 00C0      		rjmp .L42
 611               	.L45:
 612               	.LM126:
 613 02ec 8091 0000 		lds r24,ADCH_
 614               	.L102:
 615 02f0 8093 C600 		sts 198,r24
 616 02f4 00C0      		rjmp .L42
 617               	.L46:
 618               	.LM127:
 619 02f6 2091 0000 		lds r18,VAC16
 620 02fa 3091 0000 		lds r19,(VAC16)+1
 621 02fe 3093 0000 		sts (VAC16_H)+1,r19
 622 0302 2093 0000 		sts VAC16_H,r18
 623               	.LM128:
 624 0306 8091 0000 		lds r24,pos_phase
 625 030a 8823      		tst r24
 626 030c 01F0      		breq .L49
 627               	.LM129:
 628 030e 205E      		subi r18,lo8(-(32))
 629 0310 3F4F      		sbci r19,hi8(-(32))
 630 0312 3093 0000 		sts (VAC16)+1,r19
 631 0316 2093 0000 		sts VAC16,r18
 632               	.LM130:
 633 031a 8091 0000 		lds r24,ref16
 634 031e 9091 0000 		lds r25,(ref16)+1
 635 0322 2817      		cp r18,r24
 636 0324 3907      		cpc r19,r25
 637 0326 04F0      		brlt .L50
 638               	.LM131:
 639 0328 1092 0000 		sts pos_phase,__zero_reg__
 640 032c 00C0      		rjmp .L50
 641               	.L49:
 642               	.LM132:
 643 032e C901      		movw r24,r18
 644 0330 8097      		sbiw r24,32
 645 0332 9093 0000 		sts (VAC16)+1,r25
 646 0336 8093 0000 		sts VAC16,r24
 647               	.LM133:
 648 033a 21E0      		ldi r18,lo8(1)
 649 033c 30E0      		ldi r19,hi8(1)
 650 033e 4091 0000 		lds r20,x16
 651 0342 5091 0000 		lds r21,(x16)+1
 652 0346 241B      		sub r18,r20
 653 0348 350B      		sbc r19,r21
 654 034a 8217      		cp r24,r18
 655 034c 9307      		cpc r25,r19
 656 034e 04F4      		brge .L50
 657               	.LM134:
 658 0350 6093 0000 		sts pos_phase,r22
 659               	.L50:
 660               	.LM135:
 661 0354 8091 0000 		lds r24,VAC16
 662 0358 9091 0000 		lds r25,(VAC16)+1
 663 035c 9C01      		movw r18,r24
 664 035e B4E0      		ldi r27,4
 665 0360 3595      	1:	asr r19
 666 0362 2795      		ror r18
 667 0364 BA95      		dec r27
 668 0366 01F4      		brne 1b
 669 0368 2093 C600 		sts 198,r18
 670               	.LM136:
 671 036c 6091 0000 		lds r22,chan
 672 0370 0E94 0000 		call prepareSetDAC
 673               	.LBB83:
 674               	.LBB84:
 675               	.LM137:
 676 0374 5A98      		cbi 43-32,2
 677               	.LM138:
 678 0376 5A9A      		sbi 43-32,2
 679               	.L47:
 680               	.LBE84:
 681               	.LBE83:
 682               	.LM139:
 683 0378 1092 C600 		sts 198,__zero_reg__
 684               	.L42:
 685               	.LM140:
 686 037c 8091 0000 		lds r24,UDP_cnt
 687 0380 8F5F      		subi r24,lo8(-(1))
 688 0382 65E0      		ldi r22,lo8(5)
 689 0384 0E94 0000 		call __udivmodqi4
 690 0388 9093 0000 		sts UDP_cnt,r25
 691 038c 00C0      		rjmp .L38
 692               	.L41:
 693               	.LBE82:
 694               	.LM141:
 695 038e 6230      		cpi r22,lo8(2)
 696 0390 01F0      		breq .+2
 697 0392 00C0      		rjmp .L51
 698               	.LBB85:
 699               	.LM142:
 700 0394 80E1      		ldi r24,lo8(16)
 701 0396 8093 0000 		sts T,r24
 702               	.LM143:
 703 039a 4091 0000 		lds r20,event_cnt
 704 039e 5091 0000 		lds r21,(event_cnt)+1
 705 03a2 4130      		cpi r20,1
 706 03a4 5105      		cpc r21,__zero_reg__
 707 03a6 01F4      		brne .L52
 708               	.LM144:
 709 03a8 8091 0000 		lds r24,PROGRAM_done
 710 03ac 8093 C600 		sts 198,r24
 711 03b0 00C0      		rjmp .L53
 712               	.L52:
 713               	.LM145:
 714 03b2 4230      		cpi r20,2
 715 03b4 5105      		cpc r21,__zero_reg__
 716 03b6 01F4      		brne .L54
 717               	.LM146:
 718 03b8 9091 7800 		lds r25,120
 719 03bc 9093 0000 		sts ADCL_,r25
 720               	.LM147:
 721 03c0 8091 7900 		lds r24,121
 722 03c4 8093 0000 		sts ADCH_,r24
 723               	.LM148:
 724 03c8 9093 C600 		sts 198,r25
 725 03cc 00C0      		rjmp .L55
 726               	.L54:
 727               	.LM149:
 728 03ce 4330      		cpi r20,3
 729 03d0 5105      		cpc r21,__zero_reg__
 730 03d2 01F4      		brne .L56
 731               	.LM150:
 732 03d4 8091 0000 		lds r24,ADCH_
 733 03d8 8093 C600 		sts 198,r24
 734               	.LM151:
 735 03dc 382F      		mov r19,r24
 736 03de 20E0      		ldi r18,lo8(0)
 737 03e0 8091 0000 		lds r24,ADCL_
 738 03e4 90E0      		ldi r25,lo8(0)
 739 03e6 822B      		or r24,r18
 740 03e8 932B      		or r25,r19
 741 03ea 9093 0000 		sts (_adc)+1,r25
 742 03ee 8093 0000 		sts _adc,r24
 743               	.LM152:
 744 03f2 20E0      		ldi r18,lo8(512)
 745 03f4 32E0      		ldi r19,hi8(512)
 746 03f6 281B      		sub r18,r24
 747 03f8 390B      		sbc r19,r25
 748 03fa 3093 0000 		sts (adc_h.1513)+1,r19
 749 03fe 2093 0000 		sts adc_h.1513,r18
 750               	.LM153:
 751 0402 8091 0000 		lds r24,t1
 752 0406 90E0      		ldi r25,lo8(0)
 753 0408 2817      		cp r18,r24
 754 040a 3907      		cpc r19,r25
 755 040c 01F0      		breq .+2
 756 040e 00C0      		rjmp .L53
 757               	.LM154:
 758 0410 81E0      		ldi r24,lo8(1)
 759 0412 8093 0000 		sts PROGRAM_done,r24
 760               	.LM155:
 761 0416 1092 0000 		sts (prog_val)+1,__zero_reg__
 762 041a 1092 0000 		sts prog_val,__zero_reg__
 763 041e 00C0      		rjmp .L57
 764               	.L56:
 765               	.LM156:
 766 0420 4115      		cp r20,__zero_reg__
 767 0422 5105      		cpc r21,__zero_reg__
 768 0424 01F4      		brne .L53
 769               	.LM157:
 770 0426 8FEF      		ldi r24,lo8(-1)
 771 0428 8093 C600 		sts 198,r24
 772               	.LM158:
 773 042c 2091 0000 		lds r18,prog_val
 774 0430 3091 0000 		lds r19,(prog_val)+1
 775 0434 205E      		subi r18,lo8(-(32))
 776 0436 3F4F      		sbci r19,hi8(-(32))
 777 0438 3093 0000 		sts (prog_val)+1,r19
 778 043c 2093 0000 		sts prog_val,r18
 779               	.LM159:
 780 0440 4091 0000 		lds r20,x16
 781 0444 5091 0000 		lds r21,(x16)+1
 782 0448 80E2      		ldi r24,lo8(32)
 783 044a 90E0      		ldi r25,hi8(32)
 784 044c 841B      		sub r24,r20
 785 044e 950B      		sbc r25,r21
 786 0450 2817      		cp r18,r24
 787 0452 3907      		cpc r19,r25
 788 0454 01F4      		brne .L58
 789               	.LM160:
 790 0456 1092 0000 		sts (prog_val)+1,__zero_reg__
 791 045a 1092 0000 		sts prog_val,__zero_reg__
 792 045e 00C0      		rjmp .L59
 793               	.L58:
 794               	.LM161:
 795 0460 8091 0000 		lds r24,t2
 796 0464 90E0      		ldi r25,lo8(0)
 797 0466 A4E0      		ldi r26,4
 798 0468 880F      	1:	lsl r24
 799 046a 991F      		rol r25
 800 046c AA95      		dec r26
 801 046e 01F4      		brne 1b
 802 0470 8217      		cp r24,r18
 803 0472 9307      		cpc r25,r19
 804 0474 04F4      		brge .L59
 805               	.LM162:
 806 0476 8827      		clr r24
 807 0478 9927      		clr r25
 808 047a 841B      		sub r24,r20
 809 047c 950B      		sbc r25,r21
 810 047e 9093 0000 		sts (prog_val)+1,r25
 811 0482 8093 0000 		sts prog_val,r24
 812               	.L59:
 813               	.LM163:
 814 0486 8091 0000 		lds r24,PROGRAM_done
 815 048a 8823      		tst r24
 816 048c 01F0      		breq .L60
 817               	.LM164:
 818 048e 1092 0000 		sts (prog_val)+1,__zero_reg__
 819 0492 1092 0000 		sts prog_val,__zero_reg__
 820               	.L60:
 821               	.LM165:
 822 0496 8091 0000 		lds r24,prog_val
 823 049a 9091 0000 		lds r25,(prog_val)+1
 824 049e 00C0      		rjmp .L110
 825               	.L53:
 826               	.LM166:
 827 04a0 4730      		cpi r20,7
 828 04a2 5105      		cpc r21,__zero_reg__
 829 04a4 01F4      		brne .+2
 830 04a6 00C0      		rjmp .L113
 831               	.L55:
 832               	.LM167:
 833 04a8 4930      		cpi r20,9
 834 04aa 5105      		cpc r21,__zero_reg__
 835 04ac 01F4      		brne .L57
 836               	.LM168:
 837 04ae 8091 0000 		lds r24,ref16
 838 04b2 9091 0000 		lds r25,(ref16)+1
 839 04b6 00C0      		rjmp .L110
 840               	.L57:
 841               	.LM169:
 842 04b8 4A30      		cpi r20,10
 843 04ba 5105      		cpc r21,__zero_reg__
 844 04bc 01F4      		brne .+2
 845 04be 00C0      		rjmp .L109
 846               	.L61:
 847               	.LM170:
 848 04c0 4E30      		cpi r20,14
 849 04c2 5105      		cpc r21,__zero_reg__
 850 04c4 01F0      		breq .+2
 851 04c6 00C0      		rjmp .L38
 852               	.LM171:
 853 04c8 1092 0000 		sts (accum)+1,__zero_reg__
 854 04cc 1092 0000 		sts accum,__zero_reg__
 855               	.LM172:
 856 04d0 1092 0000 		sts ADC_on,__zero_reg__
 857               	.LM173:
 858 04d4 1092 0000 		sts accum_cnt,__zero_reg__
 859 04d8 00C0      		rjmp .L113
 860               	.L51:
 861               	.LBE85:
 862               	.LM174:
 863 04da 6530      		cpi r22,lo8(5)
 864 04dc 01F0      		breq .+2
 865 04de 00C0      		rjmp .L62
 866               	.LM175:
 867 04e0 8091 0000 		lds r24,event_cnt
 868 04e4 9091 0000 		lds r25,(event_cnt)+1
 869 04e8 8130      		cpi r24,1
 870 04ea 9105      		cpc r25,__zero_reg__
 871 04ec 01F0      		breq .L105
 872               	.L63:
 873               	.LM176:
 874 04ee 8230      		cpi r24,2
 875 04f0 9105      		cpc r25,__zero_reg__
 876 04f2 01F4      		brne .L64
 877               	.LM177:
 878 04f4 8091 0000 		lds r24,reset16
 879 04f8 9091 0000 		lds r25,(reset16)+1
 880 04fc 63E0      		ldi r22,lo8(3)
 881 04fe 0E94 0000 		call prepareSetDAC
 882               	.LM178:
 883 0502 8091 0000 		lds r24,reset16
 884 0506 9091 0000 		lds r25,(reset16)+1
 885 050a 00C0      		rjmp .L111
 886               	.L64:
 887               	.LM179:
 888 050c 8330      		cpi r24,3
 889 050e 9105      		cpc r25,__zero_reg__
 890 0510 01F4      		brne .L65
 891               	.LM180:
 892 0512 80E0      		ldi r24,lo8(0)
 893 0514 90E0      		ldi r25,hi8(0)
 894 0516 63E0      		ldi r22,lo8(3)
 895 0518 0E94 0000 		call prepareSetDAC
 896 051c 00C0      		rjmp .L115
 897               	.L65:
 898               	.LM181:
 899 051e 8430      		cpi r24,4
 900 0520 9105      		cpc r25,__zero_reg__
 901 0522 01F4      		brne .L66
 902               	.LM182:
 903 0524 0E94 0000 		call gatherMult
 904 0528 00C0      		rjmp .L38
 905               	.L66:
 906               	.LM183:
 907 052a 8530      		cpi r24,5
 908 052c 9105      		cpc r25,__zero_reg__
 909 052e 01F4      		brne .L67
 910               	.LM184:
 911 0530 8091 0000 		lds r24,x16
 912 0534 9091 0000 		lds r25,(x16)+1
 913 0538 00C0      		rjmp .L112
 914               	.L67:
 915               	.LM185:
 916 053a 8630      		cpi r24,6
 917 053c 9105      		cpc r25,__zero_reg__
 918 053e 01F0      		breq .L114
 919               	.L68:
 920               	.LM186:
 921 0540 8730      		cpi r24,7
 922 0542 9105      		cpc r25,__zero_reg__
 923 0544 01F4      		brne .L69
 924               	.LM187:
 925 0546 8FEF      		ldi r24,lo8(-1)
 926 0548 8093 C600 		sts 198,r24
 927               	.L105:
 928               	.LM188:
 929 054c 0E94 0000 		call separMult
 930 0550 00C0      		rjmp .L38
 931               	.L69:
 932               	.LM189:
 933 0552 8830      		cpi r24,8
 934 0554 9105      		cpc r25,__zero_reg__
 935 0556 01F4      		brne .L70
 936               	.LM190:
 937 0558 8091 0000 		lds r24,ref16
 938 055c 9091 0000 		lds r25,(ref16)+1
 939 0560 63E0      		ldi r22,lo8(3)
 940 0562 00C0      		rjmp .L107
 941               	.L70:
 942               	.LM191:
 943 0564 8930      		cpi r24,9
 944 0566 9105      		cpc r25,__zero_reg__
 945 0568 01F4      		brne .+2
 946 056a 00C0      		rjmp .L108
 947               	.L71:
 948               	.LM192:
 949 056c 8A30      		cpi r24,10
 950 056e 9105      		cpc r25,__zero_reg__
 951 0570 01F4      		brne .L72
 952               	.LM193:
 953 0572 8091 0000 		lds r24,ADCH_
 954 0576 8093 C600 		sts 198,r24
 955               	.L114:
 956               	.LM194:
 957 057a 80E0      		ldi r24,lo8(0)
 958 057c 90E0      		ldi r25,hi8(0)
 959               	.L112:
 960 057e 63E0      		ldi r22,lo8(3)
 961 0580 00C0      		rjmp .L104
 962               	.L72:
 963               	.LM195:
 964 0582 8B30      		cpi r24,11
 965 0584 9105      		cpc r25,__zero_reg__
 966 0586 01F4      		brne .L73
 967               	.LM196:
 968 0588 8091 0000 		lds r24,ref16
 969 058c 9091 0000 		lds r25,(ref16)+1
 970 0590 62E0      		ldi r22,lo8(2)
 971 0592 00C0      		rjmp .L107
 972               	.L73:
 973               	.LM197:
 974 0594 8C30      		cpi r24,12
 975 0596 9105      		cpc r25,__zero_reg__
 976 0598 01F4      		brne .+2
 977 059a 00C0      		rjmp .L108
 978               	.L74:
 979               	.LM198:
 980 059c 0D97      		sbiw r24,13
 981 059e 01F0      		breq .+2
 982 05a0 00C0      		rjmp .L38
 983               	.LM199:
 984 05a2 8091 0000 		lds r24,ADCH_
 985 05a6 8093 C600 		sts 198,r24
 986               	.L115:
 987               	.LM200:
 988 05aa 80E0      		ldi r24,lo8(0)
 989 05ac 90E0      		ldi r25,hi8(0)
 990               	.L111:
 991 05ae 62E0      		ldi r22,lo8(2)
 992               	.L104:
 993 05b0 0E94 0000 		call prepareSetDAC
 994               	.LBB86:
 995               	.LBB87:
 996               	.LM201:
 997 05b4 5A98      		cbi 43-32,2
 998               	.LM202:
 999 05b6 5A9A      		sbi 43-32,2
 1000 05b8 00C0      		rjmp .L38
 1001               	.L62:
 1002               	.LBE87:
 1003               	.LBE86:
 1004               	.LM203:
 1005 05ba 6630      		cpi r22,lo8(6)
 1006 05bc 01F0      		breq .+2
 1007 05be 00C0      		rjmp .L38
 1008               	.LM204:
 1009 05c0 8091 0000 		lds r24,event_cnt
 1010 05c4 9091 0000 		lds r25,(event_cnt)+1
 1011 05c8 0097      		sbiw r24,0
 1012 05ca 01F4      		brne .L75
 1013               	.LM205:
 1014 05cc 8091 0000 		lds r24,reset16
 1015 05d0 9091 0000 		lds r25,(reset16)+1
 1016 05d4 6091 0000 		lds r22,chan
 1017 05d8 0E94 0000 		call prepareSetDAC
 1018               	.LBB88:
 1019               	.LBB89:
 1020               	.LM206:
 1021 05dc 5A98      		cbi 43-32,2
 1022               	.LM207:
 1023 05de 5A9A      		sbi 43-32,2
 1024               	.LBE89:
 1025               	.LBE88:
 1026               	.LM208:
 1027 05e0 8FEF      		ldi r24,lo8(-1)
 1028 05e2 00C0      		rjmp .L106
 1029               	.L75:
 1030               	.LM209:
 1031 05e4 8130      		cpi r24,1
 1032 05e6 9105      		cpc r25,__zero_reg__
 1033 05e8 01F4      		brne .L76
 1034               	.L113:
 1035               	.LM210:
 1036 05ea 80E0      		ldi r24,lo8(0)
 1037 05ec 90E0      		ldi r25,hi8(0)
 1038               	.L110:
 1039 05ee 6091 0000 		lds r22,chan
 1040 05f2 00C0      		rjmp .L104
 1041               	.L76:
 1042               	.LM211:
 1043 05f4 8330      		cpi r24,3
 1044 05f6 9105      		cpc r25,__zero_reg__
 1045 05f8 01F0      		breq .+2
 1046 05fa 00C0      		rjmp .L77
 1047               	.LM212:
 1048 05fc 4091 0000 		lds r20,an_cnt
 1049 0600 5091 0000 		lds r21,(an_cnt)+1
 1050 0604 2091 0000 		lds r18,BIG_STAT_N
 1051 0608 822F      		mov r24,r18
 1052 060a 90E0      		ldi r25,lo8(0)
 1053 060c 4817      		cp r20,r24
 1054 060e 5907      		cpc r21,r25
 1055 0610 00F4      		brsh .L78
 1056               	.LM213:
 1057 0612 1092 0000 		sts STAT_V_step,__zero_reg__
 1058 0616 00C0      		rjmp .L79
 1059               	.L78:
 1060               	.LM214:
 1061 0618 822F      		mov r24,r18
 1062 061a 90E0      		ldi r25,lo8(0)
 1063 061c 9C01      		movw r18,r24
 1064 061e 220F      		lsl r18
 1065 0620 331F      		rol r19
 1066 0622 4217      		cp r20,r18
 1067 0624 5307      		cpc r21,r19
 1068 0626 00F4      		brsh .L80
 1069               	.LM215:
 1070 0628 81E0      		ldi r24,lo8(1)
 1071 062a 00C0      		rjmp .L103
 1072               	.L80:
 1073               	.LM216:
 1074 062c 280F      		add r18,r24
 1075 062e 391F      		adc r19,r25
 1076 0630 4217      		cp r20,r18
 1077 0632 5307      		cpc r21,r19
 1078 0634 00F4      		brsh .L81
 1079               	.LM217:
 1080 0636 82E0      		ldi r24,lo8(2)
 1081 0638 00C0      		rjmp .L103
 1082               	.L81:
 1083               	.LM218:
 1084 063a 9C01      		movw r18,r24
 1085 063c 220F      		lsl r18
 1086 063e 331F      		rol r19
 1087 0640 220F      		lsl r18
 1088 0642 331F      		rol r19
 1089 0644 4217      		cp r20,r18
 1090 0646 5307      		cpc r21,r19
 1091 0648 00F4      		brsh .L82
 1092               	.LM219:
 1093 064a 83E0      		ldi r24,lo8(3)
 1094 064c 00C0      		rjmp .L103
 1095               	.L82:
 1096               	.LM220:
 1097 064e 280F      		add r18,r24
 1098 0650 391F      		adc r19,r25
 1099 0652 4217      		cp r20,r18
 1100 0654 5307      		cpc r21,r19
 1101 0656 00F4      		brsh .L79
 1102               	.LM221:
 1103 0658 84E0      		ldi r24,lo8(4)
 1104               	.L103:
 1105 065a 8093 0000 		sts STAT_V_step,r24
 1106               	.L79:
 1107               	.LM222:
 1108 065e 8091 0000 		lds r24,STAT_V_step
 1109 0662 8093 C600 		sts 198,r24
 1110               	.LM223:
 1111 0666 90E0      		ldi r25,lo8(0)
 1112 0668 8095      		com r24
 1113 066a 9095      		com r25
 1114 066c 9695      		lsr r25
 1115 066e 982F      		mov r25,r24
 1116 0670 8827      		clr r24
 1117 0672 9795      		ror r25
 1118 0674 8795      		ror r24
 1119 0676 9093 0000 		sts (x16_grad)+1,r25
 1120 067a 8093 0000 		sts x16_grad,r24
 1121               	.LM224:
 1122 067e 6091 0000 		lds r22,chan
 1123 0682 0E94 0000 		call prepareSetDAC
 1124               	.LBB90:
 1125               	.LBB91:
 1126               	.LM225:
 1127 0686 5A98      		cbi 43-32,2
 1128               	.LM226:
 1129 0688 5A9A      		sbi 43-32,2
 1130               	.LBE91:
 1131               	.LBE90:
 1132               	.LM227:
 1133 068a 4091 0000 		lds r20,an_cnt_fast
 1134 068e 5091 0000 		lds r21,(an_cnt_fast)+1
 1135 0692 8091 0000 		lds r24,STAT_N
 1136 0696 90E0      		ldi r25,lo8(0)
 1137 0698 4817      		cp r20,r24
 1138 069a 5907      		cpc r21,r25
 1139 069c 00F4      		brsh .L83
 1140               	.LM228:
 1141 069e 1092 0000 		sts STAT_dt_step,__zero_reg__
 1142 06a2 00C0      		rjmp .L84
 1143               	.L83:
 1144               	.LM229:
 1145 06a4 9C01      		movw r18,r24
 1146 06a6 220F      		lsl r18
 1147 06a8 331F      		rol r19
 1148 06aa 4217      		cp r20,r18
 1149 06ac 5307      		cpc r21,r19
 1150 06ae 00F4      		brsh .L85
 1151               	.LM230:
 1152 06b0 81E0      		ldi r24,lo8(1)
 1153 06b2 8093 0000 		sts STAT_dt_step,r24
 1154 06b6 80E0      		ldi r24,lo8(0)
 1155 06b8 90E0      		ldi r25,hi8(0)
 1156               	.LVL15:
 1157               	.L86:
 1158               	.LBB92:
 1159               	.LBB93:
 1160               	.LBB94:
 1161               	.LM231:
 1162 06ba 5A98      		cbi 43-32,2
 1163               	.LM232:
 1164 06bc 5A9A      		sbi 43-32,2
 1165               	.LBE94:
 1166               	.LBE93:
 1167               	.LM233:
 1168 06be 0196      		adiw r24,1
 1169 06c0 8832      		cpi r24,40
 1170 06c2 9105      		cpc r25,__zero_reg__
 1171 06c4 01F4      		brne .L86
 1172 06c6 00C0      		rjmp .L84
 1173               	.LVL16:
 1174               	.L85:
 1175               	.LBE92:
 1176               	.LM234:
 1177 06c8 280F      		add r18,r24
 1178 06ca 391F      		adc r19,r25
 1179 06cc 4217      		cp r20,r18
 1180 06ce 5307      		cpc r21,r19
 1181 06d0 00F4      		brsh .L87
 1182               	.LM235:
 1183 06d2 82E0      		ldi r24,lo8(2)
 1184 06d4 8093 0000 		sts STAT_dt_step,r24
 1185 06d8 80E0      		ldi r24,lo8(0)
 1186 06da 90E0      		ldi r25,hi8(0)
 1187               	.LVL17:
 1188               	.L88:
 1189               	.LBB95:
 1190               	.LBB96:
 1191               	.LBB97:
 1192               	.LM236:
 1193 06dc 5A98      		cbi 43-32,2
 1194               	.LM237:
 1195 06de 5A9A      		sbi 43-32,2
 1196               	.LBE97:
 1197               	.LBE96:
 1198               	.LM238:
 1199 06e0 0196      		adiw r24,1
 1200 06e2 803A      		cpi r24,160
 1201 06e4 9105      		cpc r25,__zero_reg__
 1202 06e6 01F4      		brne .L88
 1203 06e8 00C0      		rjmp .L84
 1204               	.LVL18:
 1205               	.L87:
 1206               	.LBE95:
 1207               	.LM239:
 1208 06ea 880F      		lsl r24
 1209 06ec 991F      		rol r25
 1210 06ee 880F      		lsl r24
 1211 06f0 991F      		rol r25
 1212 06f2 4817      		cp r20,r24
 1213 06f4 5907      		cpc r21,r25
 1214 06f6 00F4      		brsh .L89
 1215               	.LM240:
 1216 06f8 83E0      		ldi r24,lo8(3)
 1217 06fa 8093 0000 		sts STAT_dt_step,r24
 1218 06fe 80E0      		ldi r24,lo8(0)
 1219 0700 90E0      		ldi r25,hi8(0)
 1220               	.LVL19:
 1221               	.L90:
 1222               	.LBB98:
 1223               	.LBB99:
 1224               	.LBB100:
 1225               	.LM241:
 1226 0702 5A98      		cbi 43-32,2
 1227               	.LM242:
 1228 0704 5A9A      		sbi 43-32,2
 1229               	.LBE100:
 1230               	.LBE99:
 1231               	.LM243:
 1232 0706 0196      		adiw r24,1
 1233 0708 22E0      		ldi r18,hi8(640)
 1234 070a 8038      		cpi r24,lo8(640)
 1235 070c 9207      		cpc r25,r18
 1236 070e 01F4      		brne .L90
 1237 0710 00C0      		rjmp .L84
 1238               	.LVL20:
 1239               	.L89:
 1240               	.LBE98:
 1241               	.LM244:
 1242 0712 8091 0000 		lds r24,BIG_STAT_N
 1243 0716 90E0      		ldi r25,lo8(0)
 1244 0718 4817      		cp r20,r24
 1245 071a 5907      		cpc r21,r25
 1246 071c 00F4      		brsh .L84
 1247               	.LM245:
 1248 071e 84E0      		ldi r24,lo8(4)
 1249 0720 8093 0000 		sts STAT_dt_step,r24
 1250 0724 80E0      		ldi r24,lo8(0)
 1251 0726 90E0      		ldi r25,hi8(0)
 1252               	.LVL21:
 1253               	.L91:
 1254               	.LBB101:
 1255               	.LBB102:
 1256               	.LBB103:
 1257               	.LM246:
 1258 0728 5A98      		cbi 43-32,2
 1259               	.LM247:
 1260 072a 5A9A      		sbi 43-32,2
 1261               	.LBE103:
 1262               	.LBE102:
 1263               	.LM248:
 1264 072c 0196      		adiw r24,1
 1265 072e 2AE0      		ldi r18,hi8(2560)
 1266 0730 8030      		cpi r24,lo8(2560)
 1267 0732 9207      		cpc r25,r18
 1268 0734 01F4      		brne .L91
 1269               	.LVL22:
 1270               	.L84:
 1271               	.LBE101:
 1272               	.LM249:
 1273 0736 8091 0000 		lds r24,chan
 1274               	.LVL23:
 1275 073a 0E94 0000 		call prepareResetDAC
 1276               	.LBB104:
 1277               	.LBB105:
 1278               	.LM250:
 1279 073e 5A98      		cbi 43-32,2
 1280               	.LM251:
 1281 0740 5A9A      		sbi 43-32,2
 1282               	.LBE105:
 1283               	.LBE104:
 1284               	.LM252:
 1285 0742 8091 0000 		lds r24,an_cnt
 1286 0746 9091 0000 		lds r25,(an_cnt)+1
 1287 074a 0196      		adiw r24,1
 1288 074c 9093 0000 		sts (an_cnt)+1,r25
 1289 0750 8093 0000 		sts an_cnt,r24
 1290               	.LM253:
 1291 0754 2091 0000 		lds r18,BIG_STAT_N
 1292 0758 45E0      		ldi r20,lo8(5)
 1293 075a 249F      		mul r18,r20
 1294 075c 9001      		movw r18,r0
 1295 075e 1124      		clr r1
 1296 0760 2817      		cp r18,r24
 1297 0762 3907      		cpc r19,r25
 1298 0764 00F4      		brsh .L92
 1299 0766 1092 0000 		sts (an_cnt)+1,__zero_reg__
 1300 076a 1092 0000 		sts an_cnt,__zero_reg__
 1301               	.L92:
 1302               	.LM254:
 1303 076e 6091 0000 		lds r22,BIG_STAT_N
 1304 0772 8091 0000 		lds r24,an_cnt
 1305 0776 9091 0000 		lds r25,(an_cnt)+1
 1306 077a 70E0      		ldi r23,lo8(0)
 1307 077c 0E94 0000 		call __udivmodhi4
 1308 0780 9093 0000 		sts (an_cnt_fast)+1,r25
 1309 0784 8093 0000 		sts an_cnt_fast,r24
 1310 0788 00C0      		rjmp .L38
 1311               	.L77:
 1312               	.LM255:
 1313 078a 8430      		cpi r24,4
 1314 078c 9105      		cpc r25,__zero_reg__
 1315 078e 01F4      		brne .L93
 1316               	.LM256:
 1317 0790 8091 0000 		lds r24,STAT_dt_step
 1318               	.L116:
 1319 0794 8093 C600 		sts 198,r24
 1320 0798 00C0      		rjmp .L113
 1321               	.L93:
 1322               	.LM257:
 1323 079a 8630      		cpi r24,6
 1324 079c 9105      		cpc r25,__zero_reg__
 1325 079e 01F4      		brne .L94
 1326               	.LM258:
 1327 07a0 8091 0000 		lds r24,ref16
 1328 07a4 9091 0000 		lds r25,(ref16)+1
 1329 07a8 6091 0000 		lds r22,chan
 1330               	.L107:
 1331 07ac 0E94 0000 		call prepareSetDAC
 1332               	.LBB106:
 1333               	.LBB107:
 1334               	.LM259:
 1335 07b0 5A98      		cbi 43-32,2
 1336               	.LM260:
 1337 07b2 5A9A      		sbi 43-32,2
 1338               	.L109:
 1339               	.LBE107:
 1340               	.LBE106:
 1341               	.LM261:
 1342 07b4 8091 7A00 		lds r24,122
 1343 07b8 8064      		ori r24,lo8(64)
 1344 07ba 8093 7A00 		sts 122,r24
 1345 07be 00C0      		rjmp .L38
 1346               	.L94:
 1347               	.LM262:
 1348 07c0 8730      		cpi r24,7
 1349 07c2 9105      		cpc r25,__zero_reg__
 1350 07c4 01F4      		brne .L95
 1351               	.LM263:
 1352 07c6 80E0      		ldi r24,lo8(0)
 1353 07c8 90E0      		ldi r25,hi8(0)
 1354 07ca 6091 0000 		lds r22,chan
 1355 07ce 0E94 0000 		call prepareSetDAC
 1356               	.LBB108:
 1357               	.LBB109:
 1358               	.LM264:
 1359 07d2 5A98      		cbi 43-32,2
 1360               	.LM265:
 1361 07d4 5A9A      		sbi 43-32,2
 1362               	.L108:
 1363               	.LBE109:
 1364               	.LBE108:
 1365               	.LM266:
 1366 07d6 9091 7800 		lds r25,120
 1367 07da 9093 0000 		sts ADCL_,r25
 1368               	.LM267:
 1369 07de 8091 7900 		lds r24,121
 1370 07e2 8093 0000 		sts ADCH_,r24
 1371               	.LM268:
 1372 07e6 9093 C600 		sts 198,r25
 1373 07ea 00C0      		rjmp .L38
 1374               	.L95:
 1375               	.LM269:
 1376 07ec 0897      		sbiw r24,8
 1377 07ee 01F4      		brne .L38
 1378               	.LM270:
 1379 07f0 8091 0000 		lds r24,ADCH_
 1380               	.L106:
 1381 07f4 8093 C600 		sts 198,r24
 1382               	.L38:
 1383               	.LM271:
 1384 07f8 1092 0000 		sts (ctr)+1,__zero_reg__
 1385 07fc 1092 0000 		sts ctr,__zero_reg__
 1386               	.LM272:
 1387 0800 8091 0000 		lds r24,MD
 1388 0804 2091 0000 		lds r18,event_cnt
 1389 0808 3091 0000 		lds r19,(event_cnt)+1
 1390 080c 8530      		cpi r24,lo8(5)
 1391 080e 01F0      		breq .L96
 1392               	.LM273:
 1393 0810 2F5F      		subi r18,lo8(-(1))
 1394 0812 3F4F      		sbci r19,hi8(-(1))
 1395 0814 3093 0000 		sts (event_cnt)+1,r19
 1396 0818 2093 0000 		sts event_cnt,r18
 1397               	.LM274:
 1398 081c 8091 0000 		lds r24,T
 1399 0820 90E0      		ldi r25,lo8(0)
 1400 0822 8217      		cp r24,r18
 1401 0824 9307      		cpc r25,r19
 1402 0826 04F4      		brge .L33
 1403               	.LM275:
 1404 0828 1092 0000 		sts (event_cnt)+1,__zero_reg__
 1405 082c 1092 0000 		sts event_cnt,__zero_reg__
 1406 0830 00C0      		rjmp .L33
 1407               	.L96:
 1408               	.LM276:
 1409 0832 2031      		cpi r18,16
 1410 0834 3105      		cpc r19,__zero_reg__
 1411 0836 04F4      		brge .L33
 1412               	.LM277:
 1413 0838 2F5F      		subi r18,lo8(-(1))
 1414 083a 3F4F      		sbci r19,hi8(-(1))
 1415 083c 3093 0000 		sts (event_cnt)+1,r19
 1416 0840 2093 0000 		sts event_cnt,r18
 1417               	.L33:
 1418               	.LM278:
 1419 0844 8091 0000 		lds r24,ctr
 1420 0848 9091 0000 		lds r25,(ctr)+1
 1421 084c 0196      		adiw r24,1
 1422 084e 9093 0000 		sts (ctr)+1,r25
 1423 0852 8093 0000 		sts ctr,r24
 1424               	/* epilogue start */
 1425               	.LM279:
 1426 0856 FF91      		pop r31
 1427 0858 EF91      		pop r30
 1428 085a BF91      		pop r27
 1429 085c AF91      		pop r26
 1430 085e 9F91      		pop r25
 1431 0860 8F91      		pop r24
 1432 0862 7F91      		pop r23
 1433 0864 6F91      		pop r22
 1434 0866 5F91      		pop r21
 1435 0868 4F91      		pop r20
 1436 086a 3F91      		pop r19
 1437 086c 2F91      		pop r18
 1438 086e 0F90      		pop r0
 1439 0870 0FBE      		out __SREG__,r0
 1440 0872 0F90      		pop r0
 1441 0874 1F90      		pop __zero_reg__
 1442 0876 1895      		reti
 1443               	.LFE18:
 1445               	.global	__vector_18
 1447               	__vector_18:
 1448               	.LFB19:
 1449               	.LM280:
 1450 0878 1F92      		push __zero_reg__
 1451 087a 0F92      		push r0
 1452 087c 0FB6      		in r0,__SREG__
 1453 087e 0F92      		push r0
 1454 0880 1124      		clr __zero_reg__
 1455 0882 2F93      		push r18
 1456 0884 3F93      		push r19
 1457 0886 4F93      		push r20
 1458 0888 5F93      		push r21
 1459 088a 6F93      		push r22
 1460 088c 7F93      		push r23
 1461 088e 8F93      		push r24
 1462 0890 9F93      		push r25
 1463 0892 AF93      		push r26
 1464 0894 BF93      		push r27
 1465 0896 EF93      		push r30
 1466 0898 FF93      		push r31
 1467               	/* prologue: Signal */
 1468               	/* frame size = 0 */
 1469               	.LM281:
 1470 089a 8091 0000 		lds r24,ptr
 1471 089e 8430      		cpi r24,lo8(4)
 1472 08a0 01F4      		brne .+2
 1473 08a2 00C0      		rjmp .L124
 1474 08a4 8530      		cpi r24,lo8(5)
 1475 08a6 00F4      		brsh .L130
 1476 08a8 8130      		cpi r24,lo8(1)
 1477 08aa 01F0      		breq .L121
 1478 08ac 8130      		cpi r24,lo8(1)
 1479 08ae 00F0      		brlo .L120
 1480 08b0 8230      		cpi r24,lo8(2)
 1481 08b2 01F4      		brne .+2
 1482 08b4 00C0      		rjmp .L122
 1483 08b6 8330      		cpi r24,lo8(3)
 1484 08b8 01F0      		breq .+2
 1485 08ba 00C0      		rjmp .L119
 1486 08bc 00C0      		rjmp .L137
 1487               	.L130:
 1488 08be 8730      		cpi r24,lo8(7)
 1489 08c0 01F4      		brne .+2
 1490 08c2 00C0      		rjmp .L127
 1491 08c4 8830      		cpi r24,lo8(8)
 1492 08c6 00F4      		brsh .L131
 1493 08c8 8530      		cpi r24,lo8(5)
 1494 08ca 01F4      		brne .+2
 1495 08cc 00C0      		rjmp .L125
 1496 08ce 8630      		cpi r24,lo8(6)
 1497 08d0 01F0      		breq .+2
 1498 08d2 00C0      		rjmp .L119
 1499 08d4 00C0      		rjmp .L138
 1500               	.L131:
 1501 08d6 8830      		cpi r24,lo8(8)
 1502 08d8 01F4      		brne .+2
 1503 08da 00C0      		rjmp .L128
 1504 08dc 8930      		cpi r24,lo8(9)
 1505 08de 01F0      		breq .+2
 1506 08e0 00C0      		rjmp .L119
 1507 08e2 00C0      		rjmp .L139
 1508               	.L120:
 1509               	.LM282:
 1510 08e4 8091 C600 		lds r24,198
 1511 08e8 8F3F      		cpi r24,lo8(-1)
 1512 08ea 01F0      		breq .L132
 1513               	.LM283:
 1514 08ec 1092 0000 		sts sync,__zero_reg__
 1515               	.LM284:
 1516 08f0 83E0      		ldi r24,lo8(3)
 1517 08f2 8093 0000 		sts ptr,r24
 1518 08f6 00C0      		rjmp .L119
 1519               	.L132:
 1520               	.LM285:
 1521 08f8 81E0      		ldi r24,lo8(1)
 1522 08fa 8093 0000 		sts sync,r24
 1523 08fe 00C0      		rjmp .L119
 1524               	.L121:
 1525               	.LM286:
 1526 0900 2091 C600 		lds r18,198
 1527 0904 2093 0000 		sts MD,r18
 1528               	.LM287:
 1529 0908 2130      		cpi r18,lo8(1)
 1530 090a 01F4      		brne .L133
 1531               	.LM288:
 1532 090c 84E0      		ldi r24,lo8(4)
 1533 090e 90E0      		ldi r25,hi8(4)
 1534 0910 9093 0000 		sts (time_step)+1,r25
 1535 0914 8093 0000 		sts time_step,r24
 1536 0918 00C0      		rjmp .L119
 1537               	.L133:
 1538               	.LM289:
 1539 091a 86E0      		ldi r24,lo8(6)
 1540 091c 90E0      		ldi r25,hi8(6)
 1541 091e 9093 0000 		sts (time_step)+1,r25
 1542 0922 8093 0000 		sts time_step,r24
 1543               	.LM290:
 1544 0926 2230      		cpi r18,lo8(2)
 1545 0928 01F0      		breq .+2
 1546 092a 00C0      		rjmp .L119
 1547               	.LM291:
 1548 092c 1092 0000 		sts PROGRAM_done,__zero_reg__
 1549               	.LM292:
 1550 0930 1092 0000 		sts (prog_val)+1,__zero_reg__
 1551 0934 1092 0000 		sts prog_val,__zero_reg__
 1552 0938 00C0      		rjmp .L119
 1553               	.L122:
 1554               	.LM293:
 1555 093a 8091 C600 		lds r24,198
 1556 093e 90E0      		ldi r25,lo8(0)
 1557 0940 9093 0000 		sts (x16_simple)+1,r25
 1558 0944 8093 0000 		sts x16_simple,r24
 1559               	.LM294:
 1560 0948 44E0      		ldi r20,4
 1561 094a 880F      	1:	lsl r24
 1562 094c 991F      		rol r25
 1563 094e 4A95      		dec r20
 1564 0950 01F4      		brne 1b
 1565 0952 9093 0000 		sts (x16)+1,r25
 1566 0956 8093 0000 		sts x16,r24
 1567 095a 00C0      		rjmp .L119
 1568               	.L137:
 1569               	.LM295:
 1570 095c 8091 C600 		lds r24,198
 1571 0960 90E0      		ldi r25,lo8(0)
 1572 0962 34E0      		ldi r19,4
 1573 0964 880F      	1:	lsl r24
 1574 0966 991F      		rol r25
 1575 0968 3A95      		dec r19
 1576 096a 01F4      		brne 1b
 1577 096c 9093 0000 		sts (ref16)+1,r25
 1578 0970 8093 0000 		sts ref16,r24
 1579 0974 00C0      		rjmp .L119
 1580               	.L124:
 1581               	.LM296:
 1582 0976 8091 0000 		lds r24,MD
 1583 097a 8230      		cpi r24,lo8(2)
 1584 097c 01F4      		brne .L134
 1585               	.LM297:
 1586 097e 8091 C600 		lds r24,198
 1587 0982 8093 0000 		sts t1,r24
 1588 0986 00C0      		rjmp .L119
 1589               	.L134:
 1590               	.LM298:
 1591 0988 8091 C600 		lds r24,198
 1592 098c 90E0      		ldi r25,lo8(0)
 1593 098e 24E0      		ldi r18,4
 1594 0990 880F      	1:	lsl r24
 1595 0992 991F      		rol r25
 1596 0994 2A95      		dec r18
 1597 0996 01F4      		brne 1b
 1598 0998 9093 0000 		sts (reset16)+1,r25
 1599 099c 8093 0000 		sts reset16,r24
 1600 09a0 00C0      		rjmp .L119
 1601               	.L125:
 1602               	.LM299:
 1603 09a2 8091 C600 		lds r24,198
 1604 09a6 8093 0000 		sts t2,r24
 1605 09aa 00C0      		rjmp .L119
 1606               	.L138:
 1607               	.LM300:
 1608 09ac 8091 C600 		lds r24,198
 1609 09b0 8093 0000 		sts dT,r24
 1610 09b4 00C0      		rjmp .L119
 1611               	.L127:
 1612               	.LM301:
 1613 09b6 8091 C600 		lds r24,198
 1614 09ba 8093 0000 		sts T,r24
 1615 09be 00C0      		rjmp .L119
 1616               	.L128:
 1617               	.LM302:
 1618 09c0 8091 C600 		lds r24,198
 1619 09c4 8093 0000 		sts chan,r24
 1620 09c8 00C0      		rjmp .L119
 1621               	.L139:
 1622               	.LM303:
 1623 09ca 8091 C600 		lds r24,198
 1624 09ce E091 0000 		lds r30,chan
 1625 09d2 F0E0      		ldi r31,lo8(0)
 1626 09d4 E050      		subi r30,lo8(-(reverted))
 1627 09d6 F040      		sbci r31,hi8(-(reverted))
 1628 09d8 8083      		st Z,r24
 1629               	.LM304:
 1630 09da 1092 0000 		sts (event_cnt)+1,__zero_reg__
 1631 09de 1092 0000 		sts event_cnt,__zero_reg__
 1632               	.LM305:
 1633 09e2 8091 0000 		lds r24,MD
 1634 09e6 8330      		cpi r24,lo8(3)
 1635 09e8 01F4      		brne .L135
 1636               	.LM306:
 1637 09ea 0E94 0000 		call gatherMult
 1638 09ee 00C0      		rjmp .L119
 1639               	.L135:
 1640               	.LM307:
 1641 09f0 8430      		cpi r24,lo8(4)
 1642 09f2 01F4      		brne .L119
 1643               	.LM308:
 1644 09f4 0E94 0000 		call separMult
 1645               	.L119:
 1646               	.LM309:
 1647 09f8 8091 0000 		lds r24,t2
 1648 09fc 9091 0000 		lds r25,dT
 1649 0a00 890F      		add r24,r25
 1650 0a02 8093 0000 		sts dTt2,r24
 1651               	.LM310:
 1652 0a06 8091 0000 		lds r24,ptr
 1653 0a0a 8F5F      		subi r24,lo8(-(1))
 1654 0a0c 6AE0      		ldi r22,lo8(10)
 1655 0a0e 0E94 0000 		call __udivmodqi4
 1656 0a12 9093 0000 		sts ptr,r25
 1657               	/* epilogue start */
 1658               	.LM311:
 1659 0a16 FF91      		pop r31
 1660 0a18 EF91      		pop r30
 1661 0a1a BF91      		pop r27
 1662 0a1c AF91      		pop r26
 1663 0a1e 9F91      		pop r25
 1664 0a20 8F91      		pop r24
 1665 0a22 7F91      		pop r23
 1666 0a24 6F91      		pop r22
 1667 0a26 5F91      		pop r21
 1668 0a28 4F91      		pop r20
 1669 0a2a 3F91      		pop r19
 1670 0a2c 2F91      		pop r18
 1671 0a2e 0F90      		pop r0
 1672 0a30 0FBE      		out __SREG__,r0
 1673 0a32 0F90      		pop r0
 1674 0a34 1F90      		pop __zero_reg__
 1675 0a36 1895      		reti
 1676               	.LFE19:
 1678               	.global	MD
 1679               	.global	MD
 1680               		.section .bss
 1683               	MD:
 1684 0000 00        		.skip 1,0
 1685               	.global	STAT_N
 1686               		.data
 1689               	STAT_N:
 1690 0000 0E        		.byte	14
 1691               	.global	STAT_CYCLE
 1694               	STAT_CYCLE:
 1695 0001 05        		.byte	5
 1696               	.global	chan_addrs
 1699               	chan_addrs:
 1700 0002 00        		.byte	0
 1701 0003 01        		.byte	1
 1702 0004 02        		.byte	2
 1703 0005 03        		.byte	3
 1704 0006 07        		.byte	7
 1705 0007 06        		.byte	6
 1706 0008 05        		.byte	5
 1707 0009 04        		.byte	4
 1708               	.global	VAC16
 1709               	.global	VAC16
 1710               		.section .bss
 1713               	VAC16:
 1714 0001 0000      		.skip 2,0
 1715               	.global	VAC16_H
 1716               	.global	VAC16_H
 1719               	VAC16_H:
 1720 0003 0000      		.skip 2,0
 1721               	.global	VAC16_HH
 1722               	.global	VAC16_HH
 1725               	VAC16_HH:
 1726 0005 0000      		.skip 2,0
 1727               	.global	prog_val
 1728               	.global	prog_val
 1731               	prog_val:
 1732 0007 0000      		.skip 2,0
 1733               	.global	x16
 1734               	.global	x16
 1737               	x16:
 1738 0009 0000      		.skip 2,0
 1739               	.global	ref16
 1740               	.global	ref16
 1743               	ref16:
 1744 000b 0000      		.skip 2,0
 1745               	.global	reset16
 1746               	.global	reset16
 1749               	reset16:
 1750 000d 0000      		.skip 2,0
 1751               	.global	sync
 1752               	.global	sync
 1755               	sync:
 1756 000f 00        		.skip 1,0
 1757               	.global	t1
 1758               		.data
 1761               	t1:
 1762 000a 02        		.byte	2
 1763               	.global	t2
 1766               	t2:
 1767 000b 02        		.byte	2
 1768               	.global	dTt2
 1771               	dTt2:
 1772 000c 0A        		.byte	10
 1773               	.global	pos_phase
 1776               	pos_phase:
 1777 000d 01        		.byte	1
 1778               	.global	STAT_dt_step
 1779               	.global	STAT_dt_step
 1780               		.section .bss
 1783               	STAT_dt_step:
 1784 0010 00        		.skip 1,0
 1785               	.global	STAT_V_step
 1786               	.global	STAT_V_step
 1789               	STAT_V_step:
 1790 0011 00        		.skip 1,0
 1791               	.global	ptr
 1792               	.global	ptr
 1795               	ptr:
 1796 0012 00        		.skip 1,0
 1797               	.global	PROGRAM_done
 1798               	.global	PROGRAM_done
 1801               	PROGRAM_done:
 1802 0013 00        		.skip 1,0
 1803               	.global	chan
 1804               	.global	chan
 1807               	chan:
 1808 0014 00        		.skip 1,0
 1809               	.global	an_cnt
 1810               	.global	an_cnt
 1813               	an_cnt:
 1814 0015 0000      		.skip 2,0
 1815               	.global	an_cnt_fast
 1816               	.global	an_cnt_fast
 1819               	an_cnt_fast:
 1820 0017 0000      		.skip 2,0
 1821               	.global	reverted
 1822               	.global	reverted
 1825               	reverted:
 1826 0019 0000 0000 		.skip 8,0
 1826      0000 0000 
 1827               	.global	time_step
 1828               		.data
 1831               	time_step:
 1832 000e 0600      		.word	6
 1833               	.global	eventN
 1836               	eventN:
 1837 0010 6400      		.word	100
 1838               		.lcomm adc_h.1513,2
 1839               		.lcomm i.1506,2
 1840               		.comm BIG_STAT_N,1,1
 1841               		.comm x16_grad,2,1
 1842               		.comm x16_simple,2,1
 1843               		.comm dT,1,1
 1844               		.comm T,1,1
 1845               		.comm send8,1,1
 1846               		.comm UDP_cnt,1,1
 1847               		.comm c,1,1
 1848               		.comm ADC_on,1,1
 1849               		.comm _adc,2,1
 1850               		.comm ctr,2,1
 1851               		.comm accum,2,1
 1852               		.comm event_cnt,2,1
 1853               		.comm ADC_cnt,2,1
 1854               		.comm ADCH_,1,1
 1855               		.comm ADCL_,1,1
 1856               		.comm ADCH__,1,1
 1857               		.comm ADCL__,1,1
 1858               		.comm accum_cnt,1,1
 1987               	.Letext0:
DEFINED SYMBOLS
                            *ABS*:00000000 main.c
C:\Users\DrPepper\AppData\Local\Temp/ccGbfftV.s:2      *ABS*:0000003f __SREG__
C:\Users\DrPepper\AppData\Local\Temp/ccGbfftV.s:3      *ABS*:0000003e __SP_H__
C:\Users\DrPepper\AppData\Local\Temp/ccGbfftV.s:4      *ABS*:0000003d __SP_L__
C:\Users\DrPepper\AppData\Local\Temp/ccGbfftV.s:5      *ABS*:00000034 __CCP__
C:\Users\DrPepper\AppData\Local\Temp/ccGbfftV.s:6      *ABS*:00000000 __tmp_reg__
C:\Users\DrPepper\AppData\Local\Temp/ccGbfftV.s:7      *ABS*:00000001 __zero_reg__
C:\Users\DrPepper\AppData\Local\Temp/ccGbfftV.s:18     .text:00000000 ADC_Init
C:\Users\DrPepper\AppData\Local\Temp/ccGbfftV.s:42     .text:00000016 timer_init
C:\Users\DrPepper\AppData\Local\Temp/ccGbfftV.s:67     .text:0000002e uart_init
C:\Users\DrPepper\AppData\Local\Temp/ccGbfftV.s:92     .text:00000044 SPI_MasterInit
C:\Users\DrPepper\AppData\Local\Temp/ccGbfftV.s:110    .text:0000004e gatherMult
C:\Users\DrPepper\AppData\Local\Temp/ccGbfftV.s:138    .text:00000060 separMult
C:\Users\DrPepper\AppData\Local\Temp/ccGbfftV.s:166    .text:00000072 SPI_WriteByte
C:\Users\DrPepper\AppData\Local\Temp/ccGbfftV.s:186    .text:0000007c prepareResetDAC
C:\Users\DrPepper\AppData\Local\Temp/ccGbfftV.s:1699   .data:00000002 chan_addrs
C:\Users\DrPepper\AppData\Local\Temp/ccGbfftV.s:221    .text:000000a0 prepareSetDAC
                            *COM*:00000001 send8
C:\Users\DrPepper\AppData\Local\Temp/ccGbfftV.s:279    .text:000000ea set_reverser
C:\Users\DrPepper\AppData\Local\Temp/ccGbfftV.s:292    .text:000000ec setDAC
C:\Users\DrPepper\AppData\Local\Temp/ccGbfftV.s:308    .text:000000f2 main
C:\Users\DrPepper\AppData\Local\Temp/ccGbfftV.s:1694   .data:00000001 STAT_CYCLE
C:\Users\DrPepper\AppData\Local\Temp/ccGbfftV.s:1689   .data:00000000 STAT_N
                            *COM*:00000001 BIG_STAT_N
C:\Users\DrPepper\AppData\Local\Temp/ccGbfftV.s:443    .text:000001a4 __vector_9
                            *COM*:00000002 ctr
C:\Users\DrPepper\AppData\Local\Temp/ccGbfftV.s:1831   .data:0000000e time_step
C:\Users\DrPepper\AppData\Local\Temp/ccGbfftV.s:1683   .bss:00000000 MD
                            *COM*:00000002 event_cnt
                            *COM*:00000001 ADCL_
                            *COM*:00000001 ADCH_
C:\Users\DrPepper\AppData\Local\Temp/ccGbfftV.s:1761   .data:0000000a t1
                            *COM*:00000001 dT
C:\Users\DrPepper\AppData\Local\Temp/ccGbfftV.s:1771   .data:0000000c dTt2
                            *COM*:00000002 _adc
                            *COM*:00000002 accum
                            *COM*:00000001 ADC_on
                            *COM*:00000001 accum_cnt
C:\Users\DrPepper\AppData\Local\Temp/ccGbfftV.s:1838   .bss:00000023 i.1506
                            *COM*:00000001 UDP_cnt
                            *COM*:00000001 ADCL__
                            *COM*:00000001 ADCH__
C:\Users\DrPepper\AppData\Local\Temp/ccGbfftV.s:1713   .bss:00000001 VAC16
C:\Users\DrPepper\AppData\Local\Temp/ccGbfftV.s:1719   .bss:00000003 VAC16_H
C:\Users\DrPepper\AppData\Local\Temp/ccGbfftV.s:1776   .data:0000000d pos_phase
C:\Users\DrPepper\AppData\Local\Temp/ccGbfftV.s:1743   .bss:0000000b ref16
C:\Users\DrPepper\AppData\Local\Temp/ccGbfftV.s:1737   .bss:00000009 x16
C:\Users\DrPepper\AppData\Local\Temp/ccGbfftV.s:1807   .bss:00000014 chan
                            *COM*:00000001 T
C:\Users\DrPepper\AppData\Local\Temp/ccGbfftV.s:1801   .bss:00000013 PROGRAM_done
                             .bss:00000021 adc_h.1513
C:\Users\DrPepper\AppData\Local\Temp/ccGbfftV.s:1731   .bss:00000007 prog_val
C:\Users\DrPepper\AppData\Local\Temp/ccGbfftV.s:1766   .data:0000000b t2
C:\Users\DrPepper\AppData\Local\Temp/ccGbfftV.s:1749   .bss:0000000d reset16
C:\Users\DrPepper\AppData\Local\Temp/ccGbfftV.s:1813   .bss:00000015 an_cnt
C:\Users\DrPepper\AppData\Local\Temp/ccGbfftV.s:1789   .bss:00000011 STAT_V_step
                            *COM*:00000002 x16_grad
C:\Users\DrPepper\AppData\Local\Temp/ccGbfftV.s:1819   .bss:00000017 an_cnt_fast
C:\Users\DrPepper\AppData\Local\Temp/ccGbfftV.s:1783   .bss:00000010 STAT_dt_step
C:\Users\DrPepper\AppData\Local\Temp/ccGbfftV.s:1447   .text:00000878 __vector_18
C:\Users\DrPepper\AppData\Local\Temp/ccGbfftV.s:1795   .bss:00000012 ptr
C:\Users\DrPepper\AppData\Local\Temp/ccGbfftV.s:1755   .bss:0000000f sync
                            *COM*:00000002 x16_simple
C:\Users\DrPepper\AppData\Local\Temp/ccGbfftV.s:1825   .bss:00000019 reverted
C:\Users\DrPepper\AppData\Local\Temp/ccGbfftV.s:1725   .bss:00000005 VAC16_HH
C:\Users\DrPepper\AppData\Local\Temp/ccGbfftV.s:1836   .data:00000010 eventN
                            *COM*:00000001 c
                            *COM*:00000002 ADC_cnt

UNDEFINED SYMBOLS
__udivmodqi4
__udivmodhi4
__do_copy_data
__do_clear_bss
