   1               		.file	"main.c"
   2               	__SREG__ = 0x3f
   3               	__SP_H__ = 0x3e
   4               	__SP_L__ = 0x3d
   5               	__CCP__  = 0x34
   6               	__tmp_reg__ = 0
   7               	__zero_reg__ = 1
  15               	.Ltext0:
  16               	.global	ADC_Init
  18               	ADC_Init:
  19               	.LFB6:
  20               	.LM1:
  21               	/* prologue: function */
  22               	/* frame size = 0 */
  23               	.LM2:
  24 0000 EAE7      		ldi r30,lo8(122)
  25 0002 F0E0      		ldi r31,hi8(122)
  26 0004 8081      		ld r24,Z
  27 0006 8368      		ori r24,lo8(-125)
  28 0008 8083      		st Z,r24
  29               	.LM3:
  30 000a ECE7      		ldi r30,lo8(124)
  31 000c F0E0      		ldi r31,hi8(124)
  32 000e 8081      		ld r24,Z
  33 0010 8064      		ori r24,lo8(64)
  34 0012 8083      		st Z,r24
  35               	/* epilogue start */
  36               	.LM4:
  37 0014 0895      		ret
  38               	.LFE6:
  40               	.global	timer_init
  42               	timer_init:
  43               	.LFB7:
  44               	.LM5:
  45               	/* prologue: function */
  46               	/* frame size = 0 */
  47               	.LM6:
  48 0016 1092 B000 		sts 176,__zero_reg__
  49               	.LM7:
  50 001a E1EB      		ldi r30,lo8(177)
  51 001c F0E0      		ldi r31,hi8(177)
  52 001e 1082      		st Z,__zero_reg__
  53               	.LM8:
  54 0020 8081      		ld r24,Z
  55 0022 8260      		ori r24,lo8(2)
  56 0024 8083      		st Z,r24
  57               	.LM9:
  58 0026 81E0      		ldi r24,lo8(1)
  59 0028 8093 7000 		sts 112,r24
  60               	/* epilogue start */
  61               	.LM10:
  62 002c 0895      		ret
  63               	.LFE7:
  65               	.global	uart_init
  67               	uart_init:
  68               	.LFB8:
  69               	.LM11:
  70               	.LVL0:
  71               	/* prologue: function */
  72               	/* frame size = 0 */
  73               	.LM12:
  74 002e 9093 C500 		sts 197,r25
  75               	.LVL1:
  76               	.LM13:
  77 0032 8093 C400 		sts 196,r24
  78               	.LM14:
  79 0036 88E9      		ldi r24,lo8(-104)
  80               	.LVL2:
  81 0038 8093 C100 		sts 193,r24
  82               	.LM15:
  83 003c 8EE0      		ldi r24,lo8(14)
  84 003e 8093 C200 		sts 194,r24
  85               	/* epilogue start */
  86               	.LM16:
  87 0042 0895      		ret
  88               	.LFE8:
  90               	.global	SPI_MasterInit
  92               	SPI_MasterInit:
  93               	.LFB9:
  94               	.LM17:
  95               	/* prologue: function */
  96               	/* frame size = 0 */
  97               	.LM18:
  98 0044 8CE2      		ldi r24,lo8(44)
  99 0046 84B9      		out 36-32,r24
 100               	.LM19:
 101 0048 8AE5      		ldi r24,lo8(90)
 102 004a 8CBD      		out 76-32,r24
 103               	/* epilogue start */
 104               	.LM20:
 105 004c 0895      		ret
 106               	.LFE9:
 108               	.global	SPI_WriteByte
 110               	SPI_WriteByte:
 111               	.LFB11:
 112               	.LM21:
 113               	.LVL3:
 114               	/* prologue: function */
 115               	/* frame size = 0 */
 116               	.LM22:
 117 004e 8EBD      		out 78-32,r24
 118               	.L10:
 119               	.LM23:
 120 0050 0DB4      		in __tmp_reg__,77-32
 121 0052 07FE      		sbrs __tmp_reg__,7
 122 0054 00C0      		rjmp .L10
 123               	/* epilogue start */
 124               	.LM24:
 125 0056 0895      		ret
 126               	.LFE11:
 128               	.global	setDAC
 130               	setDAC:
 131               	.LFB10:
 132               	.LM25:
 133               	.LVL4:
 134 0058 0F93      		push r16
 135 005a 1F93      		push r17
 136               	/* prologue: function */
 137               	/* frame size = 0 */
 138 005c E62F      		mov r30,r22
 139               	.LM26:
 140 005e 0027      		clr r16
 141 0060 1127      		clr r17
 142 0062 081B      		sub r16,r24
 143 0064 190B      		sbc r17,r25
 144               	.LVL5:
 145               	.LM27:
 146 0066 0050      		subi r16,lo8(-(2048))
 147 0068 184F      		sbci r17,hi8(-(2048))
 148               	.LM28:
 149 006a 5B98      		cbi 43-32,3
 150               	.LM29:
 151 006c FF27      		clr r31
 152 006e E7FD      		sbrc r30,7
 153 0070 F095      		com r31
 154               	.LVL6:
 155 0072 E050      		subi r30,lo8(-(chan_addrs))
 156 0074 F040      		sbci r31,hi8(-(chan_addrs))
 157               	.LVL7:
 158 0076 8081      		ld r24,Z
 159 0078 8295      		swap r24
 160 007a 807F      		andi r24,lo8(-16)
 161 007c 212F      		mov r18,r17
 162 007e 3327      		clr r19
 163 0080 27FD      		sbrc r18,7
 164 0082 3A95      		dec r19
 165 0084 2F70      		andi r18,lo8(15)
 166 0086 822B      		or r24,r18
 167 0088 8093 0000 		sts send8,r24
 168               	.LM30:
 169 008c 90E0      		ldi r25,lo8(0)
 170 008e 0E94 0000 		call SPI_WriteByte
 171               	.LVL8:
 172               	.LM31:
 173 0092 0093 0000 		sts send8,r16
 174               	.LM32:
 175 0096 802F      		mov r24,r16
 176 0098 90E0      		ldi r25,lo8(0)
 177 009a 0E94 0000 		call SPI_WriteByte
 178               	.LM33:
 179 009e 5B9A      		sbi 43-32,3
 180               	/* epilogue start */
 181               	.LM34:
 182 00a0 1F91      		pop r17
 183 00a2 0F91      		pop r16
 184               	.LVL9:
 185 00a4 0895      		ret
 186               	.LFE10:
 188               	.global	set_reverser
 190               	set_reverser:
 191               	.LFB12:
 192               	.LM35:
 193               	.LVL10:
 194               	/* prologue: function */
 195               	/* frame size = 0 */
 196               	.LM36:
 197 00a6 8330      		cpi r24,lo8(3)
 198 00a8 01F0      		breq .L20
 199 00aa 8430      		cpi r24,lo8(4)
 200 00ac 00F4      		brsh .L25
 201 00ae 8130      		cpi r24,lo8(1)
 202 00b0 01F0      		breq .L18
 203 00b2 8230      		cpi r24,lo8(2)
 204 00b4 00F4      		brsh .L19
 205 00b6 00C0      		rjmp .L36
 206               	.L25:
 207 00b8 8530      		cpi r24,lo8(5)
 208 00ba 01F0      		breq .L22
 209 00bc 8530      		cpi r24,lo8(5)
 210 00be 00F0      		brlo .L21
 211 00c0 8630      		cpi r24,lo8(6)
 212 00c2 01F0      		breq .L23
 213 00c4 8730      		cpi r24,lo8(7)
 214 00c6 01F4      		brne .L34
 215 00c8 00C0      		rjmp .L37
 216               	.L36:
 217               	.LM37:
 218 00ca 6623      		tst r22
 219 00cc 01F0      		breq .L26
 220               	.LM38:
 221 00ce 5D9A      		sbi 43-32,5
 222 00d0 0895      		ret
 223               	.L26:
 224               	.LM39:
 225 00d2 5D98      		cbi 43-32,5
 226 00d4 0895      		ret
 227               	.L18:
 228               	.LM40:
 229 00d6 6623      		tst r22
 230 00d8 01F0      		breq .L27
 231               	.LM41:
 232 00da 5E9A      		sbi 43-32,6
 233 00dc 0895      		ret
 234               	.L27:
 235               	.LM42:
 236 00de 5E98      		cbi 43-32,6
 237 00e0 0895      		ret
 238               	.L19:
 239               	.LM43:
 240 00e2 6623      		tst r22
 241 00e4 01F0      		breq .L28
 242               	.LM44:
 243 00e6 5F9A      		sbi 43-32,7
 244 00e8 0895      		ret
 245               	.L28:
 246               	.LM45:
 247 00ea 5F98      		cbi 43-32,7
 248 00ec 0895      		ret
 249               	.L20:
 250               	.LM46:
 251 00ee 6623      		tst r22
 252 00f0 01F0      		breq .L29
 253               	.LM47:
 254 00f2 289A      		sbi 37-32,0
 255 00f4 0895      		ret
 256               	.L29:
 257               	.LM48:
 258 00f6 2898      		cbi 37-32,0
 259 00f8 0895      		ret
 260               	.L21:
 261               	.LM49:
 262 00fa 6623      		tst r22
 263 00fc 01F0      		breq .L30
 264               	.LM50:
 265 00fe 299A      		sbi 37-32,1
 266 0100 0895      		ret
 267               	.L30:
 268               	.LM51:
 269 0102 2998      		cbi 37-32,1
 270 0104 0895      		ret
 271               	.L22:
 272               	.LM52:
 273 0106 6623      		tst r22
 274 0108 01F0      		breq .L31
 275               	.LM53:
 276 010a 2A9A      		sbi 37-32,2
 277 010c 0895      		ret
 278               	.L31:
 279               	.LM54:
 280 010e 2A98      		cbi 37-32,2
 281 0110 0895      		ret
 282               	.L23:
 283               	.LM55:
 284 0112 6623      		tst r22
 285 0114 01F0      		breq .L32
 286               	.LM56:
 287 0116 429A      		sbi 40-32,2
 288 0118 0895      		ret
 289               	.L32:
 290               	.LM57:
 291 011a 4298      		cbi 40-32,2
 292 011c 0895      		ret
 293               	.L37:
 294               	.LM58:
 295 011e 6623      		tst r22
 296 0120 01F0      		breq .L33
 297               	.LM59:
 298 0122 2C9A      		sbi 37-32,4
 299 0124 0895      		ret
 300               	.L33:
 301               	.LM60:
 302 0126 2C98      		cbi 37-32,4
 303               	.L34:
 304 0128 0895      		ret
 305               	.LFE12:
 307               	.global	main
 309               	main:
 310               	.LFB13:
 311               	.LM61:
 312 012a 1F93      		push r17
 313               	/* prologue: function */
 314               	/* frame size = 0 */
 315               	.LM62:
 316 012c 8EE1      		ldi r24,lo8(30)
 317 012e 87B9      		out 39-32,r24
 318               	.LM63:
 319 0130 8CEF      		ldi r24,lo8(-4)
 320 0132 8AB9      		out 42-32,r24
 321               	.LM64:
 322 0134 8FE1      		ldi r24,lo8(31)
 323 0136 84B9      		out 36-32,r24
 324               	.LM65:
 325               	/* #APP */
 326               	 ;  193 "main.c" 1
 327 0138 7894      		sei
 328               	 ;  0 "" 2
 329               	/* #NOAPP */
 330               	.LBB11:
 331               	.LBB12:
 332               	.LM66:
 333 013a 8CE2      		ldi r24,lo8(44)
 334 013c 84B9      		out 36-32,r24
 335               	.LM67:
 336 013e 8AE5      		ldi r24,lo8(90)
 337 0140 8CBD      		out 76-32,r24
 338               	.LBE12:
 339               	.LBE11:
 340               	.LBB13:
 341               	.LBB14:
 342               	.LM68:
 343 0142 1092 B000 		sts 176,__zero_reg__
 344               	.LM69:
 345 0146 1092 B100 		sts 177,__zero_reg__
 346               	.LM70:
 347 014a 8091 B100 		lds r24,177
 348 014e 8260      		ori r24,lo8(2)
 349 0150 8093 B100 		sts 177,r24
 350               	.LM71:
 351 0154 81E0      		ldi r24,lo8(1)
 352 0156 8093 7000 		sts 112,r24
 353               	.LBE14:
 354               	.LBE13:
 355               	.LBB15:
 356               	.LBB16:
 357               	.LM72:
 358 015a 1092 C500 		sts 197,__zero_reg__
 359               	.LM73:
 360 015e 83E3      		ldi r24,lo8(51)
 361 0160 8093 C400 		sts 196,r24
 362               	.LM74:
 363 0164 88E9      		ldi r24,lo8(-104)
 364 0166 8093 C100 		sts 193,r24
 365               	.LM75:
 366 016a 8EE0      		ldi r24,lo8(14)
 367 016c 8093 C200 		sts 194,r24
 368               	.LBE16:
 369               	.LBE15:
 370               	.LBB17:
 371               	.LBB18:
 372               	.LM76:
 373 0170 8091 7A00 		lds r24,122
 374 0174 8368      		ori r24,lo8(-125)
 375 0176 8093 7A00 		sts 122,r24
 376               	.LM77:
 377 017a 8091 7C00 		lds r24,124
 378 017e 8064      		ori r24,lo8(64)
 379 0180 8093 7C00 		sts 124,r24
 380               	.LBE18:
 381               	.LBE17:
 382               	.LM78:
 383 0184 8091 7A00 		lds r24,122
 384 0188 8064      		ori r24,lo8(64)
 385 018a 8093 7A00 		sts 122,r24
 386               	.LM79:
 387 018e 8091 7800 		lds r24,120
 388               	.LM80:
 389 0192 8091 7800 		lds r24,120
 390 0196 10E0      		ldi r17,lo8(0)
 391               	.L39:
 392               	.LBB19:
 393               	.LM81:
 394 0198 80E0      		ldi r24,lo8(0)
 395 019a 90E0      		ldi r25,hi8(0)
 396 019c 612F      		mov r22,r17
 397 019e 0E94 0000 		call setDAC
 398 01a2 1F5F      		subi r17,lo8(-(1))
 399               	.LM82:
 400 01a4 1830      		cpi r17,lo8(8)
 401 01a6 01F4      		brne .L39
 402               	.LBE19:
 403               	.LM83:
 404 01a8 5A98      		cbi 43-32,2
 405               	.LM84:
 406 01aa 5A9A      		sbi 43-32,2
 407               	.L40:
 408 01ac 00C0      		rjmp .L40
 409               	.LFE13:
 411               	.global	__vector_9
 413               	__vector_9:
 414               	.LFB14:
 415               	.LM85:
 416 01ae 1F92      		push __zero_reg__
 417 01b0 0F92      		push r0
 418 01b2 0FB6      		in r0,__SREG__
 419 01b4 0F92      		push r0
 420 01b6 1124      		clr __zero_reg__
 421 01b8 2F93      		push r18
 422 01ba 3F93      		push r19
 423 01bc 4F93      		push r20
 424 01be 5F93      		push r21
 425 01c0 6F93      		push r22
 426 01c2 7F93      		push r23
 427 01c4 8F93      		push r24
 428 01c6 9F93      		push r25
 429 01c8 AF93      		push r26
 430 01ca BF93      		push r27
 431 01cc EF93      		push r30
 432 01ce FF93      		push r31
 433               	/* prologue: Signal */
 434               	/* frame size = 0 */
 435               	.LM86:
 436 01d0 2091 0000 		lds r18,ctr
 437 01d4 3091 0000 		lds r19,(ctr)+1
 438 01d8 8091 0000 		lds r24,time_step
 439 01dc 9091 0000 		lds r25,(time_step)+1
 440 01e0 8217      		cp r24,r18
 441 01e2 9307      		cpc r25,r19
 442 01e4 04F0      		brlt .+2
 443 01e6 00C0      		rjmp .L44
 444               	.LM87:
 445 01e8 6091 0000 		lds r22,MD
 446 01ec 6623      		tst r22
 447 01ee 01F0      		breq .+2
 448 01f0 00C0      		rjmp .L45
 449               	.LM88:
 450 01f2 2091 0000 		lds r18,event_ctr
 451 01f6 3091 0000 		lds r19,(event_ctr)+1
 452 01fa 2130      		cpi r18,1
 453 01fc 3105      		cpc r19,__zero_reg__
 454 01fe 01F4      		brne .L46
 455               	.LM89:
 456 0200 9091 7800 		lds r25,120
 457 0204 9093 0000 		sts ADCL_,r25
 458               	.LM90:
 459 0208 8091 7900 		lds r24,121
 460 020c 8093 0000 		sts ADCH_,r24
 461               	.LM91:
 462 0210 9093 C600 		sts 198,r25
 463 0214 00C0      		rjmp .L47
 464               	.L46:
 465               	.LM92:
 466 0216 2230      		cpi r18,2
 467 0218 3105      		cpc r19,__zero_reg__
 468 021a 01F4      		brne .L48
 469               	.LM93:
 470 021c 8091 0000 		lds r24,ADCH_
 471 0220 8093 C600 		sts 198,r24
 472 0224 00C0      		rjmp .L47
 473               	.L48:
 474               	.LM94:
 475 0226 2115      		cp r18,__zero_reg__
 476 0228 3105      		cpc r19,__zero_reg__
 477 022a 01F4      		brne .L47
 478               	.LM95:
 479 022c 8FEF      		ldi r24,lo8(-1)
 480 022e 8093 C600 		sts 198,r24
 481               	.LM96:
 482 0232 8091 0000 		lds r24,x16
 483 0236 9091 0000 		lds r25,(x16)+1
 484 023a 00C0      		rjmp .L74
 485               	.L47:
 486               	.LM97:
 487 023c 8091 0000 		lds r24,t1
 488 0240 90E0      		ldi r25,lo8(0)
 489 0242 2817      		cp r18,r24
 490 0244 3907      		cpc r19,r25
 491 0246 01F4      		brne .+2
 492 0248 00C0      		rjmp .L78
 493               	.L50:
 494               	.LM98:
 495 024a 8091 0000 		lds r24,dT
 496 024e 90E0      		ldi r25,lo8(0)
 497 0250 2817      		cp r18,r24
 498 0252 3907      		cpc r19,r25
 499 0254 01F4      		brne .+2
 500 0256 00C0      		rjmp .L77
 501               	.L51:
 502               	.LM99:
 503 0258 0196      		adiw r24,1
 504 025a 2817      		cp r18,r24
 505 025c 3907      		cpc r19,r25
 506 025e 01F4      		brne .+2
 507 0260 00C0      		rjmp .L75
 508               	.L52:
 509               	.LM100:
 510 0262 8091 0000 		lds r24,dTt2
 511 0266 90E0      		ldi r25,lo8(0)
 512 0268 2817      		cp r18,r24
 513 026a 3907      		cpc r19,r25
 514 026c 01F0      		breq .+2
 515 026e 00C0      		rjmp .L49
 516               	.LM101:
 517 0270 8091 C000 		lds r24,192
 518 0274 85FF      		sbrs r24,5
 519 0276 00C0      		rjmp .L76
 520               	.LM102:
 521 0278 8091 0000 		lds r24,_adc
 522 027c 8093 C600 		sts 198,r24
 523 0280 00C0      		rjmp .L76
 524               	.L45:
 525               	.LM103:
 526 0282 6130      		cpi r22,lo8(1)
 527 0284 01F0      		breq .+2
 528 0286 00C0      		rjmp .L54
 529               	.LBB20:
 530               	.LM104:
 531 0288 8091 0000 		lds r24,i.1423
 532 028c 9091 0000 		lds r25,(i.1423)+1
 533 0290 0196      		adiw r24,1
 534 0292 9093 0000 		sts (i.1423)+1,r25
 535 0296 8093 0000 		sts i.1423,r24
 536               	.LM105:
 537 029a 8091 0000 		lds r24,UDP_cnt
 538 029e 8130      		cpi r24,lo8(1)
 539 02a0 01F0      		breq .L57
 540 02a2 8130      		cpi r24,lo8(1)
 541 02a4 00F0      		brlo .L56
 542 02a6 8230      		cpi r24,lo8(2)
 543 02a8 01F0      		breq .L58
 544 02aa 8330      		cpi r24,lo8(3)
 545 02ac 01F0      		breq .+2
 546 02ae 00C0      		rjmp .L55
 547 02b0 00C0      		rjmp .L79
 548               	.L56:
 549               	.LM106:
 550 02b2 8091 7A00 		lds r24,122
 551 02b6 8064      		ori r24,lo8(64)
 552 02b8 8093 7A00 		sts 122,r24
 553               	.LM107:
 554 02bc 8FEF      		ldi r24,lo8(-1)
 555 02be 00C0      		rjmp .L73
 556               	.L57:
 557               	.LM108:
 558 02c0 8091 0000 		lds r24,ADCL_
 559 02c4 8093 0000 		sts ADCL__,r24
 560               	.LM109:
 561 02c8 8091 0000 		lds r24,ADCH_
 562 02cc 8093 0000 		sts ADCH__,r24
 563               	.LM110:
 564 02d0 9091 7800 		lds r25,120
 565 02d4 9093 0000 		sts ADCL_,r25
 566               	.LM111:
 567 02d8 8091 7900 		lds r24,121
 568 02dc 8093 0000 		sts ADCH_,r24
 569               	.LM112:
 570 02e0 9093 C600 		sts 198,r25
 571 02e4 00C0      		rjmp .L55
 572               	.L58:
 573               	.LM113:
 574 02e6 8091 0000 		lds r24,ADCH_
 575               	.L73:
 576 02ea 8093 C600 		sts 198,r24
 577 02ee 00C0      		rjmp .L55
 578               	.L79:
 579               	.LM114:
 580 02f0 2091 0000 		lds r18,VAC16
 581 02f4 3091 0000 		lds r19,(VAC16)+1
 582 02f8 3093 0000 		sts (VAC16_H)+1,r19
 583 02fc 2093 0000 		sts VAC16_H,r18
 584               	.LM115:
 585 0300 8091 0000 		lds r24,pos_phase
 586 0304 8823      		tst r24
 587 0306 01F0      		breq .L60
 588               	.LM116:
 589 0308 205E      		subi r18,lo8(-(32))
 590 030a 3F4F      		sbci r19,hi8(-(32))
 591 030c 3093 0000 		sts (VAC16)+1,r19
 592 0310 2093 0000 		sts VAC16,r18
 593               	.LM117:
 594 0314 8091 0000 		lds r24,y16
 595 0318 9091 0000 		lds r25,(y16)+1
 596 031c 2817      		cp r18,r24
 597 031e 3907      		cpc r19,r25
 598 0320 04F0      		brlt .L61
 599               	.LM118:
 600 0322 1092 0000 		sts pos_phase,__zero_reg__
 601 0326 00C0      		rjmp .L61
 602               	.L60:
 603               	.LM119:
 604 0328 C901      		movw r24,r18
 605 032a 8097      		sbiw r24,32
 606 032c 9093 0000 		sts (VAC16)+1,r25
 607 0330 8093 0000 		sts VAC16,r24
 608               	.LM120:
 609 0334 21E0      		ldi r18,lo8(1)
 610 0336 30E0      		ldi r19,hi8(1)
 611 0338 4091 0000 		lds r20,x16
 612 033c 5091 0000 		lds r21,(x16)+1
 613 0340 241B      		sub r18,r20
 614 0342 350B      		sbc r19,r21
 615 0344 8217      		cp r24,r18
 616 0346 9307      		cpc r25,r19
 617 0348 04F4      		brge .L61
 618               	.LM121:
 619 034a 6093 0000 		sts pos_phase,r22
 620               	.L61:
 621               	.LM122:
 622 034e 8091 0000 		lds r24,VAC16
 623 0352 9091 0000 		lds r25,(VAC16)+1
 624 0356 9C01      		movw r18,r24
 625 0358 74E0      		ldi r23,4
 626 035a 3595      	1:	asr r19
 627 035c 2795      		ror r18
 628 035e 7A95      		dec r23
 629 0360 01F4      		brne 1b
 630 0362 2093 C600 		sts 198,r18
 631               	.LM123:
 632 0366 6091 0000 		lds r22,chan
 633 036a 0E94 0000 		call setDAC
 634               	.LM124:
 635 036e 5A98      		cbi 43-32,2
 636               	.LM125:
 637 0370 5A9A      		sbi 43-32,2
 638               	.L55:
 639               	.LM126:
 640 0372 8091 0000 		lds r24,UDP_cnt
 641 0376 8F5F      		subi r24,lo8(-(1))
 642 0378 8370      		andi r24,lo8(3)
 643 037a 8093 0000 		sts UDP_cnt,r24
 644 037e 00C0      		rjmp .L49
 645               	.L54:
 646               	.LBE20:
 647               	.LM127:
 648 0380 6230      		cpi r22,lo8(2)
 649 0382 01F0      		breq .+2
 650 0384 00C0      		rjmp .L49
 651               	.LBB21:
 652               	.LM128:
 653 0386 80E1      		ldi r24,lo8(16)
 654 0388 8093 0000 		sts T,r24
 655               	.LM129:
 656 038c 4091 0000 		lds r20,event_ctr
 657 0390 5091 0000 		lds r21,(event_ctr)+1
 658 0394 4130      		cpi r20,1
 659 0396 5105      		cpc r21,__zero_reg__
 660 0398 01F4      		brne .L62
 661               	.LM130:
 662 039a 8091 0000 		lds r24,PROGRAM_done
 663 039e 8093 C600 		sts 198,r24
 664 03a2 00C0      		rjmp .L63
 665               	.L62:
 666               	.LM131:
 667 03a4 4230      		cpi r20,2
 668 03a6 5105      		cpc r21,__zero_reg__
 669 03a8 01F4      		brne .L64
 670               	.LM132:
 671 03aa 9091 7800 		lds r25,120
 672 03ae 9093 0000 		sts ADCL_,r25
 673               	.LM133:
 674 03b2 8091 7900 		lds r24,121
 675 03b6 8093 0000 		sts ADCH_,r24
 676               	.LM134:
 677 03ba 9093 C600 		sts 198,r25
 678 03be 00C0      		rjmp .L65
 679               	.L64:
 680               	.LM135:
 681 03c0 4330      		cpi r20,3
 682 03c2 5105      		cpc r21,__zero_reg__
 683 03c4 01F4      		brne .L66
 684               	.LM136:
 685 03c6 8091 0000 		lds r24,ADCH_
 686 03ca 8093 C600 		sts 198,r24
 687               	.LM137:
 688 03ce 382F      		mov r19,r24
 689 03d0 20E0      		ldi r18,lo8(0)
 690 03d2 8091 0000 		lds r24,ADCL_
 691 03d6 90E0      		ldi r25,lo8(0)
 692 03d8 822B      		or r24,r18
 693 03da 932B      		or r25,r19
 694 03dc 9093 0000 		sts (_adc)+1,r25
 695 03e0 8093 0000 		sts _adc,r24
 696               	.LM138:
 697 03e4 20E0      		ldi r18,lo8(512)
 698 03e6 32E0      		ldi r19,hi8(512)
 699 03e8 281B      		sub r18,r24
 700 03ea 390B      		sbc r19,r25
 701 03ec 3093 0000 		sts (adc_h.1429)+1,r19
 702 03f0 2093 0000 		sts adc_h.1429,r18
 703               	.LM139:
 704 03f4 8091 0000 		lds r24,t1
 705 03f8 90E0      		ldi r25,lo8(0)
 706 03fa 2817      		cp r18,r24
 707 03fc 3907      		cpc r19,r25
 708 03fe 01F0      		breq .+2
 709 0400 00C0      		rjmp .L63
 710               	.LM140:
 711 0402 81E0      		ldi r24,lo8(1)
 712 0404 8093 0000 		sts PROGRAM_done,r24
 713               	.LM141:
 714 0408 1092 0000 		sts (prog_val)+1,__zero_reg__
 715 040c 1092 0000 		sts prog_val,__zero_reg__
 716 0410 00C0      		rjmp .L67
 717               	.L66:
 718               	.LM142:
 719 0412 4115      		cp r20,__zero_reg__
 720 0414 5105      		cpc r21,__zero_reg__
 721 0416 01F4      		brne .L63
 722               	.LM143:
 723 0418 8FEF      		ldi r24,lo8(-1)
 724 041a 8093 C600 		sts 198,r24
 725               	.LM144:
 726 041e 2091 0000 		lds r18,prog_val
 727 0422 3091 0000 		lds r19,(prog_val)+1
 728 0426 205E      		subi r18,lo8(-(32))
 729 0428 3F4F      		sbci r19,hi8(-(32))
 730 042a 3093 0000 		sts (prog_val)+1,r19
 731 042e 2093 0000 		sts prog_val,r18
 732               	.LM145:
 733 0432 4091 0000 		lds r20,x16
 734 0436 5091 0000 		lds r21,(x16)+1
 735 043a 80E2      		ldi r24,lo8(32)
 736 043c 90E0      		ldi r25,hi8(32)
 737 043e 841B      		sub r24,r20
 738 0440 950B      		sbc r25,r21
 739 0442 2817      		cp r18,r24
 740 0444 3907      		cpc r19,r25
 741 0446 01F4      		brne .L68
 742               	.LM146:
 743 0448 1092 0000 		sts (prog_val)+1,__zero_reg__
 744 044c 1092 0000 		sts prog_val,__zero_reg__
 745 0450 00C0      		rjmp .L69
 746               	.L68:
 747               	.LM147:
 748 0452 8091 0000 		lds r24,t2
 749 0456 90E0      		ldi r25,lo8(0)
 750 0458 64E0      		ldi r22,4
 751 045a 880F      	1:	lsl r24
 752 045c 991F      		rol r25
 753 045e 6A95      		dec r22
 754 0460 01F4      		brne 1b
 755 0462 8217      		cp r24,r18
 756 0464 9307      		cpc r25,r19
 757 0466 04F4      		brge .L69
 758               	.LM148:
 759 0468 8827      		clr r24
 760 046a 9927      		clr r25
 761 046c 841B      		sub r24,r20
 762 046e 950B      		sbc r25,r21
 763 0470 9093 0000 		sts (prog_val)+1,r25
 764 0474 8093 0000 		sts prog_val,r24
 765               	.L69:
 766               	.LM149:
 767 0478 8091 0000 		lds r24,PROGRAM_done
 768 047c 8823      		tst r24
 769 047e 01F0      		breq .L70
 770               	.LM150:
 771 0480 1092 0000 		sts (prog_val)+1,__zero_reg__
 772 0484 1092 0000 		sts prog_val,__zero_reg__
 773               	.L70:
 774               	.LM151:
 775 0488 8091 0000 		lds r24,prog_val
 776 048c 9091 0000 		lds r25,(prog_val)+1
 777 0490 00C0      		rjmp .L74
 778               	.L63:
 779               	.LM152:
 780 0492 4730      		cpi r20,7
 781 0494 5105      		cpc r21,__zero_reg__
 782 0496 01F0      		breq .L78
 783               	.L65:
 784               	.LM153:
 785 0498 4930      		cpi r20,9
 786 049a 5105      		cpc r21,__zero_reg__
 787 049c 01F4      		brne .L67
 788               	.L77:
 789               	.LM154:
 790 049e 8091 0000 		lds r24,y16
 791 04a2 9091 0000 		lds r25,(y16)+1
 792 04a6 00C0      		rjmp .L74
 793               	.L67:
 794               	.LM155:
 795 04a8 4A30      		cpi r20,10
 796 04aa 5105      		cpc r21,__zero_reg__
 797 04ac 01F4      		brne .L71
 798               	.L75:
 799               	.LM156:
 800 04ae 8091 7A00 		lds r24,122
 801 04b2 8064      		ori r24,lo8(64)
 802 04b4 8093 7A00 		sts 122,r24
 803 04b8 00C0      		rjmp .L49
 804               	.L71:
 805               	.LM157:
 806 04ba 4E30      		cpi r20,14
 807 04bc 5105      		cpc r21,__zero_reg__
 808 04be 01F4      		brne .L49
 809               	.L76:
 810               	.LM158:
 811 04c0 1092 0000 		sts (accum)+1,__zero_reg__
 812 04c4 1092 0000 		sts accum,__zero_reg__
 813               	.LM159:
 814 04c8 1092 0000 		sts ADC_on,__zero_reg__
 815               	.LM160:
 816 04cc 1092 0000 		sts accum_cnt,__zero_reg__
 817               	.L78:
 818               	.LM161:
 819 04d0 80E0      		ldi r24,lo8(0)
 820 04d2 90E0      		ldi r25,hi8(0)
 821               	.L74:
 822 04d4 6091 0000 		lds r22,chan
 823 04d8 0E94 0000 		call setDAC
 824               	.LM162:
 825 04dc 5A98      		cbi 43-32,2
 826               	.LM163:
 827 04de 5A9A      		sbi 43-32,2
 828               	.L49:
 829               	.LBE21:
 830               	.LM164:
 831 04e0 1092 0000 		sts (ctr)+1,__zero_reg__
 832 04e4 1092 0000 		sts ctr,__zero_reg__
 833               	.LM165:
 834 04e8 2091 0000 		lds r18,event_ctr
 835 04ec 3091 0000 		lds r19,(event_ctr)+1
 836 04f0 2F5F      		subi r18,lo8(-(1))
 837 04f2 3F4F      		sbci r19,hi8(-(1))
 838 04f4 3093 0000 		sts (event_ctr)+1,r19
 839 04f8 2093 0000 		sts event_ctr,r18
 840               	.LM166:
 841 04fc 8091 0000 		lds r24,T
 842 0500 90E0      		ldi r25,lo8(0)
 843 0502 8217      		cp r24,r18
 844 0504 9307      		cpc r25,r19
 845 0506 04F4      		brge .L44
 846               	.LM167:
 847 0508 1092 0000 		sts (event_ctr)+1,__zero_reg__
 848 050c 1092 0000 		sts event_ctr,__zero_reg__
 849               	.L44:
 850               	.LM168:
 851 0510 8091 0000 		lds r24,ctr
 852 0514 9091 0000 		lds r25,(ctr)+1
 853 0518 0196      		adiw r24,1
 854 051a 9093 0000 		sts (ctr)+1,r25
 855 051e 8093 0000 		sts ctr,r24
 856               	/* epilogue start */
 857               	.LM169:
 858 0522 FF91      		pop r31
 859 0524 EF91      		pop r30
 860 0526 BF91      		pop r27
 861 0528 AF91      		pop r26
 862 052a 9F91      		pop r25
 863 052c 8F91      		pop r24
 864 052e 7F91      		pop r23
 865 0530 6F91      		pop r22
 866 0532 5F91      		pop r21
 867 0534 4F91      		pop r20
 868 0536 3F91      		pop r19
 869 0538 2F91      		pop r18
 870 053a 0F90      		pop r0
 871 053c 0FBE      		out __SREG__,r0
 872 053e 0F90      		pop r0
 873 0540 1F90      		pop __zero_reg__
 874 0542 1895      		reti
 875               	.LFE14:
 877               	.global	__vector_18
 879               	__vector_18:
 880               	.LFB15:
 881               	.LM170:
 882 0544 1F92      		push __zero_reg__
 883 0546 0F92      		push r0
 884 0548 0FB6      		in r0,__SREG__
 885 054a 0F92      		push r0
 886 054c 1124      		clr __zero_reg__
 887 054e 2F93      		push r18
 888 0550 3F93      		push r19
 889 0552 4F93      		push r20
 890 0554 5F93      		push r21
 891 0556 6F93      		push r22
 892 0558 7F93      		push r23
 893 055a 8F93      		push r24
 894 055c 9F93      		push r25
 895 055e AF93      		push r26
 896 0560 BF93      		push r27
 897 0562 EF93      		push r30
 898 0564 FF93      		push r31
 899               	/* prologue: Signal */
 900               	/* frame size = 0 */
 901               	.LM171:
 902 0566 8091 0000 		lds r24,ptr
 903 056a 8430      		cpi r24,lo8(4)
 904 056c 01F4      		brne .+2
 905 056e 00C0      		rjmp .L86
 906 0570 8530      		cpi r24,lo8(5)
 907 0572 00F4      		brsh .L92
 908 0574 8130      		cpi r24,lo8(1)
 909 0576 01F0      		breq .L83
 910 0578 8130      		cpi r24,lo8(1)
 911 057a 00F0      		brlo .L82
 912 057c 8230      		cpi r24,lo8(2)
 913 057e 01F4      		brne .+2
 914 0580 00C0      		rjmp .L84
 915 0582 8330      		cpi r24,lo8(3)
 916 0584 01F0      		breq .+2
 917 0586 00C0      		rjmp .L81
 918 0588 00C0      		rjmp .L100
 919               	.L92:
 920 058a 8730      		cpi r24,lo8(7)
 921 058c 01F4      		brne .+2
 922 058e 00C0      		rjmp .L89
 923 0590 8830      		cpi r24,lo8(8)
 924 0592 00F4      		brsh .L93
 925 0594 8530      		cpi r24,lo8(5)
 926 0596 01F4      		brne .+2
 927 0598 00C0      		rjmp .L87
 928 059a 8630      		cpi r24,lo8(6)
 929 059c 01F0      		breq .+2
 930 059e 00C0      		rjmp .L81
 931 05a0 00C0      		rjmp .L101
 932               	.L93:
 933 05a2 8830      		cpi r24,lo8(8)
 934 05a4 01F4      		brne .+2
 935 05a6 00C0      		rjmp .L90
 936 05a8 8930      		cpi r24,lo8(9)
 937 05aa 01F0      		breq .+2
 938 05ac 00C0      		rjmp .L81
 939 05ae 00C0      		rjmp .L102
 940               	.L82:
 941               	.LM172:
 942 05b0 8091 C600 		lds r24,198
 943 05b4 8F3F      		cpi r24,lo8(-1)
 944 05b6 01F0      		breq .L94
 945               	.LM173:
 946 05b8 1092 0000 		sts sync,__zero_reg__
 947               	.LM174:
 948 05bc 83E0      		ldi r24,lo8(3)
 949 05be 8093 0000 		sts ptr,r24
 950 05c2 00C0      		rjmp .L81
 951               	.L94:
 952               	.LM175:
 953 05c4 81E0      		ldi r24,lo8(1)
 954 05c6 8093 0000 		sts sync,r24
 955 05ca 00C0      		rjmp .L81
 956               	.L83:
 957               	.LM176:
 958 05cc 2091 C600 		lds r18,198
 959 05d0 2093 0000 		sts MD,r18
 960               	.LM177:
 961 05d4 2130      		cpi r18,lo8(1)
 962 05d6 01F4      		brne .L95
 963               	.LM178:
 964 05d8 84E0      		ldi r24,lo8(4)
 965 05da 90E0      		ldi r25,hi8(4)
 966 05dc 9093 0000 		sts (time_step)+1,r25
 967 05e0 8093 0000 		sts time_step,r24
 968 05e4 00C0      		rjmp .L81
 969               	.L95:
 970               	.LM179:
 971 05e6 86E0      		ldi r24,lo8(6)
 972 05e8 90E0      		ldi r25,hi8(6)
 973 05ea 9093 0000 		sts (time_step)+1,r25
 974 05ee 8093 0000 		sts time_step,r24
 975               	.LM180:
 976 05f2 2230      		cpi r18,lo8(2)
 977 05f4 01F0      		breq .+2
 978 05f6 00C0      		rjmp .L81
 979               	.LM181:
 980 05f8 1092 0000 		sts PROGRAM_done,__zero_reg__
 981               	.LM182:
 982 05fc 1092 0000 		sts (prog_val)+1,__zero_reg__
 983 0600 1092 0000 		sts prog_val,__zero_reg__
 984 0604 00C0      		rjmp .L81
 985               	.L84:
 986               	.LM183:
 987 0606 8091 C600 		lds r24,198
 988 060a 90E0      		ldi r25,lo8(0)
 989 060c F4E0      		ldi r31,4
 990 060e 880F      	1:	lsl r24
 991 0610 991F      		rol r25
 992 0612 FA95      		dec r31
 993 0614 01F4      		brne 1b
 994 0616 9093 0000 		sts (x16)+1,r25
 995 061a 8093 0000 		sts x16,r24
 996 061e 00C0      		rjmp .L81
 997               	.L100:
 998               	.LM184:
 999 0620 8091 C600 		lds r24,198
 1000 0624 90E0      		ldi r25,lo8(0)
 1001 0626 E4E0      		ldi r30,4
 1002 0628 880F      	1:	lsl r24
 1003 062a 991F      		rol r25
 1004 062c EA95      		dec r30
 1005 062e 01F4      		brne 1b
 1006 0630 9093 0000 		sts (y16)+1,r25
 1007 0634 8093 0000 		sts y16,r24
 1008 0638 00C0      		rjmp .L81
 1009               	.L86:
 1010               	.LM185:
 1011 063a 8091 C600 		lds r24,198
 1012 063e 8093 0000 		sts t1,r24
 1013 0642 00C0      		rjmp .L81
 1014               	.L87:
 1015               	.LM186:
 1016 0644 8091 C600 		lds r24,198
 1017 0648 8093 0000 		sts t2,r24
 1018 064c 00C0      		rjmp .L81
 1019               	.L101:
 1020               	.LM187:
 1021 064e 8091 C600 		lds r24,198
 1022 0652 8093 0000 		sts dT,r24
 1023 0656 00C0      		rjmp .L81
 1024               	.L89:
 1025               	.LM188:
 1026 0658 8091 C600 		lds r24,198
 1027 065c 8093 0000 		sts T,r24
 1028 0660 00C0      		rjmp .L81
 1029               	.L90:
 1030               	.LM189:
 1031 0662 8091 C600 		lds r24,198
 1032 0666 8093 0000 		sts chan,r24
 1033 066a 00C0      		rjmp .L81
 1034               	.L102:
 1035               	.LM190:
 1036 066c 8091 C600 		lds r24,198
 1037 0670 E091 0000 		lds r30,chan
 1038 0674 F0E0      		ldi r31,lo8(0)
 1039 0676 E050      		subi r30,lo8(-(reverted))
 1040 0678 F040      		sbci r31,hi8(-(reverted))
 1041 067a 8083      		st Z,r24
 1042               	.L81:
 1043               	.LM191:
 1044 067c 8091 0000 		lds r24,MD
 1045 0680 8230      		cpi r24,lo8(2)
 1046 0682 01F0      		breq .L96
 1047               	.LM192:
 1048 0684 8091 0000 		lds r24,chan
 1049 0688 E82F      		mov r30,r24
 1050 068a F0E0      		ldi r31,lo8(0)
 1051 068c E050      		subi r30,lo8(-(reverted))
 1052 068e F040      		sbci r31,hi8(-(reverted))
 1053 0690 6081      		ld r22,Z
 1054 0692 00C0      		rjmp .L99
 1055               	.L96:
 1056               	.LM193:
 1057 0694 8091 0000 		lds r24,chan
 1058 0698 60E0      		ldi r22,lo8(0)
 1059               	.L99:
 1060 069a 0E94 0000 		call set_reverser
 1061               	.LM194:
 1062 069e 8091 0000 		lds r24,t2
 1063 06a2 9091 0000 		lds r25,dT
 1064 06a6 890F      		add r24,r25
 1065 06a8 8093 0000 		sts dTt2,r24
 1066               	.LM195:
 1067 06ac 8091 0000 		lds r24,ptr
 1068 06b0 8F5F      		subi r24,lo8(-(1))
 1069 06b2 6AE0      		ldi r22,lo8(10)
 1070 06b4 0E94 0000 		call __udivmodqi4
 1071 06b8 9093 0000 		sts ptr,r25
 1072               	/* epilogue start */
 1073               	.LM196:
 1074 06bc FF91      		pop r31
 1075 06be EF91      		pop r30
 1076 06c0 BF91      		pop r27
 1077 06c2 AF91      		pop r26
 1078 06c4 9F91      		pop r25
 1079 06c6 8F91      		pop r24
 1080 06c8 7F91      		pop r23
 1081 06ca 6F91      		pop r22
 1082 06cc 5F91      		pop r21
 1083 06ce 4F91      		pop r20
 1084 06d0 3F91      		pop r19
 1085 06d2 2F91      		pop r18
 1086 06d4 0F90      		pop r0
 1087 06d6 0FBE      		out __SREG__,r0
 1088 06d8 0F90      		pop r0
 1089 06da 1F90      		pop __zero_reg__
 1090 06dc 1895      		reti
 1091               	.LFE15:
 1093               	.global	MD
 1094               	.global	MD
 1095               		.section .bss
 1098               	MD:
 1099 0000 00        		.skip 1,0
 1100               	.global	chan_addrs
 1101               		.data
 1104               	chan_addrs:
 1105 0000 00        		.byte	0
 1106 0001 01        		.byte	1
 1107 0002 02        		.byte	2
 1108 0003 03        		.byte	3
 1109 0004 07        		.byte	7
 1110 0005 06        		.byte	6
 1111 0006 05        		.byte	5
 1112 0007 04        		.byte	4
 1113               	.global	VAC16
 1114               	.global	VAC16
 1115               		.section .bss
 1118               	VAC16:
 1119 0001 0000      		.skip 2,0
 1120               	.global	VAC16_H
 1121               	.global	VAC16_H
 1124               	VAC16_H:
 1125 0003 0000      		.skip 2,0
 1126               	.global	VAC16_HH
 1127               	.global	VAC16_HH
 1130               	VAC16_HH:
 1131 0005 0000      		.skip 2,0
 1132               	.global	prog_val
 1133               	.global	prog_val
 1136               	prog_val:
 1137 0007 0000      		.skip 2,0
 1138               	.global	x16
 1139               	.global	x16
 1142               	x16:
 1143 0009 0000      		.skip 2,0
 1144               	.global	y16
 1145               	.global	y16
 1148               	y16:
 1149 000b 0000      		.skip 2,0
 1150               	.global	sync
 1151               	.global	sync
 1154               	sync:
 1155 000d 00        		.skip 1,0
 1156               	.global	t1
 1157               		.data
 1160               	t1:
 1161 0008 02        		.byte	2
 1162               	.global	t2
 1165               	t2:
 1166 0009 02        		.byte	2
 1167               	.global	dTt2
 1170               	dTt2:
 1171 000a 0A        		.byte	10
 1172               	.global	pos_phase
 1175               	pos_phase:
 1176 000b 01        		.byte	1
 1177               	.global	ptr
 1178               	.global	ptr
 1179               		.section .bss
 1182               	ptr:
 1183 000e 00        		.skip 1,0
 1184               	.global	PROGRAM_done
 1185               	.global	PROGRAM_done
 1188               	PROGRAM_done:
 1189 000f 00        		.skip 1,0
 1190               	.global	chan
 1191               	.global	chan
 1194               	chan:
 1195 0010 00        		.skip 1,0
 1196               	.global	reverted
 1197               	.global	reverted
 1200               	reverted:
 1201 0011 0000 0000 		.skip 8,0
 1201      0000 0000 
 1202               	.global	time_step
 1203               		.data
 1206               	time_step:
 1207 000c 0600      		.word	6
 1208               	.global	eventN
 1211               	eventN:
 1212 000e 6400      		.word	100
 1213               		.lcomm adc_h.1429,2
 1214               		.lcomm i.1423,2
 1215               		.comm dT,1,1
 1216               		.comm T,1,1
 1217               		.comm send8,1,1
 1218               		.comm UDP_cnt,1,1
 1219               		.comm c,1,1
 1220               		.comm ADC_on,1,1
 1221               		.comm _adc,2,1
 1222               		.comm ctr,2,1
 1223               		.comm accum,2,1
 1224               		.comm event_ctr,2,1
 1225               		.comm ADC_cnt,2,1
 1226               		.comm ADCH_,1,1
 1227               		.comm ADCL_,1,1
 1228               		.comm ADCH__,1,1
 1229               		.comm ADCL__,1,1
 1230               		.comm accum_cnt,1,1
 1327               	.Letext0:
DEFINED SYMBOLS
                            *ABS*:00000000 main.c
C:\Users\DrPepper\AppData\Local\Temp/ccyejSxa.s:2      *ABS*:0000003f __SREG__
C:\Users\DrPepper\AppData\Local\Temp/ccyejSxa.s:3      *ABS*:0000003e __SP_H__
C:\Users\DrPepper\AppData\Local\Temp/ccyejSxa.s:4      *ABS*:0000003d __SP_L__
C:\Users\DrPepper\AppData\Local\Temp/ccyejSxa.s:5      *ABS*:00000034 __CCP__
C:\Users\DrPepper\AppData\Local\Temp/ccyejSxa.s:6      *ABS*:00000000 __tmp_reg__
C:\Users\DrPepper\AppData\Local\Temp/ccyejSxa.s:7      *ABS*:00000001 __zero_reg__
C:\Users\DrPepper\AppData\Local\Temp/ccyejSxa.s:18     .text:00000000 ADC_Init
C:\Users\DrPepper\AppData\Local\Temp/ccyejSxa.s:42     .text:00000016 timer_init
C:\Users\DrPepper\AppData\Local\Temp/ccyejSxa.s:67     .text:0000002e uart_init
C:\Users\DrPepper\AppData\Local\Temp/ccyejSxa.s:92     .text:00000044 SPI_MasterInit
C:\Users\DrPepper\AppData\Local\Temp/ccyejSxa.s:110    .text:0000004e SPI_WriteByte
C:\Users\DrPepper\AppData\Local\Temp/ccyejSxa.s:130    .text:00000058 setDAC
C:\Users\DrPepper\AppData\Local\Temp/ccyejSxa.s:1104   .data:00000000 chan_addrs
                            *COM*:00000001 send8
C:\Users\DrPepper\AppData\Local\Temp/ccyejSxa.s:190    .text:000000a6 set_reverser
C:\Users\DrPepper\AppData\Local\Temp/ccyejSxa.s:309    .text:0000012a main
C:\Users\DrPepper\AppData\Local\Temp/ccyejSxa.s:413    .text:000001ae __vector_9
                            *COM*:00000002 ctr
C:\Users\DrPepper\AppData\Local\Temp/ccyejSxa.s:1206   .data:0000000c time_step
C:\Users\DrPepper\AppData\Local\Temp/ccyejSxa.s:1098   .bss:00000000 MD
                            *COM*:00000002 event_ctr
                            *COM*:00000001 ADCL_
                            *COM*:00000001 ADCH_
C:\Users\DrPepper\AppData\Local\Temp/ccyejSxa.s:1142   .bss:00000009 x16
C:\Users\DrPepper\AppData\Local\Temp/ccyejSxa.s:1160   .data:00000008 t1
                            *COM*:00000001 dT
C:\Users\DrPepper\AppData\Local\Temp/ccyejSxa.s:1170   .data:0000000a dTt2
                            *COM*:00000002 _adc
C:\Users\DrPepper\AppData\Local\Temp/ccyejSxa.s:1213   .bss:0000001b i.1423
                            *COM*:00000001 UDP_cnt
                            *COM*:00000001 ADCL__
                            *COM*:00000001 ADCH__
C:\Users\DrPepper\AppData\Local\Temp/ccyejSxa.s:1118   .bss:00000001 VAC16
C:\Users\DrPepper\AppData\Local\Temp/ccyejSxa.s:1124   .bss:00000003 VAC16_H
C:\Users\DrPepper\AppData\Local\Temp/ccyejSxa.s:1175   .data:0000000b pos_phase
C:\Users\DrPepper\AppData\Local\Temp/ccyejSxa.s:1148   .bss:0000000b y16
C:\Users\DrPepper\AppData\Local\Temp/ccyejSxa.s:1194   .bss:00000010 chan
                            *COM*:00000001 T
C:\Users\DrPepper\AppData\Local\Temp/ccyejSxa.s:1188   .bss:0000000f PROGRAM_done
                             .bss:00000019 adc_h.1429
C:\Users\DrPepper\AppData\Local\Temp/ccyejSxa.s:1136   .bss:00000007 prog_val
C:\Users\DrPepper\AppData\Local\Temp/ccyejSxa.s:1165   .data:00000009 t2
                            *COM*:00000002 accum
                            *COM*:00000001 ADC_on
                            *COM*:00000001 accum_cnt
C:\Users\DrPepper\AppData\Local\Temp/ccyejSxa.s:879    .text:00000544 __vector_18
C:\Users\DrPepper\AppData\Local\Temp/ccyejSxa.s:1182   .bss:0000000e ptr
C:\Users\DrPepper\AppData\Local\Temp/ccyejSxa.s:1154   .bss:0000000d sync
C:\Users\DrPepper\AppData\Local\Temp/ccyejSxa.s:1200   .bss:00000011 reverted
C:\Users\DrPepper\AppData\Local\Temp/ccyejSxa.s:1130   .bss:00000005 VAC16_HH
C:\Users\DrPepper\AppData\Local\Temp/ccyejSxa.s:1211   .data:0000000e eventN
                            *COM*:00000001 c
                            *COM*:00000002 ADC_cnt

UNDEFINED SYMBOLS
__udivmodqi4
__do_copy_data
__do_clear_bss
