   1               		.file	"main.c"
   2               	__SREG__ = 0x3f
   3               	__SP_H__ = 0x3e
   4               	__SP_L__ = 0x3d
   5               	__CCP__  = 0x34
   6               	__tmp_reg__ = 0
   7               	__zero_reg__ = 1
  15               	.Ltext0:
  16               	.global	ADC_Init
  18               	ADC_Init:
  19               	.LFB6:
  20               	.LM1:
  21               	/* prologue: function */
  22               	/* frame size = 0 */
  23               	.LM2:
  24 0000 EAE7      		ldi r30,lo8(122)
  25 0002 F0E0      		ldi r31,hi8(122)
  26 0004 8081      		ld r24,Z
  27 0006 8368      		ori r24,lo8(-125)
  28 0008 8083      		st Z,r24
  29               	.LM3:
  30 000a ECE7      		ldi r30,lo8(124)
  31 000c F0E0      		ldi r31,hi8(124)
  32 000e 8081      		ld r24,Z
  33 0010 8064      		ori r24,lo8(64)
  34 0012 8083      		st Z,r24
  35               	/* epilogue start */
  36               	.LM4:
  37 0014 0895      		ret
  38               	.LFE6:
  40               	.global	timer_init
  42               	timer_init:
  43               	.LFB7:
  44               	.LM5:
  45               	/* prologue: function */
  46               	/* frame size = 0 */
  47               	.LM6:
  48 0016 1092 B000 		sts 176,__zero_reg__
  49               	.LM7:
  50 001a E1EB      		ldi r30,lo8(177)
  51 001c F0E0      		ldi r31,hi8(177)
  52 001e 1082      		st Z,__zero_reg__
  53               	.LM8:
  54 0020 8081      		ld r24,Z
  55 0022 8260      		ori r24,lo8(2)
  56 0024 8083      		st Z,r24
  57               	.LM9:
  58 0026 81E0      		ldi r24,lo8(1)
  59 0028 8093 7000 		sts 112,r24
  60               	/* epilogue start */
  61               	.LM10:
  62 002c 0895      		ret
  63               	.LFE7:
  65               	.global	uart_init
  67               	uart_init:
  68               	.LFB8:
  69               	.LM11:
  70               	.LVL0:
  71               	/* prologue: function */
  72               	/* frame size = 0 */
  73               	.LM12:
  74 002e 9093 C500 		sts 197,r25
  75               	.LVL1:
  76               	.LM13:
  77 0032 8093 C400 		sts 196,r24
  78               	.LM14:
  79 0036 88E9      		ldi r24,lo8(-104)
  80               	.LVL2:
  81 0038 8093 C100 		sts 193,r24
  82               	.LM15:
  83 003c 8EE0      		ldi r24,lo8(14)
  84 003e 8093 C200 		sts 194,r24
  85               	/* epilogue start */
  86               	.LM16:
  87 0042 0895      		ret
  88               	.LFE8:
  90               	.global	SPI_MasterInit
  92               	SPI_MasterInit:
  93               	.LFB9:
  94               	.LM17:
  95               	/* prologue: function */
  96               	/* frame size = 0 */
  97               	.LM18:
  98 0044 8CE2      		ldi r24,lo8(44)
  99 0046 84B9      		out 36-32,r24
 100               	.LM19:
 101 0048 8AE5      		ldi r24,lo8(90)
 102 004a 8CBD      		out 76-32,r24
 103               	/* epilogue start */
 104               	.LM20:
 105 004c 0895      		ret
 106               	.LFE9:
 108               	.global	gatherMult
 110               	gatherMult:
 111               	.LFB11:
 112               	.LM21:
 113               	/* prologue: function */
 114               	/* frame size = 0 */
 115               	.LM22:
 116 004e 5E98      		cbi 43-32,6
 117               	.LM23:
 118 0050 5F98      		cbi 43-32,7
 119               	.LM24:
 120 0052 5D98      		cbi 43-32,5
 121               	.LM25:
 122 0054 4498      		cbi 40-32,4
 123               	.LM26:
 124 0056 419A      		sbi 40-32,1
 125               	.LM27:
 126 0058 2A9A      		sbi 37-32,2
 127               	.LM28:
 128 005a 299A      		sbi 37-32,1
 129               	.LM29:
 130 005c 289A      		sbi 37-32,0
 131               	/* epilogue start */
 132               	.LM30:
 133 005e 0895      		ret
 134               	.LFE11:
 136               	.global	separMult
 138               	separMult:
 139               	.LFB12:
 140               	.LM31:
 141               	/* prologue: function */
 142               	/* frame size = 0 */
 143               	.LM32:
 144 0060 2998      		cbi 37-32,1
 145               	.LM33:
 146 0062 2A98      		cbi 37-32,2
 147               	.LM34:
 148 0064 4198      		cbi 40-32,1
 149               	.LM35:
 150 0066 449A      		sbi 40-32,4
 151               	.LM36:
 152 0068 5E9A      		sbi 43-32,6
 153               	.LM37:
 154 006a 5F9A      		sbi 43-32,7
 155               	.LM38:
 156 006c 289A      		sbi 37-32,0
 157               	.LM39:
 158 006e 5D9A      		sbi 43-32,5
 159               	/* epilogue start */
 160               	.LM40:
 161 0070 0895      		ret
 162               	.LFE12:
 164               	.global	SPI_WriteByte
 166               	SPI_WriteByte:
 167               	.LFB13:
 168               	.LM41:
 169               	.LVL3:
 170               	/* prologue: function */
 171               	/* frame size = 0 */
 172               	.LM42:
 173 0072 8EBD      		out 78-32,r24
 174               	.L14:
 175               	.LM43:
 176 0074 0DB4      		in __tmp_reg__,77-32
 177 0076 07FE      		sbrs __tmp_reg__,7
 178 0078 00C0      		rjmp .L14
 179               	/* epilogue start */
 180               	.LM44:
 181 007a 0895      		ret
 182               	.LFE13:
 184               	.global	setDAC
 186               	setDAC:
 187               	.LFB10:
 188               	.LM45:
 189               	.LVL4:
 190 007c 0F93      		push r16
 191 007e 1F93      		push r17
 192               	/* prologue: function */
 193               	/* frame size = 0 */
 194 0080 E62F      		mov r30,r22
 195               	.LM46:
 196 0082 0027      		clr r16
 197 0084 1127      		clr r17
 198 0086 081B      		sub r16,r24
 199 0088 190B      		sbc r17,r25
 200               	.LVL5:
 201               	.LM47:
 202 008a 0050      		subi r16,lo8(-(2048))
 203 008c 184F      		sbci r17,hi8(-(2048))
 204               	.LM48:
 205 008e 5B98      		cbi 43-32,3
 206               	.LM49:
 207 0090 FF27      		clr r31
 208 0092 E7FD      		sbrc r30,7
 209 0094 F095      		com r31
 210               	.LVL6:
 211 0096 E050      		subi r30,lo8(-(chan_addrs))
 212 0098 F040      		sbci r31,hi8(-(chan_addrs))
 213               	.LVL7:
 214 009a 8081      		ld r24,Z
 215 009c 8295      		swap r24
 216 009e 807F      		andi r24,lo8(-16)
 217 00a0 212F      		mov r18,r17
 218 00a2 3327      		clr r19
 219 00a4 27FD      		sbrc r18,7
 220 00a6 3A95      		dec r19
 221 00a8 2F70      		andi r18,lo8(15)
 222 00aa 822B      		or r24,r18
 223 00ac 8093 0000 		sts send8,r24
 224               	.LM50:
 225 00b0 90E0      		ldi r25,lo8(0)
 226 00b2 0E94 0000 		call SPI_WriteByte
 227               	.LVL8:
 228               	.LM51:
 229 00b6 0093 0000 		sts send8,r16
 230               	.LM52:
 231 00ba 802F      		mov r24,r16
 232 00bc 90E0      		ldi r25,lo8(0)
 233 00be 0E94 0000 		call SPI_WriteByte
 234               	.LM53:
 235 00c2 5B9A      		sbi 43-32,3
 236               	/* epilogue start */
 237               	.LM54:
 238 00c4 1F91      		pop r17
 239 00c6 0F91      		pop r16
 240               	.LVL9:
 241 00c8 0895      		ret
 242               	.LFE10:
 244               	.global	set_reverser
 246               	set_reverser:
 247               	.LFB14:
 248               	.LM55:
 249               	.LVL10:
 250               	/* prologue: function */
 251               	/* frame size = 0 */
 252               	/* epilogue start */
 253               	.LM56:
 254 00ca 0895      		ret
 255               	.LFE14:
 257               	.global	main
 259               	main:
 260               	.LFB15:
 261               	.LM57:
 262 00cc 1F93      		push r17
 263               	/* prologue: function */
 264               	/* frame size = 0 */
 265               	.LM58:
 266 00ce 88B1      		in r24,40-32
 267 00d0 88B9      		out 40-32,r24
 268               	.LM59:
 269 00d2 8EE1      		ldi r24,lo8(30)
 270 00d4 87B9      		out 39-32,r24
 271               	.LM60:
 272 00d6 8EEF      		ldi r24,lo8(-2)
 273 00d8 8AB9      		out 42-32,r24
 274               	.LM61:
 275 00da 8FE1      		ldi r24,lo8(31)
 276 00dc 84B9      		out 36-32,r24
 277               	.LM62:
 278               	/* #APP */
 279               	 ;  234 "main.c" 1
 280 00de 7894      		sei
 281               	 ;  0 "" 2
 282               	/* #NOAPP */
 283               	.LBB11:
 284               	.LBB12:
 285               	.LM63:
 286 00e0 8CE2      		ldi r24,lo8(44)
 287 00e2 84B9      		out 36-32,r24
 288               	.LM64:
 289 00e4 8AE5      		ldi r24,lo8(90)
 290 00e6 8CBD      		out 76-32,r24
 291               	.LBE12:
 292               	.LBE11:
 293               	.LBB13:
 294               	.LBB14:
 295               	.LM65:
 296 00e8 1092 B000 		sts 176,__zero_reg__
 297               	.LM66:
 298 00ec 1092 B100 		sts 177,__zero_reg__
 299               	.LM67:
 300 00f0 8091 B100 		lds r24,177
 301 00f4 8260      		ori r24,lo8(2)
 302 00f6 8093 B100 		sts 177,r24
 303               	.LM68:
 304 00fa 81E0      		ldi r24,lo8(1)
 305 00fc 8093 7000 		sts 112,r24
 306               	.LBE14:
 307               	.LBE13:
 308               	.LBB15:
 309               	.LBB16:
 310               	.LM69:
 311 0100 1092 C500 		sts 197,__zero_reg__
 312               	.LM70:
 313 0104 83E3      		ldi r24,lo8(51)
 314 0106 8093 C400 		sts 196,r24
 315               	.LM71:
 316 010a 88E9      		ldi r24,lo8(-104)
 317 010c 8093 C100 		sts 193,r24
 318               	.LM72:
 319 0110 8EE0      		ldi r24,lo8(14)
 320 0112 8093 C200 		sts 194,r24
 321               	.LBE16:
 322               	.LBE15:
 323               	.LBB17:
 324               	.LBB18:
 325               	.LM73:
 326 0116 8091 7A00 		lds r24,122
 327 011a 8368      		ori r24,lo8(-125)
 328 011c 8093 7A00 		sts 122,r24
 329               	.LM74:
 330 0120 8091 7C00 		lds r24,124
 331 0124 8064      		ori r24,lo8(64)
 332 0126 8093 7C00 		sts 124,r24
 333               	.LBE18:
 334               	.LBE17:
 335               	.LM75:
 336 012a 8091 7A00 		lds r24,122
 337 012e 8064      		ori r24,lo8(64)
 338 0130 8093 7A00 		sts 122,r24
 339               	.LM76:
 340 0134 8091 7800 		lds r24,120
 341               	.LM77:
 342 0138 8091 7800 		lds r24,120
 343 013c 10E0      		ldi r17,lo8(0)
 344               	.L22:
 345               	.LBB19:
 346               	.LM78:
 347 013e 80E0      		ldi r24,lo8(0)
 348 0140 90E0      		ldi r25,hi8(0)
 349 0142 612F      		mov r22,r17
 350 0144 0E94 0000 		call setDAC
 351 0148 1F5F      		subi r17,lo8(-(1))
 352               	.LM79:
 353 014a 1830      		cpi r17,lo8(8)
 354 014c 01F4      		brne .L22
 355               	.LBE19:
 356               	.LM80:
 357 014e 5A98      		cbi 43-32,2
 358               	.LM81:
 359 0150 5A9A      		sbi 43-32,2
 360               	.LM82:
 361 0152 0E94 0000 		call separMult
 362               	.L23:
 363 0156 00C0      		rjmp .L23
 364               	.LFE15:
 366               	.global	__vector_9
 368               	__vector_9:
 369               	.LFB16:
 370               	.LM83:
 371 0158 1F92      		push __zero_reg__
 372 015a 0F92      		push r0
 373 015c 0FB6      		in r0,__SREG__
 374 015e 0F92      		push r0
 375 0160 1124      		clr __zero_reg__
 376 0162 2F93      		push r18
 377 0164 3F93      		push r19
 378 0166 4F93      		push r20
 379 0168 5F93      		push r21
 380 016a 6F93      		push r22
 381 016c 7F93      		push r23
 382 016e 8F93      		push r24
 383 0170 9F93      		push r25
 384 0172 AF93      		push r26
 385 0174 BF93      		push r27
 386 0176 EF93      		push r30
 387 0178 FF93      		push r31
 388               	/* prologue: Signal */
 389               	/* frame size = 0 */
 390               	.LM84:
 391 017a 2091 0000 		lds r18,ctr
 392 017e 3091 0000 		lds r19,(ctr)+1
 393 0182 8091 0000 		lds r24,time_step
 394 0186 9091 0000 		lds r25,(time_step)+1
 395 018a 8217      		cp r24,r18
 396 018c 9307      		cpc r25,r19
 397 018e 04F0      		brlt .+2
 398 0190 00C0      		rjmp .L27
 399               	.LM85:
 400 0192 6091 0000 		lds r22,MD
 401 0196 6623      		tst r22
 402 0198 01F0      		breq .+2
 403 019a 00C0      		rjmp .L28
 404               	.LM86:
 405 019c 2091 0000 		lds r18,event_cnt
 406 01a0 3091 0000 		lds r19,(event_cnt)+1
 407 01a4 2130      		cpi r18,1
 408 01a6 3105      		cpc r19,__zero_reg__
 409 01a8 01F4      		brne .L29
 410               	.LM87:
 411 01aa 9091 7800 		lds r25,120
 412 01ae 9093 0000 		sts ADCL_,r25
 413               	.LM88:
 414 01b2 8091 7900 		lds r24,121
 415 01b6 8093 0000 		sts ADCH_,r24
 416               	.LM89:
 417 01ba 9093 C600 		sts 198,r25
 418 01be 00C0      		rjmp .L30
 419               	.L29:
 420               	.LM90:
 421 01c0 2230      		cpi r18,2
 422 01c2 3105      		cpc r19,__zero_reg__
 423 01c4 01F4      		brne .L31
 424               	.LM91:
 425 01c6 8091 0000 		lds r24,ADCH_
 426 01ca 8093 C600 		sts 198,r24
 427 01ce 00C0      		rjmp .L30
 428               	.L31:
 429               	.LM92:
 430 01d0 2115      		cp r18,__zero_reg__
 431 01d2 3105      		cpc r19,__zero_reg__
 432 01d4 01F4      		brne .L30
 433               	.LM93:
 434 01d6 8FEF      		ldi r24,lo8(-1)
 435 01d8 8093 C600 		sts 198,r24
 436               	.LM94:
 437 01dc 8091 0000 		lds r24,x16
 438 01e0 9091 0000 		lds r25,(x16)+1
 439 01e4 6091 0000 		lds r22,chan
 440 01e8 0E94 0000 		call setDAC
 441               	.LM95:
 442 01ec 8091 0000 		lds r24,x16
 443 01f0 9091 0000 		lds r25,(x16)+1
 444 01f4 00C0      		rjmp .L71
 445               	.L30:
 446               	.LM96:
 447 01f6 8091 0000 		lds r24,t1
 448 01fa 90E0      		ldi r25,lo8(0)
 449 01fc 2817      		cp r18,r24
 450 01fe 3907      		cpc r19,r25
 451 0200 01F4      		brne .+2
 452 0202 00C0      		rjmp .L81
 453               	.L33:
 454               	.LM97:
 455 0204 8091 0000 		lds r24,dT
 456 0208 90E0      		ldi r25,lo8(0)
 457 020a 2817      		cp r18,r24
 458 020c 3907      		cpc r19,r25
 459 020e 01F4      		brne .+2
 460 0210 00C0      		rjmp .L82
 461               	.L34:
 462               	.LM98:
 463 0212 0196      		adiw r24,1
 464 0214 2817      		cp r18,r24
 465 0216 3907      		cpc r19,r25
 466 0218 01F4      		brne .+2
 467 021a 00C0      		rjmp .L73
 468               	.L35:
 469               	.LM99:
 470 021c 8091 0000 		lds r24,dTt2
 471 0220 90E0      		ldi r25,lo8(0)
 472 0222 2817      		cp r18,r24
 473 0224 3907      		cpc r19,r25
 474 0226 01F0      		breq .+2
 475 0228 00C0      		rjmp .L32
 476               	.LM100:
 477 022a 8091 C000 		lds r24,192
 478 022e 85FF      		sbrs r24,5
 479 0230 00C0      		rjmp .L36
 480               	.LM101:
 481 0232 8091 0000 		lds r24,_adc
 482 0236 8093 C600 		sts 198,r24
 483               	.L36:
 484               	.LM102:
 485 023a 1092 0000 		sts (accum)+1,__zero_reg__
 486 023e 1092 0000 		sts accum,__zero_reg__
 487               	.LM103:
 488 0242 1092 0000 		sts ADC_on,__zero_reg__
 489               	.LM104:
 490 0246 1092 0000 		sts accum_cnt,__zero_reg__
 491               	.LM105:
 492 024a 80E0      		ldi r24,lo8(0)
 493 024c 90E0      		ldi r25,hi8(0)
 494 024e 6091 0000 		lds r22,chan
 495 0252 00C0      		rjmp .L83
 496               	.L28:
 497               	.LM106:
 498 0254 6130      		cpi r22,lo8(1)
 499 0256 01F0      		breq .+2
 500 0258 00C0      		rjmp .L37
 501               	.LBB20:
 502               	.LM107:
 503 025a 8091 0000 		lds r24,i.1470
 504 025e 9091 0000 		lds r25,(i.1470)+1
 505 0262 0196      		adiw r24,1
 506 0264 9093 0000 		sts (i.1470)+1,r25
 507 0268 8093 0000 		sts i.1470,r24
 508               	.LM108:
 509 026c 8091 0000 		lds r24,UDP_cnt
 510 0270 8130      		cpi r24,lo8(1)
 511 0272 01F0      		breq .L40
 512 0274 8130      		cpi r24,lo8(1)
 513 0276 00F0      		brlo .L39
 514 0278 8230      		cpi r24,lo8(2)
 515 027a 01F0      		breq .L41
 516 027c 8330      		cpi r24,lo8(3)
 517 027e 01F0      		breq .+2
 518 0280 00C0      		rjmp .L38
 519 0282 00C0      		rjmp .L84
 520               	.L39:
 521               	.LM109:
 522 0284 8091 7A00 		lds r24,122
 523 0288 8064      		ori r24,lo8(64)
 524 028a 8093 7A00 		sts 122,r24
 525               	.LM110:
 526 028e 8FEF      		ldi r24,lo8(-1)
 527 0290 00C0      		rjmp .L70
 528               	.L40:
 529               	.LM111:
 530 0292 8091 0000 		lds r24,ADCL_
 531 0296 8093 0000 		sts ADCL__,r24
 532               	.LM112:
 533 029a 8091 0000 		lds r24,ADCH_
 534 029e 8093 0000 		sts ADCH__,r24
 535               	.LM113:
 536 02a2 9091 7800 		lds r25,120
 537 02a6 9093 0000 		sts ADCL_,r25
 538               	.LM114:
 539 02aa 8091 7900 		lds r24,121
 540 02ae 8093 0000 		sts ADCH_,r24
 541               	.LM115:
 542 02b2 9093 C600 		sts 198,r25
 543 02b6 00C0      		rjmp .L38
 544               	.L41:
 545               	.LM116:
 546 02b8 8091 0000 		lds r24,ADCH_
 547               	.L70:
 548 02bc 8093 C600 		sts 198,r24
 549 02c0 00C0      		rjmp .L38
 550               	.L84:
 551               	.LM117:
 552 02c2 2091 0000 		lds r18,VAC16
 553 02c6 3091 0000 		lds r19,(VAC16)+1
 554 02ca 3093 0000 		sts (VAC16_H)+1,r19
 555 02ce 2093 0000 		sts VAC16_H,r18
 556               	.LM118:
 557 02d2 8091 0000 		lds r24,pos_phase
 558 02d6 8823      		tst r24
 559 02d8 01F0      		breq .L43
 560               	.LM119:
 561 02da 205E      		subi r18,lo8(-(32))
 562 02dc 3F4F      		sbci r19,hi8(-(32))
 563 02de 3093 0000 		sts (VAC16)+1,r19
 564 02e2 2093 0000 		sts VAC16,r18
 565               	.LM120:
 566 02e6 8091 0000 		lds r24,y16
 567 02ea 9091 0000 		lds r25,(y16)+1
 568 02ee 2817      		cp r18,r24
 569 02f0 3907      		cpc r19,r25
 570 02f2 04F0      		brlt .L44
 571               	.LM121:
 572 02f4 1092 0000 		sts pos_phase,__zero_reg__
 573 02f8 00C0      		rjmp .L44
 574               	.L43:
 575               	.LM122:
 576 02fa C901      		movw r24,r18
 577 02fc 8097      		sbiw r24,32
 578 02fe 9093 0000 		sts (VAC16)+1,r25
 579 0302 8093 0000 		sts VAC16,r24
 580               	.LM123:
 581 0306 21E0      		ldi r18,lo8(1)
 582 0308 30E0      		ldi r19,hi8(1)
 583 030a 4091 0000 		lds r20,x16
 584 030e 5091 0000 		lds r21,(x16)+1
 585 0312 241B      		sub r18,r20
 586 0314 350B      		sbc r19,r21
 587 0316 8217      		cp r24,r18
 588 0318 9307      		cpc r25,r19
 589 031a 04F4      		brge .L44
 590               	.LM124:
 591 031c 6093 0000 		sts pos_phase,r22
 592               	.L44:
 593               	.LM125:
 594 0320 8091 0000 		lds r24,VAC16
 595 0324 9091 0000 		lds r25,(VAC16)+1
 596 0328 9C01      		movw r18,r24
 597 032a 74E0      		ldi r23,4
 598 032c 3595      	1:	asr r19
 599 032e 2795      		ror r18
 600 0330 7A95      		dec r23
 601 0332 01F4      		brne 1b
 602 0334 2093 C600 		sts 198,r18
 603               	.LM126:
 604 0338 6091 0000 		lds r22,chan
 605 033c 0E94 0000 		call setDAC
 606               	.LM127:
 607 0340 5A98      		cbi 43-32,2
 608               	.LM128:
 609 0342 5A9A      		sbi 43-32,2
 610               	.L38:
 611               	.LM129:
 612 0344 8091 0000 		lds r24,UDP_cnt
 613 0348 8F5F      		subi r24,lo8(-(1))
 614 034a 8370      		andi r24,lo8(3)
 615 034c 8093 0000 		sts UDP_cnt,r24
 616 0350 00C0      		rjmp .L32
 617               	.L37:
 618               	.LBE20:
 619               	.LM130:
 620 0352 6230      		cpi r22,lo8(2)
 621 0354 01F0      		breq .+2
 622 0356 00C0      		rjmp .L45
 623               	.LBB21:
 624               	.LM131:
 625 0358 80E1      		ldi r24,lo8(16)
 626 035a 8093 0000 		sts T,r24
 627               	.LM132:
 628 035e 4091 0000 		lds r20,event_cnt
 629 0362 5091 0000 		lds r21,(event_cnt)+1
 630 0366 4130      		cpi r20,1
 631 0368 5105      		cpc r21,__zero_reg__
 632 036a 01F4      		brne .L46
 633               	.LM133:
 634 036c 8091 0000 		lds r24,PROGRAM_done
 635 0370 8093 C600 		sts 198,r24
 636 0374 00C0      		rjmp .L47
 637               	.L46:
 638               	.LM134:
 639 0376 4230      		cpi r20,2
 640 0378 5105      		cpc r21,__zero_reg__
 641 037a 01F4      		brne .L48
 642               	.LM135:
 643 037c 9091 7800 		lds r25,120
 644 0380 9093 0000 		sts ADCL_,r25
 645               	.LM136:
 646 0384 8091 7900 		lds r24,121
 647 0388 8093 0000 		sts ADCH_,r24
 648               	.LM137:
 649 038c 9093 C600 		sts 198,r25
 650 0390 00C0      		rjmp .L49
 651               	.L48:
 652               	.LM138:
 653 0392 4330      		cpi r20,3
 654 0394 5105      		cpc r21,__zero_reg__
 655 0396 01F4      		brne .L50
 656               	.LM139:
 657 0398 8091 0000 		lds r24,ADCH_
 658 039c 8093 C600 		sts 198,r24
 659               	.LM140:
 660 03a0 382F      		mov r19,r24
 661 03a2 20E0      		ldi r18,lo8(0)
 662 03a4 8091 0000 		lds r24,ADCL_
 663 03a8 90E0      		ldi r25,lo8(0)
 664 03aa 822B      		or r24,r18
 665 03ac 932B      		or r25,r19
 666 03ae 9093 0000 		sts (_adc)+1,r25
 667 03b2 8093 0000 		sts _adc,r24
 668               	.LM141:
 669 03b6 20E0      		ldi r18,lo8(512)
 670 03b8 32E0      		ldi r19,hi8(512)
 671 03ba 281B      		sub r18,r24
 672 03bc 390B      		sbc r19,r25
 673 03be 3093 0000 		sts (adc_h.1476)+1,r19
 674 03c2 2093 0000 		sts adc_h.1476,r18
 675               	.LM142:
 676 03c6 8091 0000 		lds r24,t1
 677 03ca 90E0      		ldi r25,lo8(0)
 678 03cc 2817      		cp r18,r24
 679 03ce 3907      		cpc r19,r25
 680 03d0 01F0      		breq .+2
 681 03d2 00C0      		rjmp .L47
 682               	.LM143:
 683 03d4 81E0      		ldi r24,lo8(1)
 684 03d6 8093 0000 		sts PROGRAM_done,r24
 685               	.LM144:
 686 03da 1092 0000 		sts (prog_val)+1,__zero_reg__
 687 03de 1092 0000 		sts prog_val,__zero_reg__
 688 03e2 00C0      		rjmp .L51
 689               	.L50:
 690               	.LM145:
 691 03e4 4115      		cp r20,__zero_reg__
 692 03e6 5105      		cpc r21,__zero_reg__
 693 03e8 01F4      		brne .L47
 694               	.LM146:
 695 03ea 8FEF      		ldi r24,lo8(-1)
 696 03ec 8093 C600 		sts 198,r24
 697               	.LM147:
 698 03f0 2091 0000 		lds r18,prog_val
 699 03f4 3091 0000 		lds r19,(prog_val)+1
 700 03f8 205E      		subi r18,lo8(-(32))
 701 03fa 3F4F      		sbci r19,hi8(-(32))
 702 03fc 3093 0000 		sts (prog_val)+1,r19
 703 0400 2093 0000 		sts prog_val,r18
 704               	.LM148:
 705 0404 4091 0000 		lds r20,x16
 706 0408 5091 0000 		lds r21,(x16)+1
 707 040c 80E2      		ldi r24,lo8(32)
 708 040e 90E0      		ldi r25,hi8(32)
 709 0410 841B      		sub r24,r20
 710 0412 950B      		sbc r25,r21
 711 0414 2817      		cp r18,r24
 712 0416 3907      		cpc r19,r25
 713 0418 01F4      		brne .L52
 714               	.LM149:
 715 041a 1092 0000 		sts (prog_val)+1,__zero_reg__
 716 041e 1092 0000 		sts prog_val,__zero_reg__
 717 0422 00C0      		rjmp .L53
 718               	.L52:
 719               	.LM150:
 720 0424 8091 0000 		lds r24,t2
 721 0428 90E0      		ldi r25,lo8(0)
 722 042a 64E0      		ldi r22,4
 723 042c 880F      	1:	lsl r24
 724 042e 991F      		rol r25
 725 0430 6A95      		dec r22
 726 0432 01F4      		brne 1b
 727 0434 8217      		cp r24,r18
 728 0436 9307      		cpc r25,r19
 729 0438 04F4      		brge .L53
 730               	.LM151:
 731 043a 8827      		clr r24
 732 043c 9927      		clr r25
 733 043e 841B      		sub r24,r20
 734 0440 950B      		sbc r25,r21
 735 0442 9093 0000 		sts (prog_val)+1,r25
 736 0446 8093 0000 		sts prog_val,r24
 737               	.L53:
 738               	.LM152:
 739 044a 8091 0000 		lds r24,PROGRAM_done
 740 044e 8823      		tst r24
 741 0450 01F0      		breq .L54
 742               	.LM153:
 743 0452 1092 0000 		sts (prog_val)+1,__zero_reg__
 744 0456 1092 0000 		sts prog_val,__zero_reg__
 745               	.L54:
 746               	.LM154:
 747 045a 8091 0000 		lds r24,prog_val
 748 045e 9091 0000 		lds r25,(prog_val)+1
 749 0462 00C0      		rjmp .L78
 750               	.L47:
 751               	.LM155:
 752 0464 4730      		cpi r20,7
 753 0466 5105      		cpc r21,__zero_reg__
 754 0468 01F0      		breq .L81
 755               	.L49:
 756               	.LM156:
 757 046a 4930      		cpi r20,9
 758 046c 5105      		cpc r21,__zero_reg__
 759 046e 01F4      		brne .L51
 760               	.L82:
 761               	.LM157:
 762 0470 8091 0000 		lds r24,y16
 763 0474 9091 0000 		lds r25,(y16)+1
 764 0478 00C0      		rjmp .L78
 765               	.L51:
 766               	.LM158:
 767 047a 4A30      		cpi r20,10
 768 047c 5105      		cpc r21,__zero_reg__
 769 047e 01F4      		brne .+2
 770 0480 00C0      		rjmp .L73
 771               	.L55:
 772               	.LM159:
 773 0482 4E30      		cpi r20,14
 774 0484 5105      		cpc r21,__zero_reg__
 775 0486 01F0      		breq .+2
 776 0488 00C0      		rjmp .L32
 777               	.LM160:
 778 048a 1092 0000 		sts (accum)+1,__zero_reg__
 779 048e 1092 0000 		sts accum,__zero_reg__
 780               	.LM161:
 781 0492 1092 0000 		sts ADC_on,__zero_reg__
 782               	.LM162:
 783 0496 1092 0000 		sts accum_cnt,__zero_reg__
 784               	.L81:
 785               	.LM163:
 786 049a 80E0      		ldi r24,lo8(0)
 787 049c 90E0      		ldi r25,hi8(0)
 788               	.L78:
 789 049e 6091 0000 		lds r22,chan
 790 04a2 00C0      		rjmp .L72
 791               	.L45:
 792               	.LBE21:
 793               	.LM164:
 794 04a4 6530      		cpi r22,lo8(5)
 795 04a6 01F0      		breq .+2
 796 04a8 00C0      		rjmp .L32
 797               	.LM165:
 798 04aa 8091 0000 		lds r24,event_cnt
 799 04ae 9091 0000 		lds r25,(event_cnt)+1
 800 04b2 0097      		sbiw r24,0
 801 04b4 01F0      		breq .L74
 802               	.L56:
 803               	.LM166:
 804 04b6 8130      		cpi r24,1
 805 04b8 9105      		cpc r25,__zero_reg__
 806 04ba 01F4      		brne .L57
 807               	.LM167:
 808 04bc 80E8      		ldi r24,lo8(1920)
 809 04be 97E0      		ldi r25,hi8(1920)
 810 04c0 63E0      		ldi r22,lo8(3)
 811 04c2 0E94 0000 		call setDAC
 812               	.LM168:
 813 04c6 80E8      		ldi r24,lo8(1920)
 814 04c8 97E0      		ldi r25,hi8(1920)
 815 04ca 00C0      		rjmp .L71
 816               	.L57:
 817               	.LM169:
 818 04cc 8230      		cpi r24,2
 819 04ce 9105      		cpc r25,__zero_reg__
 820 04d0 01F4      		brne .L58
 821               	.LM170:
 822 04d2 80E0      		ldi r24,lo8(0)
 823 04d4 90E0      		ldi r25,hi8(0)
 824 04d6 63E0      		ldi r22,lo8(3)
 825               	.L83:
 826 04d8 0E94 0000 		call setDAC
 827 04dc 00C0      		rjmp .L77
 828               	.L58:
 829               	.LM171:
 830 04de 8330      		cpi r24,3
 831 04e0 9105      		cpc r25,__zero_reg__
 832 04e2 01F4      		brne .L59
 833               	.LM172:
 834 04e4 0E94 0000 		call gatherMult
 835 04e8 00C0      		rjmp .L32
 836               	.L59:
 837               	.LM173:
 838 04ea 8430      		cpi r24,4
 839 04ec 9105      		cpc r25,__zero_reg__
 840 04ee 01F4      		brne .L60
 841               	.LM174:
 842 04f0 8091 0000 		lds r24,x16
 843 04f4 9091 0000 		lds r25,(x16)+1
 844 04f8 00C0      		rjmp .L80
 845               	.L60:
 846               	.LM175:
 847 04fa 8530      		cpi r24,5
 848 04fc 9105      		cpc r25,__zero_reg__
 849 04fe 01F0      		breq .L79
 850               	.L61:
 851               	.LM176:
 852 0500 8630      		cpi r24,6
 853 0502 9105      		cpc r25,__zero_reg__
 854 0504 01F4      		brne .L62
 855               	.LM177:
 856 0506 8FEF      		ldi r24,lo8(-1)
 857 0508 8093 C600 		sts 198,r24
 858               	.L74:
 859               	.LM178:
 860 050c 0E94 0000 		call separMult
 861 0510 00C0      		rjmp .L32
 862               	.L62:
 863               	.LM179:
 864 0512 8730      		cpi r24,7
 865 0514 9105      		cpc r25,__zero_reg__
 866 0516 01F4      		brne .L63
 867               	.LM180:
 868 0518 8091 0000 		lds r24,y16
 869 051c 9091 0000 		lds r25,(y16)+1
 870 0520 63E0      		ldi r22,lo8(3)
 871               	.L76:
 872 0522 0E94 0000 		call setDAC
 873               	.LM181:
 874 0526 5A98      		cbi 43-32,2
 875               	.LM182:
 876 0528 5A9A      		sbi 43-32,2
 877               	.L73:
 878               	.LM183:
 879 052a 8091 7A00 		lds r24,122
 880 052e 8064      		ori r24,lo8(64)
 881 0530 8093 7A00 		sts 122,r24
 882 0534 00C0      		rjmp .L32
 883               	.L63:
 884               	.LM184:
 885 0536 8930      		cpi r24,9
 886 0538 9105      		cpc r25,__zero_reg__
 887 053a 01F0      		breq .L75
 888               	.L64:
 889               	.LM185:
 890 053c 8A30      		cpi r24,10
 891 053e 9105      		cpc r25,__zero_reg__
 892 0540 01F4      		brne .L65
 893               	.LM186:
 894 0542 8091 0000 		lds r24,ADCH_
 895 0546 8093 C600 		sts 198,r24
 896               	.L79:
 897               	.LM187:
 898 054a 80E0      		ldi r24,lo8(0)
 899 054c 90E0      		ldi r25,hi8(0)
 900               	.L80:
 901 054e 63E0      		ldi r22,lo8(3)
 902 0550 00C0      		rjmp .L72
 903               	.L65:
 904               	.LM188:
 905 0552 8B30      		cpi r24,11
 906 0554 9105      		cpc r25,__zero_reg__
 907 0556 01F4      		brne .L66
 908               	.LM189:
 909 0558 8091 0000 		lds r24,y16
 910 055c 9091 0000 		lds r25,(y16)+1
 911 0560 62E0      		ldi r22,lo8(2)
 912 0562 00C0      		rjmp .L76
 913               	.L66:
 914               	.LM190:
 915 0564 8D30      		cpi r24,13
 916 0566 9105      		cpc r25,__zero_reg__
 917 0568 01F4      		brne .L67
 918               	.L75:
 919               	.LM191:
 920 056a 9091 7800 		lds r25,120
 921 056e 9093 0000 		sts ADCL_,r25
 922               	.LM192:
 923 0572 8091 7900 		lds r24,121
 924 0576 8093 0000 		sts ADCH_,r24
 925               	.LM193:
 926 057a 9093 C600 		sts 198,r25
 927 057e 00C0      		rjmp .L32
 928               	.L67:
 929               	.LM194:
 930 0580 0E97      		sbiw r24,14
 931 0582 01F4      		brne .L32
 932               	.LM195:
 933 0584 8091 0000 		lds r24,ADCH_
 934 0588 8093 C600 		sts 198,r24
 935               	.L77:
 936               	.LM196:
 937 058c 80E0      		ldi r24,lo8(0)
 938 058e 90E0      		ldi r25,hi8(0)
 939               	.L71:
 940 0590 62E0      		ldi r22,lo8(2)
 941               	.L72:
 942 0592 0E94 0000 		call setDAC
 943               	.LM197:
 944 0596 5A98      		cbi 43-32,2
 945               	.LM198:
 946 0598 5A9A      		sbi 43-32,2
 947               	.L32:
 948               	.LM199:
 949 059a 1092 0000 		sts (ctr)+1,__zero_reg__
 950 059e 1092 0000 		sts ctr,__zero_reg__
 951               	.LM200:
 952 05a2 8091 0000 		lds r24,MD
 953 05a6 2091 0000 		lds r18,event_cnt
 954 05aa 3091 0000 		lds r19,(event_cnt)+1
 955 05ae 8530      		cpi r24,lo8(5)
 956 05b0 01F0      		breq .L68
 957               	.LM201:
 958 05b2 2F5F      		subi r18,lo8(-(1))
 959 05b4 3F4F      		sbci r19,hi8(-(1))
 960 05b6 3093 0000 		sts (event_cnt)+1,r19
 961 05ba 2093 0000 		sts event_cnt,r18
 962               	.LM202:
 963 05be 8091 0000 		lds r24,T
 964 05c2 90E0      		ldi r25,lo8(0)
 965 05c4 8217      		cp r24,r18
 966 05c6 9307      		cpc r25,r19
 967 05c8 04F4      		brge .L27
 968               	.LM203:
 969 05ca 1092 0000 		sts (event_cnt)+1,__zero_reg__
 970 05ce 1092 0000 		sts event_cnt,__zero_reg__
 971 05d2 00C0      		rjmp .L27
 972               	.L68:
 973               	.LM204:
 974 05d4 2E31      		cpi r18,30
 975 05d6 3105      		cpc r19,__zero_reg__
 976 05d8 04F4      		brge .L27
 977               	.LM205:
 978 05da 2F5F      		subi r18,lo8(-(1))
 979 05dc 3F4F      		sbci r19,hi8(-(1))
 980 05de 3093 0000 		sts (event_cnt)+1,r19
 981 05e2 2093 0000 		sts event_cnt,r18
 982               	.L27:
 983               	.LM206:
 984 05e6 8091 0000 		lds r24,ctr
 985 05ea 9091 0000 		lds r25,(ctr)+1
 986 05ee 0196      		adiw r24,1
 987 05f0 9093 0000 		sts (ctr)+1,r25
 988 05f4 8093 0000 		sts ctr,r24
 989               	/* epilogue start */
 990               	.LM207:
 991 05f8 FF91      		pop r31
 992 05fa EF91      		pop r30
 993 05fc BF91      		pop r27
 994 05fe AF91      		pop r26
 995 0600 9F91      		pop r25
 996 0602 8F91      		pop r24
 997 0604 7F91      		pop r23
 998 0606 6F91      		pop r22
 999 0608 5F91      		pop r21
 1000 060a 4F91      		pop r20
 1001 060c 3F91      		pop r19
 1002 060e 2F91      		pop r18
 1003 0610 0F90      		pop r0
 1004 0612 0FBE      		out __SREG__,r0
 1005 0614 0F90      		pop r0
 1006 0616 1F90      		pop __zero_reg__
 1007 0618 1895      		reti
 1008               	.LFE16:
 1010               	.global	__vector_18
 1012               	__vector_18:
 1013               	.LFB17:
 1014               	.LM208:
 1015 061a 1F92      		push __zero_reg__
 1016 061c 0F92      		push r0
 1017 061e 0FB6      		in r0,__SREG__
 1018 0620 0F92      		push r0
 1019 0622 1124      		clr __zero_reg__
 1020 0624 2F93      		push r18
 1021 0626 3F93      		push r19
 1022 0628 4F93      		push r20
 1023 062a 5F93      		push r21
 1024 062c 6F93      		push r22
 1025 062e 7F93      		push r23
 1026 0630 8F93      		push r24
 1027 0632 9F93      		push r25
 1028 0634 AF93      		push r26
 1029 0636 BF93      		push r27
 1030 0638 EF93      		push r30
 1031 063a FF93      		push r31
 1032               	/* prologue: Signal */
 1033               	/* frame size = 0 */
 1034               	.LM209:
 1035 063c 8091 0000 		lds r24,ptr
 1036 0640 8430      		cpi r24,lo8(4)
 1037 0642 01F4      		brne .+2
 1038 0644 00C0      		rjmp .L91
 1039 0646 8530      		cpi r24,lo8(5)
 1040 0648 00F4      		brsh .L97
 1041 064a 8130      		cpi r24,lo8(1)
 1042 064c 01F0      		breq .L88
 1043 064e 8130      		cpi r24,lo8(1)
 1044 0650 00F0      		brlo .L87
 1045 0652 8230      		cpi r24,lo8(2)
 1046 0654 01F4      		brne .+2
 1047 0656 00C0      		rjmp .L89
 1048 0658 8330      		cpi r24,lo8(3)
 1049 065a 01F0      		breq .+2
 1050 065c 00C0      		rjmp .L86
 1051 065e 00C0      		rjmp .L104
 1052               	.L97:
 1053 0660 8730      		cpi r24,lo8(7)
 1054 0662 01F4      		brne .+2
 1055 0664 00C0      		rjmp .L94
 1056 0666 8830      		cpi r24,lo8(8)
 1057 0668 00F4      		brsh .L98
 1058 066a 8530      		cpi r24,lo8(5)
 1059 066c 01F4      		brne .+2
 1060 066e 00C0      		rjmp .L92
 1061 0670 8630      		cpi r24,lo8(6)
 1062 0672 01F0      		breq .+2
 1063 0674 00C0      		rjmp .L86
 1064 0676 00C0      		rjmp .L105
 1065               	.L98:
 1066 0678 8830      		cpi r24,lo8(8)
 1067 067a 01F4      		brne .+2
 1068 067c 00C0      		rjmp .L95
 1069 067e 8930      		cpi r24,lo8(9)
 1070 0680 01F0      		breq .+2
 1071 0682 00C0      		rjmp .L86
 1072 0684 00C0      		rjmp .L106
 1073               	.L87:
 1074               	.LM210:
 1075 0686 8091 C600 		lds r24,198
 1076 068a 8F3F      		cpi r24,lo8(-1)
 1077 068c 01F0      		breq .L99
 1078               	.LM211:
 1079 068e 1092 0000 		sts sync,__zero_reg__
 1080               	.LM212:
 1081 0692 83E0      		ldi r24,lo8(3)
 1082 0694 8093 0000 		sts ptr,r24
 1083 0698 00C0      		rjmp .L86
 1084               	.L99:
 1085               	.LM213:
 1086 069a 81E0      		ldi r24,lo8(1)
 1087 069c 8093 0000 		sts sync,r24
 1088 06a0 00C0      		rjmp .L86
 1089               	.L88:
 1090               	.LM214:
 1091 06a2 2091 C600 		lds r18,198
 1092 06a6 2093 0000 		sts MD,r18
 1093               	.LM215:
 1094 06aa 2130      		cpi r18,lo8(1)
 1095 06ac 01F4      		brne .L100
 1096               	.LM216:
 1097 06ae 84E0      		ldi r24,lo8(4)
 1098 06b0 90E0      		ldi r25,hi8(4)
 1099 06b2 9093 0000 		sts (time_step)+1,r25
 1100 06b6 8093 0000 		sts time_step,r24
 1101 06ba 00C0      		rjmp .L86
 1102               	.L100:
 1103               	.LM217:
 1104 06bc 86E0      		ldi r24,lo8(6)
 1105 06be 90E0      		ldi r25,hi8(6)
 1106 06c0 9093 0000 		sts (time_step)+1,r25
 1107 06c4 8093 0000 		sts time_step,r24
 1108               	.LM218:
 1109 06c8 2230      		cpi r18,lo8(2)
 1110 06ca 01F0      		breq .+2
 1111 06cc 00C0      		rjmp .L86
 1112               	.LM219:
 1113 06ce 1092 0000 		sts PROGRAM_done,__zero_reg__
 1114               	.LM220:
 1115 06d2 1092 0000 		sts (prog_val)+1,__zero_reg__
 1116 06d6 1092 0000 		sts prog_val,__zero_reg__
 1117 06da 00C0      		rjmp .L86
 1118               	.L89:
 1119               	.LM221:
 1120 06dc 8091 C600 		lds r24,198
 1121 06e0 90E0      		ldi r25,lo8(0)
 1122 06e2 F4E0      		ldi r31,4
 1123 06e4 880F      	1:	lsl r24
 1124 06e6 991F      		rol r25
 1125 06e8 FA95      		dec r31
 1126 06ea 01F4      		brne 1b
 1127 06ec 9093 0000 		sts (x16)+1,r25
 1128 06f0 8093 0000 		sts x16,r24
 1129 06f4 00C0      		rjmp .L86
 1130               	.L104:
 1131               	.LM222:
 1132 06f6 8091 C600 		lds r24,198
 1133 06fa 90E0      		ldi r25,lo8(0)
 1134 06fc E4E0      		ldi r30,4
 1135 06fe 880F      	1:	lsl r24
 1136 0700 991F      		rol r25
 1137 0702 EA95      		dec r30
 1138 0704 01F4      		brne 1b
 1139 0706 9093 0000 		sts (y16)+1,r25
 1140 070a 8093 0000 		sts y16,r24
 1141 070e 00C0      		rjmp .L86
 1142               	.L91:
 1143               	.LM223:
 1144 0710 8091 C600 		lds r24,198
 1145 0714 8093 0000 		sts t1,r24
 1146 0718 00C0      		rjmp .L86
 1147               	.L92:
 1148               	.LM224:
 1149 071a 8091 C600 		lds r24,198
 1150 071e 8093 0000 		sts t2,r24
 1151 0722 00C0      		rjmp .L86
 1152               	.L105:
 1153               	.LM225:
 1154 0724 8091 C600 		lds r24,198
 1155 0728 8093 0000 		sts dT,r24
 1156 072c 00C0      		rjmp .L86
 1157               	.L94:
 1158               	.LM226:
 1159 072e 8091 C600 		lds r24,198
 1160 0732 8093 0000 		sts T,r24
 1161 0736 00C0      		rjmp .L86
 1162               	.L95:
 1163               	.LM227:
 1164 0738 8091 C600 		lds r24,198
 1165 073c 8093 0000 		sts chan,r24
 1166 0740 00C0      		rjmp .L86
 1167               	.L106:
 1168               	.LM228:
 1169 0742 8091 C600 		lds r24,198
 1170 0746 E091 0000 		lds r30,chan
 1171 074a F0E0      		ldi r31,lo8(0)
 1172 074c E050      		subi r30,lo8(-(reverted))
 1173 074e F040      		sbci r31,hi8(-(reverted))
 1174 0750 8083      		st Z,r24
 1175               	.LM229:
 1176 0752 8091 0000 		lds r24,MD
 1177 0756 8330      		cpi r24,lo8(3)
 1178 0758 01F4      		brne .L101
 1179               	.LM230:
 1180 075a 0E94 0000 		call gatherMult
 1181 075e 00C0      		rjmp .L102
 1182               	.L101:
 1183               	.LM231:
 1184 0760 8430      		cpi r24,lo8(4)
 1185 0762 01F4      		brne .L102
 1186               	.LM232:
 1187 0764 0E94 0000 		call separMult
 1188               	.L102:
 1189               	.LM233:
 1190 0768 8091 0000 		lds r24,MD
 1191 076c 8530      		cpi r24,lo8(5)
 1192 076e 01F4      		brne .L86
 1193               	.LM234:
 1194 0770 1092 0000 		sts (event_cnt)+1,__zero_reg__
 1195 0774 1092 0000 		sts event_cnt,__zero_reg__
 1196               	.L86:
 1197               	.LM235:
 1198 0778 8091 0000 		lds r24,t2
 1199 077c 9091 0000 		lds r25,dT
 1200 0780 890F      		add r24,r25
 1201 0782 8093 0000 		sts dTt2,r24
 1202               	.LM236:
 1203 0786 8091 0000 		lds r24,ptr
 1204 078a 8F5F      		subi r24,lo8(-(1))
 1205 078c 6AE0      		ldi r22,lo8(10)
 1206 078e 0E94 0000 		call __udivmodqi4
 1207 0792 9093 0000 		sts ptr,r25
 1208               	/* epilogue start */
 1209               	.LM237:
 1210 0796 FF91      		pop r31
 1211 0798 EF91      		pop r30
 1212 079a BF91      		pop r27
 1213 079c AF91      		pop r26
 1214 079e 9F91      		pop r25
 1215 07a0 8F91      		pop r24
 1216 07a2 7F91      		pop r23
 1217 07a4 6F91      		pop r22
 1218 07a6 5F91      		pop r21
 1219 07a8 4F91      		pop r20
 1220 07aa 3F91      		pop r19
 1221 07ac 2F91      		pop r18
 1222 07ae 0F90      		pop r0
 1223 07b0 0FBE      		out __SREG__,r0
 1224 07b2 0F90      		pop r0
 1225 07b4 1F90      		pop __zero_reg__
 1226 07b6 1895      		reti
 1227               	.LFE17:
 1229               	.global	MD
 1230               	.global	MD
 1231               		.section .bss
 1234               	MD:
 1235 0000 00        		.skip 1,0
 1236               	.global	chan_addrs
 1237               		.data
 1240               	chan_addrs:
 1241 0000 00        		.byte	0
 1242 0001 01        		.byte	1
 1243 0002 02        		.byte	2
 1244 0003 03        		.byte	3
 1245 0004 07        		.byte	7
 1246 0005 06        		.byte	6
 1247 0006 05        		.byte	5
 1248 0007 04        		.byte	4
 1249               	.global	VAC16
 1250               	.global	VAC16
 1251               		.section .bss
 1254               	VAC16:
 1255 0001 0000      		.skip 2,0
 1256               	.global	VAC16_H
 1257               	.global	VAC16_H
 1260               	VAC16_H:
 1261 0003 0000      		.skip 2,0
 1262               	.global	VAC16_HH
 1263               	.global	VAC16_HH
 1266               	VAC16_HH:
 1267 0005 0000      		.skip 2,0
 1268               	.global	prog_val
 1269               	.global	prog_val
 1272               	prog_val:
 1273 0007 0000      		.skip 2,0
 1274               	.global	x16
 1275               	.global	x16
 1278               	x16:
 1279 0009 0000      		.skip 2,0
 1280               	.global	y16
 1281               	.global	y16
 1284               	y16:
 1285 000b 0000      		.skip 2,0
 1286               	.global	sync
 1287               	.global	sync
 1290               	sync:
 1291 000d 00        		.skip 1,0
 1292               	.global	t1
 1293               		.data
 1296               	t1:
 1297 0008 02        		.byte	2
 1298               	.global	t2
 1301               	t2:
 1302 0009 02        		.byte	2
 1303               	.global	dTt2
 1306               	dTt2:
 1307 000a 0A        		.byte	10
 1308               	.global	pos_phase
 1311               	pos_phase:
 1312 000b 01        		.byte	1
 1313               	.global	ptr
 1314               	.global	ptr
 1315               		.section .bss
 1318               	ptr:
 1319 000e 00        		.skip 1,0
 1320               	.global	PROGRAM_done
 1321               	.global	PROGRAM_done
 1324               	PROGRAM_done:
 1325 000f 00        		.skip 1,0
 1326               	.global	chan
 1327               	.global	chan
 1330               	chan:
 1331 0010 00        		.skip 1,0
 1332               	.global	reverted
 1333               	.global	reverted
 1336               	reverted:
 1337 0011 0000 0000 		.skip 8,0
 1337      0000 0000 
 1338               	.global	time_step
 1339               		.data
 1342               	time_step:
 1343 000c 0600      		.word	6
 1344               	.global	eventN
 1347               	eventN:
 1348 000e 6400      		.word	100
 1349               		.lcomm adc_h.1476,2
 1350               		.lcomm i.1470,2
 1351               		.comm dT,1,1
 1352               		.comm T,1,1
 1353               		.comm send8,1,1
 1354               		.comm UDP_cnt,1,1
 1355               		.comm c,1,1
 1356               		.comm ADC_on,1,1
 1357               		.comm _adc,2,1
 1358               		.comm ctr,2,1
 1359               		.comm accum,2,1
 1360               		.comm event_cnt,2,1
 1361               		.comm ADC_cnt,2,1
 1362               		.comm ADCH_,1,1
 1363               		.comm ADCL_,1,1
 1364               		.comm ADCH__,1,1
 1365               		.comm ADCL__,1,1
 1366               		.comm accum_cnt,1,1
 1479               	.Letext0:
DEFINED SYMBOLS
                            *ABS*:00000000 main.c
C:\Users\DrPepper\AppData\Local\Temp/ccUDrrFJ.s:2      *ABS*:0000003f __SREG__
C:\Users\DrPepper\AppData\Local\Temp/ccUDrrFJ.s:3      *ABS*:0000003e __SP_H__
C:\Users\DrPepper\AppData\Local\Temp/ccUDrrFJ.s:4      *ABS*:0000003d __SP_L__
C:\Users\DrPepper\AppData\Local\Temp/ccUDrrFJ.s:5      *ABS*:00000034 __CCP__
C:\Users\DrPepper\AppData\Local\Temp/ccUDrrFJ.s:6      *ABS*:00000000 __tmp_reg__
C:\Users\DrPepper\AppData\Local\Temp/ccUDrrFJ.s:7      *ABS*:00000001 __zero_reg__
C:\Users\DrPepper\AppData\Local\Temp/ccUDrrFJ.s:18     .text:00000000 ADC_Init
C:\Users\DrPepper\AppData\Local\Temp/ccUDrrFJ.s:42     .text:00000016 timer_init
C:\Users\DrPepper\AppData\Local\Temp/ccUDrrFJ.s:67     .text:0000002e uart_init
C:\Users\DrPepper\AppData\Local\Temp/ccUDrrFJ.s:92     .text:00000044 SPI_MasterInit
C:\Users\DrPepper\AppData\Local\Temp/ccUDrrFJ.s:110    .text:0000004e gatherMult
C:\Users\DrPepper\AppData\Local\Temp/ccUDrrFJ.s:138    .text:00000060 separMult
C:\Users\DrPepper\AppData\Local\Temp/ccUDrrFJ.s:166    .text:00000072 SPI_WriteByte
C:\Users\DrPepper\AppData\Local\Temp/ccUDrrFJ.s:186    .text:0000007c setDAC
C:\Users\DrPepper\AppData\Local\Temp/ccUDrrFJ.s:1240   .data:00000000 chan_addrs
                            *COM*:00000001 send8
C:\Users\DrPepper\AppData\Local\Temp/ccUDrrFJ.s:246    .text:000000ca set_reverser
C:\Users\DrPepper\AppData\Local\Temp/ccUDrrFJ.s:259    .text:000000cc main
C:\Users\DrPepper\AppData\Local\Temp/ccUDrrFJ.s:368    .text:00000158 __vector_9
                            *COM*:00000002 ctr
C:\Users\DrPepper\AppData\Local\Temp/ccUDrrFJ.s:1342   .data:0000000c time_step
C:\Users\DrPepper\AppData\Local\Temp/ccUDrrFJ.s:1234   .bss:00000000 MD
                            *COM*:00000002 event_cnt
                            *COM*:00000001 ADCL_
                            *COM*:00000001 ADCH_
C:\Users\DrPepper\AppData\Local\Temp/ccUDrrFJ.s:1278   .bss:00000009 x16
C:\Users\DrPepper\AppData\Local\Temp/ccUDrrFJ.s:1330   .bss:00000010 chan
C:\Users\DrPepper\AppData\Local\Temp/ccUDrrFJ.s:1296   .data:00000008 t1
                            *COM*:00000001 dT
C:\Users\DrPepper\AppData\Local\Temp/ccUDrrFJ.s:1306   .data:0000000a dTt2
                            *COM*:00000002 _adc
                            *COM*:00000002 accum
                            *COM*:00000001 ADC_on
                            *COM*:00000001 accum_cnt
C:\Users\DrPepper\AppData\Local\Temp/ccUDrrFJ.s:1349   .bss:0000001b i.1470
                            *COM*:00000001 UDP_cnt
                            *COM*:00000001 ADCL__
                            *COM*:00000001 ADCH__
C:\Users\DrPepper\AppData\Local\Temp/ccUDrrFJ.s:1254   .bss:00000001 VAC16
C:\Users\DrPepper\AppData\Local\Temp/ccUDrrFJ.s:1260   .bss:00000003 VAC16_H
C:\Users\DrPepper\AppData\Local\Temp/ccUDrrFJ.s:1311   .data:0000000b pos_phase
C:\Users\DrPepper\AppData\Local\Temp/ccUDrrFJ.s:1284   .bss:0000000b y16
                            *COM*:00000001 T
C:\Users\DrPepper\AppData\Local\Temp/ccUDrrFJ.s:1324   .bss:0000000f PROGRAM_done
                             .bss:00000019 adc_h.1476
C:\Users\DrPepper\AppData\Local\Temp/ccUDrrFJ.s:1272   .bss:00000007 prog_val
C:\Users\DrPepper\AppData\Local\Temp/ccUDrrFJ.s:1301   .data:00000009 t2
C:\Users\DrPepper\AppData\Local\Temp/ccUDrrFJ.s:1012   .text:0000061a __vector_18
C:\Users\DrPepper\AppData\Local\Temp/ccUDrrFJ.s:1318   .bss:0000000e ptr
C:\Users\DrPepper\AppData\Local\Temp/ccUDrrFJ.s:1290   .bss:0000000d sync
C:\Users\DrPepper\AppData\Local\Temp/ccUDrrFJ.s:1336   .bss:00000011 reverted
C:\Users\DrPepper\AppData\Local\Temp/ccUDrrFJ.s:1266   .bss:00000005 VAC16_HH
C:\Users\DrPepper\AppData\Local\Temp/ccUDrrFJ.s:1347   .data:0000000e eventN
                            *COM*:00000001 c
                            *COM*:00000002 ADC_cnt

UNDEFINED SYMBOLS
__udivmodqi4
__do_copy_data
__do_clear_bss
