   1               		.file	"main.c"
   2               	__SREG__ = 0x3f
   3               	__SP_H__ = 0x3e
   4               	__SP_L__ = 0x3d
   5               	__CCP__  = 0x34
   6               	__tmp_reg__ = 0
   7               	__zero_reg__ = 1
  15               	.Ltext0:
  16               	.global	set_pin
  18               	set_pin:
  19               	.LFB6:
  20               	.LM1:
  21 0000 DF93      		push r29
  22 0002 CF93      		push r28
  23 0004 00D0      		rcall .
  24 0006 0F92      		push __tmp_reg__
  25 0008 CDB7      		in r28,__SP_L__
  26 000a DEB7      		in r29,__SP_H__
  27               	/* prologue: function */
  28               	/* frame size = 3 */
  29 000c 6983      		std Y+1,r22
  30 000e 7A83      		std Y+2,r23
  31 0010 8B83      		std Y+3,r24
  32               	.LM2:
  33 0012 E981      		ldd r30,Y+1
  34 0014 FA81      		ldd r31,Y+2
  35               	.LM3:
  36 0016 21E0      		ldi r18,lo8(1)
  37 0018 30E0      		ldi r19,hi8(1)
  38 001a 00C0      		rjmp 2f
  39 001c 220F      	1:	lsl r18
  40 001e 331F      		rol r19
  41 0020 8A95      	2:	dec r24
  42 0022 02F4      		brpl 1b
  43 0024 8081      		ld r24,Z
  44 0026 822B      		or r24,r18
  45 0028 8083      		st Z,r24
  46               	/* epilogue start */
  47               	.LM4:
  48 002a 0F90      		pop __tmp_reg__
  49 002c 0F90      		pop __tmp_reg__
  50 002e 0F90      		pop __tmp_reg__
  51 0030 CF91      		pop r28
  52 0032 DF91      		pop r29
  53 0034 0895      		ret
  54               	.LFE6:
  56               	.global	reset_pin
  58               	reset_pin:
  59               	.LFB7:
  60               	.LM5:
  61 0036 DF93      		push r29
  62 0038 CF93      		push r28
  63 003a 00D0      		rcall .
  64 003c 0F92      		push __tmp_reg__
  65 003e CDB7      		in r28,__SP_L__
  66 0040 DEB7      		in r29,__SP_H__
  67               	/* prologue: function */
  68               	/* frame size = 3 */
  69 0042 6983      		std Y+1,r22
  70 0044 7A83      		std Y+2,r23
  71 0046 8B83      		std Y+3,r24
  72               	.LM6:
  73 0048 E981      		ldd r30,Y+1
  74 004a FA81      		ldd r31,Y+2
  75               	.LM7:
  76 004c 21E0      		ldi r18,lo8(1)
  77 004e 30E0      		ldi r19,hi8(1)
  78 0050 00C0      		rjmp 2f
  79 0052 220F      	1:	lsl r18
  80 0054 331F      		rol r19
  81 0056 8A95      	2:	dec r24
  82 0058 02F4      		brpl 1b
  83 005a 2095      		com r18
  84 005c 8081      		ld r24,Z
  85 005e 8223      		and r24,r18
  86 0060 8083      		st Z,r24
  87               	/* epilogue start */
  88               	.LM8:
  89 0062 0F90      		pop __tmp_reg__
  90 0064 0F90      		pop __tmp_reg__
  91 0066 0F90      		pop __tmp_reg__
  92 0068 CF91      		pop r28
  93 006a DF91      		pop r29
  94 006c 0895      		ret
  95               	.LFE7:
  97               	.global	gatherMult
  99               	gatherMult:
 100               	.LFB8:
 101               	.LM9:
 102               	/* prologue: function */
 103               	/* frame size = 0 */
 104               	.LM10:
 105 006e E091 0000 		lds r30,sep2_pin
 106 0072 F091 0000 		lds r31,(sep2_pin)+1
 107               	.LBB97:
 108               	.LBB98:
 109               	.LM11:
 110 0076 41E0      		ldi r20,lo8(1)
 111 0078 50E0      		ldi r21,hi8(1)
 112 007a CA01      		movw r24,r20
 113 007c 0090 0000 		lds r0,sep2_pin+2
 114 0080 00C0      		rjmp 2f
 115 0082 880F      	1:	lsl r24
 116 0084 991F      		rol r25
 117 0086 0A94      	2:	dec r0
 118 0088 02F4      		brpl 1b
 119 008a 8095      		com r24
 120 008c 2081      		ld r18,Z
 121 008e 2823      		and r18,r24
 122 0090 2083      		st Z,r18
 123               	.LM12:
 124 0092 E091 0000 		lds r30,sep3_pin
 125 0096 F091 0000 		lds r31,(sep3_pin)+1
 126               	.LBE98:
 127               	.LBE97:
 128               	.LBB99:
 129               	.LBB100:
 130               	.LM13:
 131 009a CA01      		movw r24,r20
 132 009c 0090 0000 		lds r0,sep3_pin+2
 133 00a0 00C0      		rjmp 2f
 134 00a2 880F      	1:	lsl r24
 135 00a4 991F      		rol r25
 136 00a6 0A94      	2:	dec r0
 137 00a8 02F4      		brpl 1b
 138 00aa 8095      		com r24
 139 00ac 2081      		ld r18,Z
 140 00ae 2823      		and r18,r24
 141 00b0 2083      		st Z,r18
 142               	.LM14:
 143 00b2 E091 0000 		lds r30,sep1_pin
 144 00b6 F091 0000 		lds r31,(sep1_pin)+1
 145               	.LBE100:
 146               	.LBE99:
 147               	.LBB101:
 148               	.LBB102:
 149               	.LM15:
 150 00ba CA01      		movw r24,r20
 151 00bc 0090 0000 		lds r0,sep1_pin+2
 152 00c0 00C0      		rjmp 2f
 153 00c2 880F      	1:	lsl r24
 154 00c4 991F      		rol r25
 155 00c6 0A94      	2:	dec r0
 156 00c8 02F4      		brpl 1b
 157 00ca 8095      		com r24
 158 00cc 2081      		ld r18,Z
 159 00ce 2823      		and r18,r24
 160 00d0 2083      		st Z,r18
 161               	.LM16:
 162 00d2 E091 0000 		lds r30,resister_pin
 163 00d6 F091 0000 		lds r31,(resister_pin)+1
 164               	.LBE102:
 165               	.LBE101:
 166               	.LBB103:
 167               	.LBB104:
 168               	.LM17:
 169 00da CA01      		movw r24,r20
 170 00dc 0090 0000 		lds r0,resister_pin+2
 171 00e0 00C0      		rjmp 2f
 172 00e2 880F      	1:	lsl r24
 173 00e4 991F      		rol r25
 174 00e6 0A94      	2:	dec r0
 175 00e8 02F4      		brpl 1b
 176 00ea 8095      		com r24
 177 00ec 2081      		ld r18,Z
 178 00ee 2823      		and r18,r24
 179 00f0 2083      		st Z,r18
 180               	.LBE104:
 181               	.LBE103:
 182               	.LM18:
 183 00f2 419A      		sbi 40-32,1
 184               	.LM19:
 185 00f4 2A9A      		sbi 37-32,2
 186               	.LM20:
 187 00f6 299A      		sbi 37-32,1
 188               	.LM21:
 189 00f8 E091 0000 		lds r30,sep4_pin
 190 00fc F091 0000 		lds r31,(sep4_pin)+1
 191               	.LBB105:
 192               	.LBB106:
 193               	.LM22:
 194 0100 0090 0000 		lds r0,sep4_pin+2
 195 0104 00C0      		rjmp 2f
 196 0106 440F      	1:	lsl r20
 197 0108 551F      		rol r21
 198 010a 0A94      	2:	dec r0
 199 010c 02F4      		brpl 1b
 200 010e 8081      		ld r24,Z
 201 0110 842B      		or r24,r20
 202 0112 8083      		st Z,r24
 203               	/* epilogue start */
 204               	.LBE106:
 205               	.LBE105:
 206               	.LM23:
 207 0114 0895      		ret
 208               	.LFE8:
 210               	.global	usualMult
 212               	usualMult:
 213               	.LFB9:
 214               	.LM24:
 215               	/* prologue: function */
 216               	/* frame size = 0 */
 217               	.LM25:
 218 0116 2998      		cbi 37-32,1
 219               	.LM26:
 220 0118 2A98      		cbi 37-32,2
 221               	.LM27:
 222 011a 4198      		cbi 40-32,1
 223               	.LM28:
 224 011c E091 0000 		lds r30,resister_pin
 225 0120 F091 0000 		lds r31,(resister_pin)+1
 226               	.LBB107:
 227               	.LBB108:
 228               	.LM29:
 229 0124 21E0      		ldi r18,lo8(1)
 230 0126 30E0      		ldi r19,hi8(1)
 231 0128 A901      		movw r20,r18
 232 012a 0090 0000 		lds r0,resister_pin+2
 233 012e 00C0      		rjmp 2f
 234 0130 440F      	1:	lsl r20
 235 0132 551F      		rol r21
 236 0134 0A94      	2:	dec r0
 237 0136 02F4      		brpl 1b
 238 0138 8081      		ld r24,Z
 239 013a 842B      		or r24,r20
 240 013c 8083      		st Z,r24
 241               	.LM30:
 242 013e E091 0000 		lds r30,sep2_pin
 243 0142 F091 0000 		lds r31,(sep2_pin)+1
 244               	.LBE108:
 245               	.LBE107:
 246               	.LBB109:
 247               	.LBB110:
 248               	.LM31:
 249 0146 A901      		movw r20,r18
 250 0148 0090 0000 		lds r0,sep2_pin+2
 251 014c 00C0      		rjmp 2f
 252 014e 440F      	1:	lsl r20
 253 0150 551F      		rol r21
 254 0152 0A94      	2:	dec r0
 255 0154 02F4      		brpl 1b
 256 0156 8081      		ld r24,Z
 257 0158 842B      		or r24,r20
 258 015a 8083      		st Z,r24
 259               	.LM32:
 260 015c E091 0000 		lds r30,sep3_pin
 261 0160 F091 0000 		lds r31,(sep3_pin)+1
 262               	.LBE110:
 263               	.LBE109:
 264               	.LBB111:
 265               	.LBB112:
 266               	.LM33:
 267 0164 A901      		movw r20,r18
 268 0166 0090 0000 		lds r0,sep3_pin+2
 269 016a 00C0      		rjmp 2f
 270 016c 440F      	1:	lsl r20
 271 016e 551F      		rol r21
 272 0170 0A94      	2:	dec r0
 273 0172 02F4      		brpl 1b
 274 0174 8081      		ld r24,Z
 275 0176 842B      		or r24,r20
 276 0178 8083      		st Z,r24
 277               	.LM34:
 278 017a E091 0000 		lds r30,sep4_pin
 279 017e F091 0000 		lds r31,(sep4_pin)+1
 280               	.LBE112:
 281               	.LBE111:
 282               	.LBB113:
 283               	.LBB114:
 284               	.LM35:
 285 0182 A901      		movw r20,r18
 286 0184 0090 0000 		lds r0,sep4_pin+2
 287 0188 00C0      		rjmp 2f
 288 018a 440F      	1:	lsl r20
 289 018c 551F      		rol r21
 290 018e 0A94      	2:	dec r0
 291 0190 02F4      		brpl 1b
 292 0192 8081      		ld r24,Z
 293 0194 842B      		or r24,r20
 294 0196 8083      		st Z,r24
 295               	.LM36:
 296 0198 E091 0000 		lds r30,sep1_pin
 297 019c F091 0000 		lds r31,(sep1_pin)+1
 298               	.LBE114:
 299               	.LBE113:
 300               	.LBB115:
 301               	.LBB116:
 302               	.LM37:
 303 01a0 0090 0000 		lds r0,sep1_pin+2
 304 01a4 00C0      		rjmp 2f
 305 01a6 220F      	1:	lsl r18
 306 01a8 331F      		rol r19
 307 01aa 0A94      	2:	dec r0
 308 01ac 02F4      		brpl 1b
 309 01ae 8081      		ld r24,Z
 310 01b0 822B      		or r24,r18
 311 01b2 8083      		st Z,r24
 312               	/* epilogue start */
 313               	.LBE116:
 314               	.LBE115:
 315               	.LM38:
 316 01b4 0895      		ret
 317               	.LFE9:
 319               	.global	set_reverser
 321               	set_reverser:
 322               	.LFB10:
 323               	.LM39:
 324               	.LVL0:
 325               	/* prologue: function */
 326               	/* frame size = 0 */
 327               	/* epilogue start */
 328               	.LM40:
 329 01b6 0895      		ret
 330               	.LFE10:
 332               	.global	ADC_Init
 334               	ADC_Init:
 335               	.LFB12:
 336               	.LM41:
 337               	/* prologue: function */
 338               	/* frame size = 0 */
 339               	.LM42:
 340 01b8 EAE7      		ldi r30,lo8(122)
 341 01ba F0E0      		ldi r31,hi8(122)
 342 01bc 8081      		ld r24,Z
 343 01be 8368      		ori r24,lo8(-125)
 344 01c0 8083      		st Z,r24
 345               	.LM43:
 346 01c2 ECE7      		ldi r30,lo8(124)
 347 01c4 F0E0      		ldi r31,hi8(124)
 348 01c6 8081      		ld r24,Z
 349 01c8 8064      		ori r24,lo8(64)
 350 01ca 8083      		st Z,r24
 351               	/* epilogue start */
 352               	.LM44:
 353 01cc 0895      		ret
 354               	.LFE12:
 356               	.global	timer_init
 358               	timer_init:
 359               	.LFB13:
 360               	.LM45:
 361               	/* prologue: function */
 362               	/* frame size = 0 */
 363               	.LM46:
 364 01ce 1092 B000 		sts 176,__zero_reg__
 365               	.LM47:
 366 01d2 E1EB      		ldi r30,lo8(177)
 367 01d4 F0E0      		ldi r31,hi8(177)
 368 01d6 1082      		st Z,__zero_reg__
 369               	.LM48:
 370 01d8 8081      		ld r24,Z
 371 01da 8260      		ori r24,lo8(2)
 372 01dc 8083      		st Z,r24
 373               	.LM49:
 374 01de 81E0      		ldi r24,lo8(1)
 375 01e0 8093 7000 		sts 112,r24
 376               	/* epilogue start */
 377               	.LM50:
 378 01e4 0895      		ret
 379               	.LFE13:
 381               	.global	uart_init
 383               	uart_init:
 384               	.LFB14:
 385               	.LM51:
 386               	.LVL1:
 387               	/* prologue: function */
 388               	/* frame size = 0 */
 389               	.LM52:
 390 01e6 9093 C500 		sts 197,r25
 391               	.LVL2:
 392               	.LM53:
 393 01ea 8093 C400 		sts 196,r24
 394               	.LM54:
 395 01ee 88E9      		ldi r24,lo8(-104)
 396               	.LVL3:
 397 01f0 8093 C100 		sts 193,r24
 398               	.LM55:
 399 01f4 8EE0      		ldi r24,lo8(14)
 400 01f6 8093 C200 		sts 194,r24
 401               	/* epilogue start */
 402               	.LM56:
 403 01fa 0895      		ret
 404               	.LFE14:
 406               	.global	SPI_MasterInit
 408               	SPI_MasterInit:
 409               	.LFB15:
 410               	.LM57:
 411               	/* prologue: function */
 412               	/* frame size = 0 */
 413               	.LM58:
 414 01fc 84B1      		in r24,36-32
 415 01fe 8C62      		ori r24,lo8(44)
 416 0200 84B9      		out 36-32,r24
 417               	.LM59:
 418 0202 88E5      		ldi r24,lo8(88)
 419 0204 8CBD      		out 76-32,r24
 420               	/* epilogue start */
 421               	.LM60:
 422 0206 0895      		ret
 423               	.LFE15:
 425               	.global	SPI_WriteByte
 427               	SPI_WriteByte:
 428               	.LFB17:
 429               	.LM61:
 430               	.LVL4:
 431               	/* prologue: function */
 432               	/* frame size = 0 */
 433               	.LM62:
 434 0208 8EBD      		out 78-32,r24
 435               	.L20:
 436               	.LM63:
 437 020a 0DB4      		in __tmp_reg__,77-32
 438 020c 07FE      		sbrs __tmp_reg__,7
 439 020e 00C0      		rjmp .L20
 440               	/* epilogue start */
 441               	.LM64:
 442 0210 0895      		ret
 443               	.LFE17:
 445               	.global	prepareResetDAC
 447               	prepareResetDAC:
 448               	.LFB16:
 449               	.LM65:
 450               	.LVL5:
 451 0212 EF92      		push r14
 452 0214 FF92      		push r15
 453 0216 0F93      		push r16
 454 0218 1F93      		push r17
 455               	/* prologue: function */
 456               	/* frame size = 0 */
 457               	.LM66:
 458 021a 282F      		mov r18,r24
 459 021c 2595      		asr r18
 460 021e 2595      		asr r18
 461 0220 2595      		asr r18
 462 0222 3327      		clr r19
 463 0224 27FD      		sbrc r18,7
 464 0226 3095      		com r19
 465 0228 8901      		movw r16,r18
 466 022a 000F      		lsl r16
 467 022c 111F      		rol r17
 468 022e 020F      		add r16,r18
 469 0230 131F      		adc r17,r19
 470 0232 0050      		subi r16,lo8(-(SYNC_PINS))
 471 0234 1040      		sbci r17,hi8(-(SYNC_PINS))
 472 0236 D801      		movw r26,r16
 473 0238 ED91      		ld r30,X+
 474 023a FC91      		ld r31,X
 475 023c 1197      		sbiw r26,1
 476               	.LBB117:
 477               	.LBB118:
 478               	.LM67:
 479 023e 91E0      		ldi r25,lo8(1)
 480 0240 E92E      		mov r14,r25
 481 0242 F12C      		mov r15,__zero_reg__
 482 0244 9701      		movw r18,r14
 483 0246 1296      		adiw r26,2
 484 0248 0C90      		ld r0,X
 485 024a 00C0      		rjmp 2f
 486 024c 220F      	1:	lsl r18
 487 024e 331F      		rol r19
 488 0250 0A94      	2:	dec r0
 489 0252 02F4      		brpl 1b
 490 0254 2095      		com r18
 491 0256 9081      		ld r25,Z
 492 0258 9223      		and r25,r18
 493 025a 9083      		st Z,r25
 494               	.LBE118:
 495               	.LBE117:
 496               	.LM68:
 497 025c 68E0      		ldi r22,lo8(8)
 498 025e 0E94 0000 		call __divmodqi4
 499               	.LVL6:
 500 0262 E92F      		mov r30,r25
 501 0264 FF27      		clr r31
 502 0266 E7FD      		sbrc r30,7
 503 0268 F095      		com r31
 504 026a E050      		subi r30,lo8(-(chan_addrs))
 505 026c F040      		sbci r31,hi8(-(chan_addrs))
 506 026e 8081      		ld r24,Z
 507 0270 8860      		ori r24,lo8(8)
 508 0272 90E0      		ldi r25,lo8(0)
 509 0274 0E94 0000 		call SPI_WriteByte
 510               	.LM69:
 511 0278 80E0      		ldi r24,lo8(0)
 512 027a 90E0      		ldi r25,hi8(0)
 513 027c 0E94 0000 		call SPI_WriteByte
 514               	.LM70:
 515 0280 D801      		movw r26,r16
 516 0282 ED91      		ld r30,X+
 517 0284 FC91      		ld r31,X
 518 0286 1197      		sbiw r26,1
 519               	.LBB119:
 520               	.LBB120:
 521               	.LM71:
 522 0288 1296      		adiw r26,2
 523 028a 0C90      		ld r0,X
 524 028c 00C0      		rjmp 2f
 525 028e EE0C      	1:	lsl r14
 526 0290 FF1C      		rol r15
 527 0292 0A94      	2:	dec r0
 528 0294 02F4      		brpl 1b
 529 0296 8081      		ld r24,Z
 530 0298 8E29      		or r24,r14
 531 029a 8083      		st Z,r24
 532               	/* epilogue start */
 533               	.LBE120:
 534               	.LBE119:
 535               	.LM72:
 536 029c 1F91      		pop r17
 537 029e 0F91      		pop r16
 538 02a0 FF90      		pop r15
 539 02a2 EF90      		pop r14
 540 02a4 0895      		ret
 541               	.LFE16:
 543               	.global	prepareSetDAC
 545               	prepareSetDAC:
 546               	.LFB11:
 547               	.LM73:
 548               	.LVL7:
 549 02a6 CF92      		push r12
 550 02a8 DF92      		push r13
 551 02aa EF92      		push r14
 552 02ac FF92      		push r15
 553 02ae 0F93      		push r16
 554 02b0 1F93      		push r17
 555 02b2 CF93      		push r28
 556 02b4 DF93      		push r29
 557               	/* prologue: function */
 558               	/* frame size = 0 */
 559 02b6 E62F      		mov r30,r22
 560               	.LM74:
 561 02b8 EE24      		clr r14
 562 02ba FF24      		clr r15
 563 02bc E81A      		sub r14,r24
 564 02be F90A      		sbc r15,r25
 565               	.LVL8:
 566               	.LM75:
 567 02c0 80E0      		ldi r24,lo8(2048)
 568 02c2 98E0      		ldi r25,hi8(2048)
 569 02c4 E80E      		add r14,r24
 570 02c6 F91E      		adc r15,r25
 571               	.LM76:
 572 02c8 862F      		mov r24,r22
 573 02ca 8695      		lsr r24
 574 02cc 8695      		lsr r24
 575 02ce 8695      		lsr r24
 576 02d0 90E0      		ldi r25,lo8(0)
 577 02d2 8C01      		movw r16,r24
 578 02d4 000F      		lsl r16
 579 02d6 111F      		rol r17
 580 02d8 080F      		add r16,r24
 581 02da 191F      		adc r17,r25
 582 02dc 0050      		subi r16,lo8(-(SYNC_PINS))
 583 02de 1040      		sbci r17,hi8(-(SYNC_PINS))
 584 02e0 E801      		movw r28,r16
 585 02e2 A881      		ld r26,Y
 586 02e4 B981      		ldd r27,Y+1
 587               	.LBB121:
 588               	.LBB122:
 589               	.LM77:
 590 02e6 61E0      		ldi r22,lo8(1)
 591 02e8 C62E      		mov r12,r22
 592 02ea D12C      		mov r13,__zero_reg__
 593               	.LVL9:
 594 02ec C601      		movw r24,r12
 595 02ee 0A80      		ldd r0,Y+2
 596 02f0 00C0      		rjmp 2f
 597 02f2 880F      	1:	lsl r24
 598 02f4 991F      		rol r25
 599 02f6 0A94      	2:	dec r0
 600 02f8 02F4      		brpl 1b
 601 02fa 8095      		com r24
 602 02fc 2C91      		ld r18,X
 603 02fe 2823      		and r18,r24
 604 0300 2C93      		st X,r18
 605               	.LBE122:
 606               	.LBE121:
 607               	.LM78:
 608 0302 8F2D      		mov r24,r15
 609 0304 9927      		clr r25
 610 0306 87FD      		sbrc r24,7
 611 0308 9A95      		dec r25
 612 030a 8F70      		andi r24,lo8(15)
 613 030c F0E0      		ldi r31,lo8(0)
 614               	.LVL10:
 615 030e E770      		andi r30,lo8(7)
 616 0310 F070      		andi r31,hi8(7)
 617               	.LVL11:
 618 0312 E050      		subi r30,lo8(-(chan_addrs))
 619 0314 F040      		sbci r31,hi8(-(chan_addrs))
 620               	.LVL12:
 621 0316 2081      		ld r18,Z
 622 0318 822B      		or r24,r18
 623 031a 90E0      		ldi r25,lo8(0)
 624 031c 0E94 0000 		call SPI_WriteByte
 625               	.LVL13:
 626               	.LM79:
 627 0320 E092 0000 		sts send8.1407,r14
 628               	.LM80:
 629 0324 8E2D      		mov r24,r14
 630 0326 90E0      		ldi r25,lo8(0)
 631 0328 0E94 0000 		call SPI_WriteByte
 632               	.LM81:
 633 032c E881      		ld r30,Y
 634 032e F981      		ldd r31,Y+1
 635               	.LBB123:
 636               	.LBB124:
 637               	.LM82:
 638 0330 0A80      		ldd r0,Y+2
 639 0332 00C0      		rjmp 2f
 640 0334 CC0C      	1:	lsl r12
 641 0336 DD1C      		rol r13
 642 0338 0A94      	2:	dec r0
 643 033a 02F4      		brpl 1b
 644 033c 8081      		ld r24,Z
 645 033e 8C29      		or r24,r12
 646 0340 8083      		st Z,r24
 647               	/* epilogue start */
 648               	.LBE124:
 649               	.LBE123:
 650               	.LM83:
 651 0342 DF91      		pop r29
 652 0344 CF91      		pop r28
 653 0346 1F91      		pop r17
 654 0348 0F91      		pop r16
 655 034a FF90      		pop r15
 656 034c EF90      		pop r14
 657               	.LVL14:
 658 034e DF90      		pop r13
 659 0350 CF90      		pop r12
 660 0352 0895      		ret
 661               	.LFE11:
 663               	.global	setDAC
 665               	setDAC:
 666               	.LFB18:
 667               	.LM84:
 668               	/* prologue: function */
 669               	/* frame size = 0 */
 670               	.LM85:
 671 0354 5A98      		cbi 43-32,2
 672               	.LM86:
 673 0356 5A9A      		sbi 43-32,2
 674               	/* epilogue start */
 675               	.LM87:
 676 0358 0895      		ret
 677               	.LFE18:
 679               	.global	main
 681               	main:
 682               	.LFB19:
 683               	.LM88:
 684 035a 1F93      		push r17
 685               	/* prologue: function */
 686               	/* frame size = 0 */
 687               	.LM89:
 688 035c 8091 0000 		lds r24,STAT_CYCLE
 689 0360 9091 0000 		lds r25,STAT_N
 690 0364 899F      		mul r24,r25
 691 0366 802D      		mov r24,r0
 692 0368 1124      		clr r1
 693 036a 8093 0000 		sts BIG_STAT_N,r24
 694 036e E0E0      		ldi r30,lo8(chan_addrs)
 695 0370 F0E0      		ldi r31,hi8(chan_addrs)
 696 0372 90E0      		ldi r25,lo8(0)
 697               	.LVL15:
 698               	.L30:
 699               	.LBB125:
 700               	.LM90:
 701 0374 892F      		mov r24,r25
 702 0376 8295      		swap r24
 703 0378 807F      		andi r24,lo8(-16)
 704 037a 8193      		st Z+,r24
 705               	.LM91:
 706 037c 9F5F      		subi r25,lo8(-(1))
 707 037e 9830      		cpi r25,lo8(8)
 708 0380 01F4      		brne .L30
 709               	.LBE125:
 710               	.LM92:
 711 0382 8EE1      		ldi r24,lo8(30)
 712 0384 87B9      		out 39-32,r24
 713               	.LM93:
 714 0386 8FEF      		ldi r24,lo8(-1)
 715 0388 8AB9      		out 42-32,r24
 716               	.LM94:
 717 038a 8FE1      		ldi r24,lo8(31)
 718 038c 84B9      		out 36-32,r24
 719               	.LM95:
 720               	/* #APP */
 721               	 ;  175 "main.c" 1
 722 038e 7894      		sei
 723               	 ;  0 "" 2
 724               	/* #NOAPP */
 725               	.LBB126:
 726               	.LBB127:
 727               	.LM96:
 728 0390 84B1      		in r24,36-32
 729 0392 8C62      		ori r24,lo8(44)
 730 0394 84B9      		out 36-32,r24
 731               	.LM97:
 732 0396 88E5      		ldi r24,lo8(88)
 733 0398 8CBD      		out 76-32,r24
 734               	.LBE127:
 735               	.LBE126:
 736               	.LBB128:
 737               	.LBB129:
 738               	.LM98:
 739 039a 1092 B000 		sts 176,__zero_reg__
 740               	.LM99:
 741 039e 1092 B100 		sts 177,__zero_reg__
 742               	.LM100:
 743 03a2 8091 B100 		lds r24,177
 744 03a6 8260      		ori r24,lo8(2)
 745 03a8 8093 B100 		sts 177,r24
 746               	.LM101:
 747 03ac 81E0      		ldi r24,lo8(1)
 748 03ae 8093 7000 		sts 112,r24
 749               	.LBE129:
 750               	.LBE128:
 751               	.LBB130:
 752               	.LBB131:
 753               	.LM102:
 754 03b2 1092 C500 		sts 197,__zero_reg__
 755               	.LM103:
 756 03b6 83E3      		ldi r24,lo8(51)
 757 03b8 8093 C400 		sts 196,r24
 758               	.LM104:
 759 03bc 88E9      		ldi r24,lo8(-104)
 760 03be 8093 C100 		sts 193,r24
 761               	.LM105:
 762 03c2 8EE0      		ldi r24,lo8(14)
 763 03c4 8093 C200 		sts 194,r24
 764               	.LBE131:
 765               	.LBE130:
 766               	.LBB132:
 767               	.LBB133:
 768               	.LM106:
 769 03c8 8091 7A00 		lds r24,122
 770 03cc 8368      		ori r24,lo8(-125)
 771 03ce 8093 7A00 		sts 122,r24
 772               	.LM107:
 773 03d2 8091 7C00 		lds r24,124
 774 03d6 8064      		ori r24,lo8(64)
 775 03d8 8093 7C00 		sts 124,r24
 776               	.LBE133:
 777               	.LBE132:
 778               	.LM108:
 779 03dc 8091 7A00 		lds r24,122
 780 03e0 8064      		ori r24,lo8(64)
 781 03e2 8093 7A00 		sts 122,r24
 782               	.LM109:
 783 03e6 8091 7800 		lds r24,120
 784               	.LM110:
 785 03ea 8091 7800 		lds r24,120
 786 03ee 10E0      		ldi r17,lo8(0)
 787               	.L31:
 788               	.LBB134:
 789               	.LM111:
 790 03f0 80E0      		ldi r24,lo8(0)
 791 03f2 90E0      		ldi r25,hi8(0)
 792 03f4 612F      		mov r22,r17
 793 03f6 0E94 0000 		call prepareSetDAC
 794               	.LVL16:
 795 03fa 1F5F      		subi r17,lo8(-(1))
 796               	.LM112:
 797 03fc 1034      		cpi r17,lo8(64)
 798 03fe 01F4      		brne .L31
 799               	.LBE134:
 800               	.LBB135:
 801               	.LBB136:
 802               	.LM113:
 803 0400 5A98      		cbi 43-32,2
 804               	.LM114:
 805 0402 5A9A      		sbi 43-32,2
 806               	.L32:
 807 0404 00C0      		rjmp .L32
 808               	.LBE136:
 809               	.LBE135:
 810               	.LFE19:
 812               	.global	__vector_9
 814               	__vector_9:
 815               	.LFB20:
 816               	.LM115:
 817 0406 1F92      		push __zero_reg__
 818 0408 0F92      		push r0
 819 040a 0FB6      		in r0,__SREG__
 820 040c 0F92      		push r0
 821 040e 1124      		clr __zero_reg__
 822 0410 2F93      		push r18
 823 0412 3F93      		push r19
 824 0414 4F93      		push r20
 825 0416 5F93      		push r21
 826 0418 6F93      		push r22
 827 041a 7F93      		push r23
 828 041c 8F93      		push r24
 829 041e 9F93      		push r25
 830 0420 AF93      		push r26
 831 0422 BF93      		push r27
 832 0424 EF93      		push r30
 833 0426 FF93      		push r31
 834               	/* prologue: Signal */
 835               	/* frame size = 0 */
 836               	.LM116:
 837 0428 2091 0000 		lds r18,ctr
 838 042c 3091 0000 		lds r19,(ctr)+1
 839 0430 8091 0000 		lds r24,time_step
 840 0434 9091 0000 		lds r25,(time_step)+1
 841 0438 8217      		cp r24,r18
 842 043a 9307      		cpc r25,r19
 843 043c 04F0      		brlt .+2
 844 043e 00C0      		rjmp .L37
 845               	.LM117:
 846 0440 6091 0000 		lds r22,MD
 847 0444 6623      		tst r22
 848 0446 01F0      		breq .+2
 849 0448 00C0      		rjmp .L38
 850               	.LM118:
 851 044a 2091 0000 		lds r18,event_cnt
 852 044e 3091 0000 		lds r19,(event_cnt)+1
 853 0452 2130      		cpi r18,1
 854 0454 3105      		cpc r19,__zero_reg__
 855 0456 01F4      		brne .L39
 856               	.LM119:
 857 0458 9091 7800 		lds r25,120
 858 045c 9093 0000 		sts ADCL_,r25
 859               	.LM120:
 860 0460 8091 7900 		lds r24,121
 861 0464 8093 0000 		sts ADCH_,r24
 862               	.LM121:
 863 0468 9093 C600 		sts 198,r25
 864 046c 00C0      		rjmp .L40
 865               	.L39:
 866               	.LM122:
 867 046e 2230      		cpi r18,2
 868 0470 3105      		cpc r19,__zero_reg__
 869 0472 01F4      		brne .L41
 870               	.LM123:
 871 0474 8091 0000 		lds r24,ADCH_
 872 0478 8093 C600 		sts 198,r24
 873 047c 00C0      		rjmp .L40
 874               	.L41:
 875               	.LM124:
 876 047e 2115      		cp r18,__zero_reg__
 877 0480 3105      		cpc r19,__zero_reg__
 878 0482 01F4      		brne .L40
 879               	.LM125:
 880 0484 8FEF      		ldi r24,lo8(-1)
 881 0486 00C0      		rjmp .L120
 882               	.L40:
 883               	.LM126:
 884 0488 8091 0000 		lds r24,t1
 885 048c 90E0      		ldi r25,lo8(0)
 886 048e 2817      		cp r18,r24
 887 0490 3907      		cpc r19,r25
 888 0492 01F4      		brne .+2
 889 0494 00C0      		rjmp .L42
 890               	.LM127:
 891 0496 8091 0000 		lds r24,dT
 892 049a 90E0      		ldi r25,lo8(0)
 893 049c 2817      		cp r18,r24
 894 049e 3907      		cpc r19,r25
 895 04a0 01F4      		brne .+2
 896 04a2 00C0      		rjmp .L42
 897               	.LM128:
 898 04a4 0196      		adiw r24,1
 899 04a6 2817      		cp r18,r24
 900 04a8 3907      		cpc r19,r25
 901 04aa 01F4      		brne .+2
 902 04ac 00C0      		rjmp .L113
 903               	.L43:
 904               	.LM129:
 905 04ae 8091 0000 		lds r24,dTt2
 906 04b2 90E0      		ldi r25,lo8(0)
 907 04b4 2817      		cp r18,r24
 908 04b6 3907      		cpc r19,r25
 909 04b8 01F0      		breq .+2
 910 04ba 00C0      		rjmp .L42
 911               	.LM130:
 912 04bc 8091 C000 		lds r24,192
 913 04c0 85FF      		sbrs r24,5
 914 04c2 00C0      		rjmp .L42
 915               	.LM131:
 916 04c4 8091 0000 		lds r24,_adc
 917 04c8 00C0      		rjmp .L107
 918               	.L38:
 919               	.LM132:
 920 04ca 6730      		cpi r22,lo8(7)
 921 04cc 01F4      		brne .+2
 922 04ce 00C0      		rjmp .L42
 923               	.LM133:
 924 04d0 6130      		cpi r22,lo8(1)
 925 04d2 01F0      		breq .+2
 926 04d4 00C0      		rjmp .L44
 927               	.LM134:
 928 04d6 8091 0000 		lds r24,VAC_cnt
 929 04da 8230      		cpi r24,lo8(2)
 930 04dc 01F0      		breq .L48
 931 04de 8330      		cpi r24,lo8(3)
 932 04e0 00F4      		brsh .L51
 933 04e2 8823      		tst r24
 934 04e4 01F0      		breq .L46
 935 04e6 8130      		cpi r24,lo8(1)
 936 04e8 01F0      		breq .+2
 937 04ea 00C0      		rjmp .L45
 938 04ec 00C0      		rjmp .L121
 939               	.L51:
 940 04ee 8330      		cpi r24,lo8(3)
 941 04f0 01F0      		breq .L49
 942 04f2 8430      		cpi r24,lo8(4)
 943 04f4 01F0      		breq .+2
 944 04f6 00C0      		rjmp .L45
 945 04f8 00C0      		rjmp .L50
 946               	.L46:
 947               	.LM135:
 948 04fa 8091 7A00 		lds r24,122
 949 04fe 8064      		ori r24,lo8(64)
 950 0500 8093 7A00 		sts 122,r24
 951               	.LM136:
 952 0504 8FEF      		ldi r24,lo8(-1)
 953 0506 00C0      		rjmp .L105
 954               	.L121:
 955               	.LM137:
 956 0508 8091 0000 		lds r24,ADCL_
 957 050c 8093 0000 		sts ADCL__,r24
 958               	.LM138:
 959 0510 8091 0000 		lds r24,ADCH_
 960 0514 8093 0000 		sts ADCH__,r24
 961               	.LM139:
 962 0518 9091 7800 		lds r25,120
 963 051c 9093 0000 		sts ADCL_,r25
 964               	.LM140:
 965 0520 8091 7900 		lds r24,121
 966 0524 8093 0000 		sts ADCH_,r24
 967               	.LM141:
 968 0528 9093 C600 		sts 198,r25
 969 052c 00C0      		rjmp .L45
 970               	.L48:
 971               	.LM142:
 972 052e 8091 0000 		lds r24,ADCH_
 973               	.L105:
 974 0532 8093 C600 		sts 198,r24
 975 0536 00C0      		rjmp .L45
 976               	.L49:
 977               	.LM143:
 978 0538 2091 0000 		lds r18,voltage16
 979 053c 3091 0000 		lds r19,(voltage16)+1
 980 0540 3093 0000 		sts (voltage16_h)+1,r19
 981 0544 2093 0000 		sts voltage16_h,r18
 982               	.LM144:
 983 0548 8091 0000 		lds r24,pos_phase
 984 054c 8823      		tst r24
 985 054e 01F0      		breq .L52
 986               	.LM145:
 987 0550 205E      		subi r18,lo8(-(32))
 988 0552 3F4F      		sbci r19,hi8(-(32))
 989 0554 3093 0000 		sts (voltage16)+1,r19
 990 0558 2093 0000 		sts voltage16,r18
 991               	.LM146:
 992 055c 8091 0000 		lds r24,ref16
 993 0560 9091 0000 		lds r25,(ref16)+1
 994 0564 2817      		cp r18,r24
 995 0566 3907      		cpc r19,r25
 996 0568 04F0      		brlt .L53
 997               	.LM147:
 998 056a 1092 0000 		sts pos_phase,__zero_reg__
 999 056e 00C0      		rjmp .L53
 1000               	.L52:
 1001               	.LM148:
 1002 0570 C901      		movw r24,r18
 1003 0572 8097      		sbiw r24,32
 1004 0574 9093 0000 		sts (voltage16)+1,r25
 1005 0578 8093 0000 		sts voltage16,r24
 1006               	.LM149:
 1007 057c 21E0      		ldi r18,lo8(1)
 1008 057e 30E0      		ldi r19,hi8(1)
 1009 0580 4091 0000 		lds r20,x16
 1010 0584 5091 0000 		lds r21,(x16)+1
 1011 0588 241B      		sub r18,r20
 1012 058a 350B      		sbc r19,r21
 1013 058c 8217      		cp r24,r18
 1014 058e 9307      		cpc r25,r19
 1015 0590 04F4      		brge .L53
 1016               	.LM150:
 1017 0592 6093 0000 		sts pos_phase,r22
 1018               	.L53:
 1019               	.LM151:
 1020 0596 8091 0000 		lds r24,voltage16
 1021 059a 9091 0000 		lds r25,(voltage16)+1
 1022 059e 9C01      		movw r18,r24
 1023 05a0 E4E0      		ldi r30,4
 1024 05a2 3595      	1:	asr r19
 1025 05a4 2795      		ror r18
 1026 05a6 EA95      		dec r30
 1027 05a8 01F4      		brne 1b
 1028 05aa 2093 C600 		sts 198,r18
 1029               	.LM152:
 1030 05ae 6091 0000 		lds r22,chan
 1031 05b2 0E94 0000 		call prepareSetDAC
 1032               	.LBB137:
 1033               	.LBB138:
 1034               	.LM153:
 1035 05b6 5A98      		cbi 43-32,2
 1036               	.LM154:
 1037 05b8 5A9A      		sbi 43-32,2
 1038               	.L50:
 1039               	.LBE138:
 1040               	.LBE137:
 1041               	.LM155:
 1042 05ba 1092 C600 		sts 198,__zero_reg__
 1043               	.L45:
 1044               	.LM156:
 1045 05be 8091 0000 		lds r24,VAC_cnt
 1046 05c2 8F5F      		subi r24,lo8(-(1))
 1047 05c4 65E0      		ldi r22,lo8(5)
 1048 05c6 0E94 0000 		call __udivmodqi4
 1049 05ca 9093 0000 		sts VAC_cnt,r25
 1050 05ce 00C0      		rjmp .L42
 1051               	.L44:
 1052               	.LM157:
 1053 05d0 6230      		cpi r22,lo8(2)
 1054 05d2 01F0      		breq .+2
 1055 05d4 00C0      		rjmp .L54
 1056               	.LBB139:
 1057               	.LM158:
 1058 05d6 80E1      		ldi r24,lo8(16)
 1059 05d8 8093 0000 		sts T,r24
 1060               	.LM159:
 1061 05dc 8091 0000 		lds r24,event_cnt
 1062 05e0 9091 0000 		lds r25,(event_cnt)+1
 1063 05e4 0097      		sbiw r24,0
 1064 05e6 01F4      		brne .L55
 1065               	.LM160:
 1066 05e8 8FEF      		ldi r24,lo8(-1)
 1067 05ea 8093 C600 		sts 198,r24
 1068 05ee 00C0      		rjmp .L108
 1069               	.L55:
 1070               	.LM161:
 1071 05f0 8130      		cpi r24,1
 1072 05f2 9105      		cpc r25,__zero_reg__
 1073 05f4 01F4      		brne .L56
 1074               	.LM162:
 1075 05f6 8091 0000 		lds r24,PROGRAM_done
 1076 05fa 00C0      		rjmp .L107
 1077               	.L56:
 1078               	.LM163:
 1079 05fc 8230      		cpi r24,2
 1080 05fe 9105      		cpc r25,__zero_reg__
 1081 0600 01F4      		brne .+2
 1082 0602 00C0      		rjmp .L112
 1083               	.L57:
 1084               	.LM164:
 1085 0604 8330      		cpi r24,3
 1086 0606 9105      		cpc r25,__zero_reg__
 1087 0608 01F4      		brne .L58
 1088               	.LM165:
 1089 060a 8091 0000 		lds r24,ADCH_
 1090 060e 8093 C600 		sts 198,r24
 1091               	.LM166:
 1092 0612 382F      		mov r19,r24
 1093 0614 20E0      		ldi r18,lo8(0)
 1094 0616 8091 0000 		lds r24,ADCL_
 1095 061a 90E0      		ldi r25,lo8(0)
 1096 061c 822B      		or r24,r18
 1097 061e 932B      		or r25,r19
 1098 0620 9093 0000 		sts (_adc)+1,r25
 1099 0624 8093 0000 		sts _adc,r24
 1100               	.LM167:
 1101 0628 20E0      		ldi r18,lo8(512)
 1102 062a 32E0      		ldi r19,hi8(512)
 1103 062c 281B      		sub r18,r24
 1104 062e 390B      		sbc r19,r25
 1105 0630 3093 0000 		sts (adc_h.1517)+1,r19
 1106 0634 2093 0000 		sts adc_h.1517,r18
 1107               	.LM168:
 1108 0638 4091 0000 		lds r20,t1
 1109 063c 842F      		mov r24,r20
 1110 063e 90E0      		ldi r25,lo8(0)
 1111 0640 2817      		cp r18,r24
 1112 0642 3907      		cpc r19,r25
 1113 0644 00F4      		brsh .L59
 1114               	.LM169:
 1115 0646 8091 0000 		lds r24,x16
 1116 064a 9091 0000 		lds r25,(x16)+1
 1117 064e 9095      		com r25
 1118 0650 8195      		neg r24
 1119 0652 9F4F      		sbci r25,lo8(-1)
 1120 0654 9093 0000 		sts (proging_val)+1,r25
 1121 0658 8093 0000 		sts proging_val,r24
 1122 065c 00C0      		rjmp .L42
 1123               	.L59:
 1124               	.LM170:
 1125 065e 842F      		mov r24,r20
 1126 0660 90E0      		ldi r25,lo8(0)
 1127 0662 0196      		adiw r24,1
 1128 0664 2817      		cp r18,r24
 1129 0666 3907      		cpc r19,r25
 1130 0668 00F0      		brlo .+2
 1131 066a 00C0      		rjmp .L42
 1132               	.LM171:
 1133 066c 81E0      		ldi r24,lo8(1)
 1134 066e 8093 0000 		sts PROGRAM_done,r24
 1135               	.LM172:
 1136 0672 1092 0000 		sts (proging_val)+1,__zero_reg__
 1137 0676 1092 0000 		sts proging_val,__zero_reg__
 1138               	.LM173:
 1139 067a 8091 0000 		lds r24,ref16
 1140 067e 9091 0000 		lds r25,(ref16)+1
 1141 0682 00C0      		rjmp .L116
 1142               	.L58:
 1143               	.LM174:
 1144 0684 8430      		cpi r24,4
 1145 0686 9105      		cpc r25,__zero_reg__
 1146 0688 01F0      		breq .+2
 1147 068a 00C0      		rjmp .L60
 1148               	.LM175:
 1149 068c 1092 C600 		sts 198,__zero_reg__
 1150               	.LM176:
 1151 0690 8091 0000 		lds r24,PROGRAM_done
 1152 0694 8823      		tst r24
 1153 0696 01F0      		breq .L61
 1154               	.LM177:
 1155 0698 1092 0000 		sts (proging_val)+1,__zero_reg__
 1156 069c 1092 0000 		sts proging_val,__zero_reg__
 1157               	.L61:
 1158               	.LM178:
 1159 06a0 8091 0000 		lds r24,proging_val
 1160 06a4 9091 0000 		lds r25,(proging_val)+1
 1161 06a8 6091 0000 		lds r22,chan
 1162 06ac 0E94 0000 		call prepareSetDAC
 1163               	.LBB140:
 1164               	.LBB141:
 1165               	.LM179:
 1166 06b0 5A98      		cbi 43-32,2
 1167               	.LM180:
 1168 06b2 5A9A      		sbi 43-32,2
 1169               	.LBE141:
 1170               	.LBE140:
 1171               	.LM181:
 1172 06b4 2091 0000 		lds r18,proging_val
 1173 06b8 3091 0000 		lds r19,(proging_val)+1
 1174 06bc 8091 0000 		lds r24,x16
 1175 06c0 9091 0000 		lds r25,(x16)+1
 1176 06c4 4427      		clr r20
 1177 06c6 5527      		clr r21
 1178 06c8 481B      		sub r20,r24
 1179 06ca 590B      		sbc r21,r25
 1180 06cc 2417      		cp r18,r20
 1181 06ce 3507      		cpc r19,r21
 1182 06d0 01F4      		brne .L62
 1183               	.LM182:
 1184 06d2 1092 0000 		sts (proging_val)+1,__zero_reg__
 1185 06d6 1092 0000 		sts proging_val,__zero_reg__
 1186 06da 00C0      		rjmp .L42
 1187               	.L62:
 1188               	.LM183:
 1189 06dc 8091 0000 		lds r24,t2
 1190 06e0 90E0      		ldi r25,lo8(0)
 1191 06e2 74E0      		ldi r23,4
 1192 06e4 880F      	1:	lsl r24
 1193 06e6 991F      		rol r25
 1194 06e8 7A95      		dec r23
 1195 06ea 01F4      		brne 1b
 1196 06ec 8217      		cp r24,r18
 1197 06ee 9307      		cpc r25,r19
 1198 06f0 04F4      		brge .L63
 1199               	.LM184:
 1200 06f2 5093 0000 		sts (proging_val)+1,r21
 1201 06f6 4093 0000 		sts proging_val,r20
 1202 06fa 00C0      		rjmp .L42
 1203               	.L63:
 1204               	.LM185:
 1205 06fc 205E      		subi r18,lo8(-(32))
 1206 06fe 3F4F      		sbci r19,hi8(-(32))
 1207 0700 3093 0000 		sts (proging_val)+1,r19
 1208 0704 2093 0000 		sts proging_val,r18
 1209 0708 00C0      		rjmp .L42
 1210               	.L60:
 1211               	.LM186:
 1212 070a 0597      		sbiw r24,5
 1213 070c 01F0      		breq .+2
 1214 070e 00C0      		rjmp .L42
 1215 0710 00C0      		rjmp .L119
 1216               	.L54:
 1217               	.LBE139:
 1218               	.LM187:
 1219 0712 6530      		cpi r22,lo8(5)
 1220 0714 01F0      		breq .+2
 1221 0716 00C0      		rjmp .L64
 1222               	.LM188:
 1223 0718 8091 0000 		lds r24,event_cnt
 1224 071c 9091 0000 		lds r25,(event_cnt)+1
 1225 0720 8130      		cpi r24,1
 1226 0722 9105      		cpc r25,__zero_reg__
 1227 0724 01F0      		breq .L110
 1228               	.L65:
 1229               	.LM189:
 1230 0726 8230      		cpi r24,2
 1231 0728 9105      		cpc r25,__zero_reg__
 1232 072a 01F4      		brne .L66
 1233               	.LM190:
 1234 072c 8091 0000 		lds r24,reset16
 1235 0730 9091 0000 		lds r25,(reset16)+1
 1236 0734 63E0      		ldi r22,lo8(3)
 1237 0736 0E94 0000 		call prepareSetDAC
 1238               	.LM191:
 1239 073a 8091 0000 		lds r24,reset16
 1240 073e 9091 0000 		lds r25,(reset16)+1
 1241 0742 00C0      		rjmp .L117
 1242               	.L66:
 1243               	.LM192:
 1244 0744 8330      		cpi r24,3
 1245 0746 9105      		cpc r25,__zero_reg__
 1246 0748 01F4      		brne .L67
 1247               	.LM193:
 1248 074a 80E0      		ldi r24,lo8(0)
 1249 074c 90E0      		ldi r25,hi8(0)
 1250 074e 63E0      		ldi r22,lo8(3)
 1251 0750 0E94 0000 		call prepareSetDAC
 1252               	.LM194:
 1253 0754 80E0      		ldi r24,lo8(0)
 1254 0756 90E0      		ldi r25,hi8(0)
 1255               	.L117:
 1256 0758 62E0      		ldi r22,lo8(2)
 1257 075a 00C0      		rjmp .L109
 1258               	.L67:
 1259               	.LM195:
 1260 075c 8430      		cpi r24,4
 1261 075e 9105      		cpc r25,__zero_reg__
 1262 0760 01F4      		brne .L68
 1263               	.LM196:
 1264 0762 0E94 0000 		call gatherMult
 1265 0766 00C0      		rjmp .L42
 1266               	.L68:
 1267               	.LM197:
 1268 0768 8530      		cpi r24,5
 1269 076a 9105      		cpc r25,__zero_reg__
 1270 076c 01F4      		brne .L69
 1271               	.LM198:
 1272 076e 8091 0000 		lds r24,x16
 1273 0772 9091 0000 		lds r25,(x16)+1
 1274 0776 00C0      		rjmp .L115
 1275               	.L69:
 1276               	.LM199:
 1277 0778 8630      		cpi r24,6
 1278 077a 9105      		cpc r25,__zero_reg__
 1279 077c 01F4      		brne .L70
 1280               	.L118:
 1281               	.LM200:
 1282 077e 80E0      		ldi r24,lo8(0)
 1283 0780 90E0      		ldi r25,hi8(0)
 1284               	.L115:
 1285 0782 63E0      		ldi r22,lo8(3)
 1286 0784 00C0      		rjmp .L109
 1287               	.L70:
 1288               	.LM201:
 1289 0786 8730      		cpi r24,7
 1290 0788 9105      		cpc r25,__zero_reg__
 1291 078a 01F4      		brne .L71
 1292               	.LM202:
 1293 078c 8FEF      		ldi r24,lo8(-1)
 1294 078e 8093 C600 		sts 198,r24
 1295               	.L110:
 1296               	.LM203:
 1297 0792 0E94 0000 		call usualMult
 1298 0796 00C0      		rjmp .L42
 1299               	.L71:
 1300               	.LM204:
 1301 0798 8830      		cpi r24,8
 1302 079a 9105      		cpc r25,__zero_reg__
 1303 079c 01F4      		brne .L72
 1304               	.LM205:
 1305 079e 8091 0000 		lds r24,ref16
 1306 07a2 9091 0000 		lds r25,(ref16)+1
 1307 07a6 63E0      		ldi r22,lo8(3)
 1308 07a8 00C0      		rjmp .L111
 1309               	.L72:
 1310               	.LM206:
 1311 07aa 8930      		cpi r24,9
 1312 07ac 9105      		cpc r25,__zero_reg__
 1313 07ae 01F4      		brne .+2
 1314 07b0 00C0      		rjmp .L112
 1315               	.L73:
 1316               	.LM207:
 1317 07b2 8A30      		cpi r24,10
 1318 07b4 9105      		cpc r25,__zero_reg__
 1319 07b6 01F4      		brne .L74
 1320               	.LM208:
 1321 07b8 8091 0000 		lds r24,ADCH_
 1322 07bc 8093 C600 		sts 198,r24
 1323 07c0 00C0      		rjmp .L118
 1324               	.L74:
 1325               	.LM209:
 1326 07c2 8B30      		cpi r24,11
 1327 07c4 9105      		cpc r25,__zero_reg__
 1328 07c6 01F4      		brne .L75
 1329               	.LM210:
 1330 07c8 8091 0000 		lds r24,ref16
 1331 07cc 9091 0000 		lds r25,(ref16)+1
 1332 07d0 62E0      		ldi r22,lo8(2)
 1333 07d2 00C0      		rjmp .L111
 1334               	.L75:
 1335               	.LM211:
 1336 07d4 8C30      		cpi r24,12
 1337 07d6 9105      		cpc r25,__zero_reg__
 1338 07d8 01F4      		brne .+2
 1339 07da 00C0      		rjmp .L112
 1340               	.L76:
 1341               	.LM212:
 1342 07dc 0D97      		sbiw r24,13
 1343 07de 01F0      		breq .+2
 1344 07e0 00C0      		rjmp .L42
 1345               	.LM213:
 1346 07e2 8091 0000 		lds r24,ADCH_
 1347 07e6 8093 C600 		sts 198,r24
 1348               	.LM214:
 1349 07ea 80E0      		ldi r24,lo8(0)
 1350 07ec 90E0      		ldi r25,hi8(0)
 1351 07ee 62E0      		ldi r22,lo8(2)
 1352 07f0 0E94 0000 		call prepareSetDAC
 1353               	.LBB142:
 1354               	.LBB143:
 1355               	.LM215:
 1356 07f4 5A98      		cbi 43-32,2
 1357               	.LM216:
 1358 07f6 5A9A      		sbi 43-32,2
 1359               	.LBE143:
 1360               	.LBE142:
 1361               	.LM217:
 1362 07f8 1092 0000 		sts (event_cnt)+1,__zero_reg__
 1363 07fc 1092 0000 		sts event_cnt,__zero_reg__
 1364 0800 00C0      		rjmp .L42
 1365               	.L64:
 1366               	.LM218:
 1367 0802 6630      		cpi r22,lo8(6)
 1368 0804 01F0      		breq .+2
 1369 0806 00C0      		rjmp .L42
 1370               	.LM219:
 1371 0808 8091 0000 		lds r24,event_cnt
 1372 080c 9091 0000 		lds r25,(event_cnt)+1
 1373 0810 0097      		sbiw r24,0
 1374 0812 01F4      		brne .L77
 1375               	.LM220:
 1376 0814 8091 0000 		lds r24,reset16
 1377 0818 9091 0000 		lds r25,(reset16)+1
 1378 081c 6091 0000 		lds r22,chan
 1379 0820 0E94 0000 		call prepareSetDAC
 1380               	.LBB144:
 1381               	.LBB145:
 1382               	.LM221:
 1383 0824 5A98      		cbi 43-32,2
 1384               	.LM222:
 1385 0826 5A9A      		sbi 43-32,2
 1386               	.LBE145:
 1387               	.LBE144:
 1388               	.LM223:
 1389 0828 8FEF      		ldi r24,lo8(-1)
 1390 082a 00C0      		rjmp .L107
 1391               	.L77:
 1392               	.LM224:
 1393 082c 8130      		cpi r24,1
 1394 082e 9105      		cpc r25,__zero_reg__
 1395 0830 01F4      		brne .L78
 1396               	.L119:
 1397               	.LM225:
 1398 0832 80E0      		ldi r24,lo8(0)
 1399 0834 90E0      		ldi r25,hi8(0)
 1400               	.L116:
 1401 0836 6091 0000 		lds r22,chan
 1402               	.L109:
 1403 083a 0E94 0000 		call prepareSetDAC
 1404               	.LBB146:
 1405               	.LBB147:
 1406               	.LM226:
 1407 083e 5A98      		cbi 43-32,2
 1408               	.LM227:
 1409 0840 5A9A      		sbi 43-32,2
 1410 0842 00C0      		rjmp .L42
 1411               	.L78:
 1412               	.LBE147:
 1413               	.LBE146:
 1414               	.LM228:
 1415 0844 8330      		cpi r24,3
 1416 0846 9105      		cpc r25,__zero_reg__
 1417 0848 01F0      		breq .+2
 1418 084a 00C0      		rjmp .L79
 1419               	.LM229:
 1420 084c 4091 0000 		lds r20,an_cnt
 1421 0850 5091 0000 		lds r21,(an_cnt)+1
 1422 0854 8091 0000 		lds r24,BIG_STAT_N
 1423 0858 90E0      		ldi r25,lo8(0)
 1424 085a 4817      		cp r20,r24
 1425 085c 5907      		cpc r21,r25
 1426 085e 00F4      		brsh .L80
 1427               	.LM230:
 1428 0860 1092 0000 		sts STAT_V_step,__zero_reg__
 1429 0864 00C0      		rjmp .L81
 1430               	.L80:
 1431               	.LM231:
 1432 0866 9C01      		movw r18,r24
 1433 0868 220F      		lsl r18
 1434 086a 331F      		rol r19
 1435 086c 4217      		cp r20,r18
 1436 086e 5307      		cpc r21,r19
 1437 0870 00F4      		brsh .L82
 1438               	.LM232:
 1439 0872 81E0      		ldi r24,lo8(1)
 1440 0874 00C0      		rjmp .L106
 1441               	.L82:
 1442               	.LM233:
 1443 0876 280F      		add r18,r24
 1444 0878 391F      		adc r19,r25
 1445 087a 4217      		cp r20,r18
 1446 087c 5307      		cpc r21,r19
 1447 087e 00F4      		brsh .L83
 1448               	.LM234:
 1449 0880 82E0      		ldi r24,lo8(2)
 1450 0882 00C0      		rjmp .L106
 1451               	.L83:
 1452               	.LM235:
 1453 0884 9C01      		movw r18,r24
 1454 0886 220F      		lsl r18
 1455 0888 331F      		rol r19
 1456 088a 220F      		lsl r18
 1457 088c 331F      		rol r19
 1458 088e 4217      		cp r20,r18
 1459 0890 5307      		cpc r21,r19
 1460 0892 00F4      		brsh .L84
 1461               	.LM236:
 1462 0894 83E0      		ldi r24,lo8(3)
 1463 0896 00C0      		rjmp .L106
 1464               	.L84:
 1465               	.LM237:
 1466 0898 280F      		add r18,r24
 1467 089a 391F      		adc r19,r25
 1468 089c 4217      		cp r20,r18
 1469 089e 5307      		cpc r21,r19
 1470 08a0 00F4      		brsh .L81
 1471               	.LM238:
 1472 08a2 84E0      		ldi r24,lo8(4)
 1473               	.L106:
 1474 08a4 8093 0000 		sts STAT_V_step,r24
 1475               	.L81:
 1476               	.LM239:
 1477 08a8 8091 0000 		lds r24,STAT_V_step
 1478 08ac 8093 C600 		sts 198,r24
 1479               	.LM240:
 1480 08b0 90E0      		ldi r25,lo8(0)
 1481 08b2 8095      		com r24
 1482 08b4 9095      		com r25
 1483 08b6 9695      		lsr r25
 1484 08b8 982F      		mov r25,r24
 1485 08ba 8827      		clr r24
 1486 08bc 9795      		ror r25
 1487 08be 8795      		ror r24
 1488 08c0 9093 0000 		sts (x16_grad)+1,r25
 1489 08c4 8093 0000 		sts x16_grad,r24
 1490               	.LM241:
 1491 08c8 6091 0000 		lds r22,chan
 1492 08cc 0E94 0000 		call prepareSetDAC
 1493               	.LBB148:
 1494               	.LBB149:
 1495               	.LM242:
 1496 08d0 5A98      		cbi 43-32,2
 1497               	.LM243:
 1498 08d2 5A9A      		sbi 43-32,2
 1499               	.LBE149:
 1500               	.LBE148:
 1501               	.LM244:
 1502 08d4 4091 0000 		lds r20,an_cnt_fast
 1503 08d8 5091 0000 		lds r21,(an_cnt_fast)+1
 1504 08dc 8091 0000 		lds r24,STAT_N
 1505 08e0 90E0      		ldi r25,lo8(0)
 1506 08e2 4817      		cp r20,r24
 1507 08e4 5907      		cpc r21,r25
 1508 08e6 00F4      		brsh .L85
 1509               	.LM245:
 1510 08e8 1092 0000 		sts STAT_dt_step,__zero_reg__
 1511 08ec 00C0      		rjmp .L86
 1512               	.L85:
 1513               	.LM246:
 1514 08ee 9C01      		movw r18,r24
 1515 08f0 220F      		lsl r18
 1516 08f2 331F      		rol r19
 1517 08f4 4217      		cp r20,r18
 1518 08f6 5307      		cpc r21,r19
 1519 08f8 00F4      		brsh .L87
 1520               	.LM247:
 1521 08fa 81E0      		ldi r24,lo8(1)
 1522 08fc 8093 0000 		sts STAT_dt_step,r24
 1523 0900 80E0      		ldi r24,lo8(0)
 1524 0902 90E0      		ldi r25,hi8(0)
 1525               	.LVL17:
 1526               	.L88:
 1527               	.LBB150:
 1528               	.LBB151:
 1529               	.LBB152:
 1530               	.LM248:
 1531 0904 5A98      		cbi 43-32,2
 1532               	.LM249:
 1533 0906 5A9A      		sbi 43-32,2
 1534               	.LBE152:
 1535               	.LBE151:
 1536               	.LM250:
 1537 0908 0196      		adiw r24,1
 1538 090a 8832      		cpi r24,40
 1539 090c 9105      		cpc r25,__zero_reg__
 1540 090e 01F4      		brne .L88
 1541 0910 00C0      		rjmp .L86
 1542               	.LVL18:
 1543               	.L87:
 1544               	.LBE150:
 1545               	.LM251:
 1546 0912 280F      		add r18,r24
 1547 0914 391F      		adc r19,r25
 1548 0916 4217      		cp r20,r18
 1549 0918 5307      		cpc r21,r19
 1550 091a 00F4      		brsh .L89
 1551               	.LM252:
 1552 091c 82E0      		ldi r24,lo8(2)
 1553 091e 8093 0000 		sts STAT_dt_step,r24
 1554 0922 80E0      		ldi r24,lo8(0)
 1555 0924 90E0      		ldi r25,hi8(0)
 1556               	.LVL19:
 1557               	.L90:
 1558               	.LBB153:
 1559               	.LBB154:
 1560               	.LBB155:
 1561               	.LM253:
 1562 0926 5A98      		cbi 43-32,2
 1563               	.LM254:
 1564 0928 5A9A      		sbi 43-32,2
 1565               	.LBE155:
 1566               	.LBE154:
 1567               	.LM255:
 1568 092a 0196      		adiw r24,1
 1569 092c 803A      		cpi r24,160
 1570 092e 9105      		cpc r25,__zero_reg__
 1571 0930 01F4      		brne .L90
 1572 0932 00C0      		rjmp .L86
 1573               	.LVL20:
 1574               	.L89:
 1575               	.LBE153:
 1576               	.LM256:
 1577 0934 880F      		lsl r24
 1578 0936 991F      		rol r25
 1579 0938 880F      		lsl r24
 1580 093a 991F      		rol r25
 1581 093c 4817      		cp r20,r24
 1582 093e 5907      		cpc r21,r25
 1583 0940 00F4      		brsh .L91
 1584               	.LM257:
 1585 0942 83E0      		ldi r24,lo8(3)
 1586 0944 8093 0000 		sts STAT_dt_step,r24
 1587 0948 80E0      		ldi r24,lo8(0)
 1588 094a 90E0      		ldi r25,hi8(0)
 1589               	.LVL21:
 1590               	.L92:
 1591               	.LBB156:
 1592               	.LBB157:
 1593               	.LBB158:
 1594               	.LM258:
 1595 094c 5A98      		cbi 43-32,2
 1596               	.LM259:
 1597 094e 5A9A      		sbi 43-32,2
 1598               	.LBE158:
 1599               	.LBE157:
 1600               	.LM260:
 1601 0950 0196      		adiw r24,1
 1602 0952 22E0      		ldi r18,hi8(640)
 1603 0954 8038      		cpi r24,lo8(640)
 1604 0956 9207      		cpc r25,r18
 1605 0958 01F4      		brne .L92
 1606 095a 00C0      		rjmp .L86
 1607               	.LVL22:
 1608               	.L91:
 1609               	.LBE156:
 1610               	.LM261:
 1611 095c 8091 0000 		lds r24,BIG_STAT_N
 1612 0960 90E0      		ldi r25,lo8(0)
 1613 0962 4817      		cp r20,r24
 1614 0964 5907      		cpc r21,r25
 1615 0966 00F4      		brsh .L86
 1616               	.LM262:
 1617 0968 84E0      		ldi r24,lo8(4)
 1618 096a 8093 0000 		sts STAT_dt_step,r24
 1619 096e 80E0      		ldi r24,lo8(0)
 1620 0970 90E0      		ldi r25,hi8(0)
 1621               	.LVL23:
 1622               	.L93:
 1623               	.LBB159:
 1624               	.LBB160:
 1625               	.LBB161:
 1626               	.LM263:
 1627 0972 5A98      		cbi 43-32,2
 1628               	.LM264:
 1629 0974 5A9A      		sbi 43-32,2
 1630               	.LBE161:
 1631               	.LBE160:
 1632               	.LM265:
 1633 0976 0196      		adiw r24,1
 1634 0978 2AE0      		ldi r18,hi8(2560)
 1635 097a 8030      		cpi r24,lo8(2560)
 1636 097c 9207      		cpc r25,r18
 1637 097e 01F4      		brne .L93
 1638               	.LVL24:
 1639               	.L86:
 1640               	.LBE159:
 1641               	.LM266:
 1642 0980 8091 0000 		lds r24,chan
 1643               	.LVL25:
 1644 0984 0E94 0000 		call prepareResetDAC
 1645               	.LBB162:
 1646               	.LBB163:
 1647               	.LM267:
 1648 0988 5A98      		cbi 43-32,2
 1649               	.LM268:
 1650 098a 5A9A      		sbi 43-32,2
 1651               	.LBE163:
 1652               	.LBE162:
 1653               	.LM269:
 1654 098c 8091 0000 		lds r24,an_cnt
 1655 0990 9091 0000 		lds r25,(an_cnt)+1
 1656 0994 0196      		adiw r24,1
 1657 0996 9093 0000 		sts (an_cnt)+1,r25
 1658 099a 8093 0000 		sts an_cnt,r24
 1659               	.LM270:
 1660 099e 2091 0000 		lds r18,BIG_STAT_N
 1661 09a2 45E0      		ldi r20,lo8(5)
 1662 09a4 249F      		mul r18,r20
 1663 09a6 9001      		movw r18,r0
 1664 09a8 1124      		clr r1
 1665 09aa 2817      		cp r18,r24
 1666 09ac 3907      		cpc r19,r25
 1667 09ae 00F4      		brsh .L94
 1668 09b0 1092 0000 		sts (an_cnt)+1,__zero_reg__
 1669 09b4 1092 0000 		sts an_cnt,__zero_reg__
 1670               	.L94:
 1671               	.LM271:
 1672 09b8 6091 0000 		lds r22,BIG_STAT_N
 1673 09bc 8091 0000 		lds r24,an_cnt
 1674 09c0 9091 0000 		lds r25,(an_cnt)+1
 1675 09c4 70E0      		ldi r23,lo8(0)
 1676 09c6 0E94 0000 		call __udivmodhi4
 1677 09ca 9093 0000 		sts (an_cnt_fast)+1,r25
 1678 09ce 8093 0000 		sts an_cnt_fast,r24
 1679 09d2 00C0      		rjmp .L42
 1680               	.L79:
 1681               	.LM272:
 1682 09d4 8430      		cpi r24,4
 1683 09d6 9105      		cpc r25,__zero_reg__
 1684 09d8 01F4      		brne .L95
 1685               	.LM273:
 1686 09da 8091 0000 		lds r24,STAT_dt_step
 1687               	.L120:
 1688 09de 8093 C600 		sts 198,r24
 1689 09e2 00C0      		rjmp .L119
 1690               	.L95:
 1691               	.LM274:
 1692 09e4 8630      		cpi r24,6
 1693 09e6 9105      		cpc r25,__zero_reg__
 1694 09e8 01F4      		brne .L96
 1695               	.L108:
 1696               	.LM275:
 1697 09ea 8091 0000 		lds r24,ref16
 1698 09ee 9091 0000 		lds r25,(ref16)+1
 1699 09f2 6091 0000 		lds r22,chan
 1700               	.L111:
 1701 09f6 0E94 0000 		call prepareSetDAC
 1702               	.LBB164:
 1703               	.LBB165:
 1704               	.LM276:
 1705 09fa 5A98      		cbi 43-32,2
 1706               	.LM277:
 1707 09fc 5A9A      		sbi 43-32,2
 1708               	.L113:
 1709               	.LBE165:
 1710               	.LBE164:
 1711               	.LM278:
 1712 09fe 8091 7A00 		lds r24,122
 1713 0a02 8064      		ori r24,lo8(64)
 1714 0a04 8093 7A00 		sts 122,r24
 1715 0a08 00C0      		rjmp .L42
 1716               	.L96:
 1717               	.LM279:
 1718 0a0a 8730      		cpi r24,7
 1719 0a0c 9105      		cpc r25,__zero_reg__
 1720 0a0e 01F4      		brne .L97
 1721               	.LM280:
 1722 0a10 80E0      		ldi r24,lo8(0)
 1723 0a12 90E0      		ldi r25,hi8(0)
 1724 0a14 6091 0000 		lds r22,chan
 1725 0a18 0E94 0000 		call prepareSetDAC
 1726               	.LBB166:
 1727               	.LBB167:
 1728               	.LM281:
 1729 0a1c 5A98      		cbi 43-32,2
 1730               	.LM282:
 1731 0a1e 5A9A      		sbi 43-32,2
 1732               	.L112:
 1733               	.LBE167:
 1734               	.LBE166:
 1735               	.LM283:
 1736 0a20 9091 7800 		lds r25,120
 1737 0a24 9093 0000 		sts ADCL_,r25
 1738               	.LM284:
 1739 0a28 8091 7900 		lds r24,121
 1740 0a2c 8093 0000 		sts ADCH_,r24
 1741               	.LM285:
 1742 0a30 9093 C600 		sts 198,r25
 1743 0a34 00C0      		rjmp .L42
 1744               	.L97:
 1745               	.LM286:
 1746 0a36 0897      		sbiw r24,8
 1747 0a38 01F4      		brne .L42
 1748               	.LM287:
 1749 0a3a 8091 0000 		lds r24,ADCH_
 1750               	.L107:
 1751 0a3e 8093 C600 		sts 198,r24
 1752               	.L42:
 1753               	.LM288:
 1754 0a42 1092 0000 		sts (ctr)+1,__zero_reg__
 1755 0a46 1092 0000 		sts ctr,__zero_reg__
 1756               	.LM289:
 1757 0a4a 8091 0000 		lds r24,MD
 1758 0a4e 8530      		cpi r24,lo8(5)
 1759 0a50 01F4      		brne .L98
 1760               	.LM290:
 1761 0a52 8091 0000 		lds r24,event_cnt
 1762 0a56 9091 0000 		lds r25,(event_cnt)+1
 1763 0a5a 8031      		cpi r24,16
 1764 0a5c 9105      		cpc r25,__zero_reg__
 1765 0a5e 04F4      		brge .L37
 1766               	.LM291:
 1767 0a60 0196      		adiw r24,1
 1768 0a62 9093 0000 		sts (event_cnt)+1,r25
 1769 0a66 8093 0000 		sts event_cnt,r24
 1770 0a6a 00C0      		rjmp .L37
 1771               	.L98:
 1772 0a6c 2091 0000 		lds r18,event_cnt
 1773 0a70 3091 0000 		lds r19,(event_cnt)+1
 1774               	.LM292:
 1775 0a74 8230      		cpi r24,lo8(2)
 1776 0a76 01F4      		brne .L99
 1777               	.LM293:
 1778 0a78 C901      		movw r24,r18
 1779 0a7a 0196      		adiw r24,1
 1780 0a7c 9093 0000 		sts (event_cnt)+1,r25
 1781 0a80 8093 0000 		sts event_cnt,r24
 1782               	.LM294:
 1783 0a84 0897      		sbiw r24,8
 1784 0a86 04F0      		brlt .L37
 1785 0a88 00C0      		rjmp .L114
 1786               	.L99:
 1787               	.LM295:
 1788 0a8a 2F5F      		subi r18,lo8(-(1))
 1789 0a8c 3F4F      		sbci r19,hi8(-(1))
 1790 0a8e 3093 0000 		sts (event_cnt)+1,r19
 1791 0a92 2093 0000 		sts event_cnt,r18
 1792               	.LM296:
 1793 0a96 8091 0000 		lds r24,T
 1794 0a9a 90E0      		ldi r25,lo8(0)
 1795 0a9c 8217      		cp r24,r18
 1796 0a9e 9307      		cpc r25,r19
 1797 0aa0 04F4      		brge .L37
 1798               	.L114:
 1799               	.LM297:
 1800 0aa2 1092 0000 		sts (event_cnt)+1,__zero_reg__
 1801 0aa6 1092 0000 		sts event_cnt,__zero_reg__
 1802               	.L37:
 1803               	.LM298:
 1804 0aaa 8091 0000 		lds r24,ctr
 1805 0aae 9091 0000 		lds r25,(ctr)+1
 1806 0ab2 0196      		adiw r24,1
 1807 0ab4 9093 0000 		sts (ctr)+1,r25
 1808 0ab8 8093 0000 		sts ctr,r24
 1809               	/* epilogue start */
 1810               	.LM299:
 1811 0abc FF91      		pop r31
 1812 0abe EF91      		pop r30
 1813 0ac0 BF91      		pop r27
 1814 0ac2 AF91      		pop r26
 1815 0ac4 9F91      		pop r25
 1816 0ac6 8F91      		pop r24
 1817 0ac8 7F91      		pop r23
 1818 0aca 6F91      		pop r22
 1819 0acc 5F91      		pop r21
 1820 0ace 4F91      		pop r20
 1821 0ad0 3F91      		pop r19
 1822 0ad2 2F91      		pop r18
 1823 0ad4 0F90      		pop r0
 1824 0ad6 0FBE      		out __SREG__,r0
 1825 0ad8 0F90      		pop r0
 1826 0ada 1F90      		pop __zero_reg__
 1827 0adc 1895      		reti
 1828               	.LFE20:
 1830               	.global	__vector_18
 1832               	__vector_18:
 1833               	.LFB21:
 1834               	.LM300:
 1835 0ade 1F92      		push __zero_reg__
 1836 0ae0 0F92      		push r0
 1837 0ae2 0FB6      		in r0,__SREG__
 1838 0ae4 0F92      		push r0
 1839 0ae6 1124      		clr __zero_reg__
 1840 0ae8 2F93      		push r18
 1841 0aea 3F93      		push r19
 1842 0aec 4F93      		push r20
 1843 0aee 5F93      		push r21
 1844 0af0 6F93      		push r22
 1845 0af2 7F93      		push r23
 1846 0af4 8F93      		push r24
 1847 0af6 9F93      		push r25
 1848 0af8 AF93      		push r26
 1849 0afa BF93      		push r27
 1850 0afc EF93      		push r30
 1851 0afe FF93      		push r31
 1852               	/* prologue: Signal */
 1853               	/* frame size = 0 */
 1854               	.LM301:
 1855 0b00 8091 0000 		lds r24,ptr
 1856 0b04 8430      		cpi r24,lo8(4)
 1857 0b06 01F4      		brne .+2
 1858 0b08 00C0      		rjmp .L128
 1859 0b0a 8530      		cpi r24,lo8(5)
 1860 0b0c 00F4      		brsh .L134
 1861 0b0e 8130      		cpi r24,lo8(1)
 1862 0b10 01F0      		breq .L125
 1863 0b12 8130      		cpi r24,lo8(1)
 1864 0b14 00F0      		brlo .L124
 1865 0b16 8230      		cpi r24,lo8(2)
 1866 0b18 01F4      		brne .+2
 1867 0b1a 00C0      		rjmp .L126
 1868 0b1c 8330      		cpi r24,lo8(3)
 1869 0b1e 01F0      		breq .+2
 1870 0b20 00C0      		rjmp .L123
 1871 0b22 00C0      		rjmp .L141
 1872               	.L134:
 1873 0b24 8730      		cpi r24,lo8(7)
 1874 0b26 01F4      		brne .+2
 1875 0b28 00C0      		rjmp .L131
 1876 0b2a 8830      		cpi r24,lo8(8)
 1877 0b2c 00F4      		brsh .L135
 1878 0b2e 8530      		cpi r24,lo8(5)
 1879 0b30 01F4      		brne .+2
 1880 0b32 00C0      		rjmp .L129
 1881 0b34 8630      		cpi r24,lo8(6)
 1882 0b36 01F0      		breq .+2
 1883 0b38 00C0      		rjmp .L123
 1884 0b3a 00C0      		rjmp .L142
 1885               	.L135:
 1886 0b3c 8830      		cpi r24,lo8(8)
 1887 0b3e 01F4      		brne .+2
 1888 0b40 00C0      		rjmp .L132
 1889 0b42 8930      		cpi r24,lo8(9)
 1890 0b44 01F0      		breq .+2
 1891 0b46 00C0      		rjmp .L123
 1892 0b48 00C0      		rjmp .L143
 1893               	.L124:
 1894               	.LM302:
 1895 0b4a 8091 C600 		lds r24,198
 1896 0b4e 8F3F      		cpi r24,lo8(-1)
 1897 0b50 01F0      		breq .L136
 1898               	.LM303:
 1899 0b52 1092 0000 		sts sync,__zero_reg__
 1900               	.LM304:
 1901 0b56 83E0      		ldi r24,lo8(3)
 1902 0b58 8093 0000 		sts ptr,r24
 1903 0b5c 00C0      		rjmp .L123
 1904               	.L136:
 1905               	.LM305:
 1906 0b5e 81E0      		ldi r24,lo8(1)
 1907 0b60 8093 0000 		sts sync,r24
 1908 0b64 00C0      		rjmp .L123
 1909               	.L125:
 1910               	.LM306:
 1911 0b66 2091 C600 		lds r18,198
 1912 0b6a 2093 0000 		sts MD,r18
 1913               	.LM307:
 1914 0b6e 2130      		cpi r18,lo8(1)
 1915 0b70 01F4      		brne .L137
 1916               	.LM308:
 1917 0b72 84E0      		ldi r24,lo8(4)
 1918 0b74 90E0      		ldi r25,hi8(4)
 1919 0b76 9093 0000 		sts (time_step)+1,r25
 1920 0b7a 8093 0000 		sts time_step,r24
 1921 0b7e 00C0      		rjmp .L123
 1922               	.L137:
 1923               	.LM309:
 1924 0b80 86E0      		ldi r24,lo8(6)
 1925 0b82 90E0      		ldi r25,hi8(6)
 1926 0b84 9093 0000 		sts (time_step)+1,r25
 1927 0b88 8093 0000 		sts time_step,r24
 1928               	.LM310:
 1929 0b8c 2230      		cpi r18,lo8(2)
 1930 0b8e 01F0      		breq .+2
 1931 0b90 00C0      		rjmp .L123
 1932               	.LM311:
 1933 0b92 1092 0000 		sts PROGRAM_done,__zero_reg__
 1934               	.LM312:
 1935 0b96 1092 0000 		sts (proging_val)+1,__zero_reg__
 1936 0b9a 1092 0000 		sts proging_val,__zero_reg__
 1937 0b9e 00C0      		rjmp .L123
 1938               	.L126:
 1939               	.LM313:
 1940 0ba0 8091 C600 		lds r24,198
 1941 0ba4 90E0      		ldi r25,lo8(0)
 1942 0ba6 9093 0000 		sts (x16_simple)+1,r25
 1943 0baa 8093 0000 		sts x16_simple,r24
 1944               	.LM314:
 1945 0bae B4E0      		ldi r27,4
 1946 0bb0 880F      	1:	lsl r24
 1947 0bb2 991F      		rol r25
 1948 0bb4 BA95      		dec r27
 1949 0bb6 01F4      		brne 1b
 1950 0bb8 9093 0000 		sts (x16)+1,r25
 1951 0bbc 8093 0000 		sts x16,r24
 1952 0bc0 00C0      		rjmp .L123
 1953               	.L141:
 1954               	.LM315:
 1955 0bc2 8091 C600 		lds r24,198
 1956 0bc6 90E0      		ldi r25,lo8(0)
 1957 0bc8 A4E0      		ldi r26,4
 1958 0bca 880F      	1:	lsl r24
 1959 0bcc 991F      		rol r25
 1960 0bce AA95      		dec r26
 1961 0bd0 01F4      		brne 1b
 1962 0bd2 9093 0000 		sts (ref16)+1,r25
 1963 0bd6 8093 0000 		sts ref16,r24
 1964 0bda 00C0      		rjmp .L123
 1965               	.L128:
 1966               	.LM316:
 1967 0bdc 8091 0000 		lds r24,MD
 1968 0be0 8230      		cpi r24,lo8(2)
 1969 0be2 01F4      		brne .L138
 1970               	.LM317:
 1971 0be4 8091 C600 		lds r24,198
 1972 0be8 8093 0000 		sts t1,r24
 1973 0bec 00C0      		rjmp .L123
 1974               	.L138:
 1975               	.LM318:
 1976 0bee 8091 C600 		lds r24,198
 1977 0bf2 90E0      		ldi r25,lo8(0)
 1978 0bf4 F4E0      		ldi r31,4
 1979 0bf6 880F      	1:	lsl r24
 1980 0bf8 991F      		rol r25
 1981 0bfa FA95      		dec r31
 1982 0bfc 01F4      		brne 1b
 1983 0bfe 9093 0000 		sts (reset16)+1,r25
 1984 0c02 8093 0000 		sts reset16,r24
 1985 0c06 00C0      		rjmp .L123
 1986               	.L129:
 1987               	.LM319:
 1988 0c08 8091 C600 		lds r24,198
 1989 0c0c 8093 0000 		sts t2,r24
 1990 0c10 00C0      		rjmp .L123
 1991               	.L142:
 1992               	.LM320:
 1993 0c12 8091 C600 		lds r24,198
 1994 0c16 8093 0000 		sts dT,r24
 1995 0c1a 00C0      		rjmp .L123
 1996               	.L131:
 1997               	.LM321:
 1998 0c1c 8091 C600 		lds r24,198
 1999 0c20 8093 0000 		sts T,r24
 2000 0c24 00C0      		rjmp .L123
 2001               	.L132:
 2002               	.LM322:
 2003 0c26 8091 C600 		lds r24,198
 2004 0c2a 8093 0000 		sts chan,r24
 2005 0c2e 00C0      		rjmp .L123
 2006               	.L143:
 2007               	.LM323:
 2008 0c30 8091 C600 		lds r24,198
 2009 0c34 E091 0000 		lds r30,chan
 2010 0c38 F0E0      		ldi r31,lo8(0)
 2011 0c3a E050      		subi r30,lo8(-(reverted))
 2012 0c3c F040      		sbci r31,hi8(-(reverted))
 2013 0c3e 8083      		st Z,r24
 2014               	.LM324:
 2015 0c40 8091 0000 		lds r24,MD
 2016 0c44 8330      		cpi r24,lo8(3)
 2017 0c46 01F4      		brne .L139
 2018               	.LM325:
 2019 0c48 0E94 0000 		call gatherMult
 2020 0c4c 00C0      		rjmp .L123
 2021               	.L139:
 2022               	.LM326:
 2023 0c4e 8430      		cpi r24,lo8(4)
 2024 0c50 01F4      		brne .L123
 2025               	.LM327:
 2026 0c52 0E94 0000 		call usualMult
 2027               	.L123:
 2028               	.LM328:
 2029 0c56 8091 0000 		lds r24,t2
 2030 0c5a 9091 0000 		lds r25,dT
 2031 0c5e 890F      		add r24,r25
 2032 0c60 8093 0000 		sts dTt2,r24
 2033               	.LM329:
 2034 0c64 8091 0000 		lds r24,ptr
 2035 0c68 8F5F      		subi r24,lo8(-(1))
 2036 0c6a 6AE0      		ldi r22,lo8(10)
 2037 0c6c 0E94 0000 		call __udivmodqi4
 2038 0c70 9093 0000 		sts ptr,r25
 2039               	/* epilogue start */
 2040               	.LM330:
 2041 0c74 FF91      		pop r31
 2042 0c76 EF91      		pop r30
 2043 0c78 BF91      		pop r27
 2044 0c7a AF91      		pop r26
 2045 0c7c 9F91      		pop r25
 2046 0c7e 8F91      		pop r24
 2047 0c80 7F91      		pop r23
 2048 0c82 6F91      		pop r22
 2049 0c84 5F91      		pop r21
 2050 0c86 4F91      		pop r20
 2051 0c88 3F91      		pop r19
 2052 0c8a 2F91      		pop r18
 2053 0c8c 0F90      		pop r0
 2054 0c8e 0FBE      		out __SREG__,r0
 2055 0c90 0F90      		pop r0
 2056 0c92 1F90      		pop __zero_reg__
 2057 0c94 1895      		reti
 2058               	.LFE21:
 2060               	.global	SYNC_PINS
 2061               		.data
 2064               	SYNC_PINS:
 2065 0000 2B00      		.word	43
 2066 0002 03        		.byte	3
 2067 0003 2B00      		.word	43
 2068 0005 06        		.byte	6
 2069 0006 2B00      		.word	43
 2070 0008 07        		.byte	7
 2071 0009 2500      		.word	37
 2072 000b 00        		.byte	0
 2073 000c 2500      		.word	37
 2074 000e 01        		.byte	1
 2075 000f 2800      		.word	40
 2076 0011 02        		.byte	2
 2077 0012 2800      		.word	40
 2078 0014 03        		.byte	3
 2079 0015 2800      		.word	40
 2080 0017 04        		.byte	4
 2081               	.global	sep1_pin
 2084               	sep1_pin:
 2085 0018 2B00      		.word	43
 2086 001a 05        		.byte	5
 2087               	.global	sep2_pin
 2090               	sep2_pin:
 2091 001b 2B00      		.word	43
 2092 001d 06        		.byte	6
 2093               	.global	sep3_pin
 2096               	sep3_pin:
 2097 001e 2B00      		.word	43
 2098 0020 07        		.byte	7
 2099               	.global	sep4_pin
 2102               	sep4_pin:
 2103 0021 2500      		.word	37
 2104 0023 00        		.byte	0
 2105               	.global	resister_pin
 2108               	resister_pin:
 2109 0024 2800      		.word	40
 2110 0026 04        		.byte	4
 2111               	.global	MD
 2112               	.global	MD
 2113               		.section .bss
 2116               	MD:
 2117 0000 00        		.skip 1,0
 2118               	.global	STAT_N
 2119               		.data
 2122               	STAT_N:
 2123 0027 11        		.byte	17
 2124               	.global	STAT_CYCLE
 2127               	STAT_CYCLE:
 2128 0028 05        		.byte	5
 2129               	.global	voltage16
 2130               	.global	voltage16
 2131               		.section .bss
 2134               	voltage16:
 2135 0001 0000      		.skip 2,0
 2136               	.global	voltage16_h
 2137               	.global	voltage16_h
 2140               	voltage16_h:
 2141 0003 0000      		.skip 2,0
 2142               	.global	voltage16_hh
 2143               	.global	voltage16_hh
 2146               	voltage16_hh:
 2147 0005 0000      		.skip 2,0
 2148               	.global	proging_val
 2149               	.global	proging_val
 2152               	proging_val:
 2153 0007 0000      		.skip 2,0
 2154               	.global	x16
 2155               	.global	x16
 2158               	x16:
 2159 0009 0000      		.skip 2,0
 2160               	.global	ref16
 2161               	.global	ref16
 2164               	ref16:
 2165 000b 0000      		.skip 2,0
 2166               	.global	reset16
 2167               	.global	reset16
 2170               	reset16:
 2171 000d 0000      		.skip 2,0
 2172               	.global	sync
 2173               	.global	sync
 2176               	sync:
 2177 000f 00        		.skip 1,0
 2178               	.global	t1
 2179               		.data
 2182               	t1:
 2183 0029 02        		.byte	2
 2184               	.global	t2
 2187               	t2:
 2188 002a 02        		.byte	2
 2189               	.global	dTt2
 2192               	dTt2:
 2193 002b 0A        		.byte	10
 2194               	.global	pos_phase
 2197               	pos_phase:
 2198 002c 01        		.byte	1
 2199               	.global	STAT_dt_step
 2200               	.global	STAT_dt_step
 2201               		.section .bss
 2204               	STAT_dt_step:
 2205 0010 00        		.skip 1,0
 2206               	.global	STAT_V_step
 2207               	.global	STAT_V_step
 2210               	STAT_V_step:
 2211 0011 00        		.skip 1,0
 2212               	.global	ptr
 2213               	.global	ptr
 2216               	ptr:
 2217 0012 00        		.skip 1,0
 2218               	.global	PROGRAM_done
 2219               	.global	PROGRAM_done
 2222               	PROGRAM_done:
 2223 0013 00        		.skip 1,0
 2224               	.global	chan
 2225               	.global	chan
 2228               	chan:
 2229 0014 00        		.skip 1,0
 2230               	.global	an_cnt
 2231               	.global	an_cnt
 2234               	an_cnt:
 2235 0015 0000      		.skip 2,0
 2236               	.global	an_cnt_fast
 2237               	.global	an_cnt_fast
 2240               	an_cnt_fast:
 2241 0017 0000      		.skip 2,0
 2242               	.global	reverted
 2243               	.global	reverted
 2246               	reverted:
 2247 0019 0000 0000 		.skip 64,0
 2247      0000 0000 
 2247      0000 0000 
 2247      0000 0000 
 2247      0000 0000 
 2248               	.global	time_step
 2249               		.data
 2252               	time_step:
 2253 002d 0600      		.word	6
 2254               	.global	eventN
 2257               	eventN:
 2258 002f 6400      		.word	100
 2259               		.lcomm adc_h.1517,2
 2260               		.lcomm send8.1407,1
 2261               		.comm chan_addrs,8,1
 2262               		.comm BIG_STAT_N,1,1
 2263               		.comm x16_grad,2,1
 2264               		.comm x16_simple,2,1
 2265               		.comm dT,1,1
 2266               		.comm T,1,1
 2267               		.comm VAC_cnt,1,1
 2268               		.comm c,1,1
 2269               		.comm _adc,2,1
 2270               		.comm ctr,2,1
 2271               		.comm event_cnt,2,1
 2272               		.comm ADC_cnt,2,1
 2273               		.comm ADCH_,1,1
 2274               		.comm ADCL_,1,1
 2275               		.comm ADCH__,1,1
 2276               		.comm ADCL__,1,1
 2421               	.Letext0:
DEFINED SYMBOLS
                            *ABS*:00000000 main.c
C:\Users\DrPepper\AppData\Local\Temp/ccbU5rkq.s:2      *ABS*:0000003f __SREG__
C:\Users\DrPepper\AppData\Local\Temp/ccbU5rkq.s:3      *ABS*:0000003e __SP_H__
C:\Users\DrPepper\AppData\Local\Temp/ccbU5rkq.s:4      *ABS*:0000003d __SP_L__
C:\Users\DrPepper\AppData\Local\Temp/ccbU5rkq.s:5      *ABS*:00000034 __CCP__
C:\Users\DrPepper\AppData\Local\Temp/ccbU5rkq.s:6      *ABS*:00000000 __tmp_reg__
C:\Users\DrPepper\AppData\Local\Temp/ccbU5rkq.s:7      *ABS*:00000001 __zero_reg__
C:\Users\DrPepper\AppData\Local\Temp/ccbU5rkq.s:18     .text:00000000 set_pin
C:\Users\DrPepper\AppData\Local\Temp/ccbU5rkq.s:58     .text:00000036 reset_pin
C:\Users\DrPepper\AppData\Local\Temp/ccbU5rkq.s:99     .text:0000006e gatherMult
C:\Users\DrPepper\AppData\Local\Temp/ccbU5rkq.s:2090   .data:0000001b sep2_pin
C:\Users\DrPepper\AppData\Local\Temp/ccbU5rkq.s:2096   .data:0000001e sep3_pin
C:\Users\DrPepper\AppData\Local\Temp/ccbU5rkq.s:2084   .data:00000018 sep1_pin
C:\Users\DrPepper\AppData\Local\Temp/ccbU5rkq.s:2108   .data:00000024 resister_pin
C:\Users\DrPepper\AppData\Local\Temp/ccbU5rkq.s:2102   .data:00000021 sep4_pin
C:\Users\DrPepper\AppData\Local\Temp/ccbU5rkq.s:212    .text:00000116 usualMult
C:\Users\DrPepper\AppData\Local\Temp/ccbU5rkq.s:321    .text:000001b6 set_reverser
C:\Users\DrPepper\AppData\Local\Temp/ccbU5rkq.s:334    .text:000001b8 ADC_Init
C:\Users\DrPepper\AppData\Local\Temp/ccbU5rkq.s:358    .text:000001ce timer_init
C:\Users\DrPepper\AppData\Local\Temp/ccbU5rkq.s:383    .text:000001e6 uart_init
C:\Users\DrPepper\AppData\Local\Temp/ccbU5rkq.s:408    .text:000001fc SPI_MasterInit
C:\Users\DrPepper\AppData\Local\Temp/ccbU5rkq.s:427    .text:00000208 SPI_WriteByte
C:\Users\DrPepper\AppData\Local\Temp/ccbU5rkq.s:447    .text:00000212 prepareResetDAC
C:\Users\DrPepper\AppData\Local\Temp/ccbU5rkq.s:2064   .data:00000000 SYNC_PINS
                            *COM*:00000008 chan_addrs
C:\Users\DrPepper\AppData\Local\Temp/ccbU5rkq.s:545    .text:000002a6 prepareSetDAC
C:\Users\DrPepper\AppData\Local\Temp/ccbU5rkq.s:2259   .bss:0000005b send8.1407
C:\Users\DrPepper\AppData\Local\Temp/ccbU5rkq.s:665    .text:00000354 setDAC
C:\Users\DrPepper\AppData\Local\Temp/ccbU5rkq.s:681    .text:0000035a main
C:\Users\DrPepper\AppData\Local\Temp/ccbU5rkq.s:2127   .data:00000028 STAT_CYCLE
C:\Users\DrPepper\AppData\Local\Temp/ccbU5rkq.s:2122   .data:00000027 STAT_N
                            *COM*:00000001 BIG_STAT_N
C:\Users\DrPepper\AppData\Local\Temp/ccbU5rkq.s:814    .text:00000406 __vector_9
                            *COM*:00000002 ctr
C:\Users\DrPepper\AppData\Local\Temp/ccbU5rkq.s:2252   .data:0000002d time_step
C:\Users\DrPepper\AppData\Local\Temp/ccbU5rkq.s:2116   .bss:00000000 MD
                            *COM*:00000002 event_cnt
                            *COM*:00000001 ADCL_
                            *COM*:00000001 ADCH_
C:\Users\DrPepper\AppData\Local\Temp/ccbU5rkq.s:2182   .data:00000029 t1
                            *COM*:00000001 dT
C:\Users\DrPepper\AppData\Local\Temp/ccbU5rkq.s:2192   .data:0000002b dTt2
                            *COM*:00000002 _adc
                            *COM*:00000001 VAC_cnt
                            *COM*:00000001 ADCL__
                            *COM*:00000001 ADCH__
C:\Users\DrPepper\AppData\Local\Temp/ccbU5rkq.s:2134   .bss:00000001 voltage16
C:\Users\DrPepper\AppData\Local\Temp/ccbU5rkq.s:2140   .bss:00000003 voltage16_h
C:\Users\DrPepper\AppData\Local\Temp/ccbU5rkq.s:2197   .data:0000002c pos_phase
C:\Users\DrPepper\AppData\Local\Temp/ccbU5rkq.s:2164   .bss:0000000b ref16
C:\Users\DrPepper\AppData\Local\Temp/ccbU5rkq.s:2158   .bss:00000009 x16
C:\Users\DrPepper\AppData\Local\Temp/ccbU5rkq.s:2228   .bss:00000014 chan
                            *COM*:00000001 T
C:\Users\DrPepper\AppData\Local\Temp/ccbU5rkq.s:2222   .bss:00000013 PROGRAM_done
                             .bss:00000059 adc_h.1517
C:\Users\DrPepper\AppData\Local\Temp/ccbU5rkq.s:2152   .bss:00000007 proging_val
C:\Users\DrPepper\AppData\Local\Temp/ccbU5rkq.s:2187   .data:0000002a t2
C:\Users\DrPepper\AppData\Local\Temp/ccbU5rkq.s:2170   .bss:0000000d reset16
C:\Users\DrPepper\AppData\Local\Temp/ccbU5rkq.s:2234   .bss:00000015 an_cnt
C:\Users\DrPepper\AppData\Local\Temp/ccbU5rkq.s:2210   .bss:00000011 STAT_V_step
                            *COM*:00000002 x16_grad
C:\Users\DrPepper\AppData\Local\Temp/ccbU5rkq.s:2240   .bss:00000017 an_cnt_fast
C:\Users\DrPepper\AppData\Local\Temp/ccbU5rkq.s:2204   .bss:00000010 STAT_dt_step
C:\Users\DrPepper\AppData\Local\Temp/ccbU5rkq.s:1832   .text:00000ade __vector_18
C:\Users\DrPepper\AppData\Local\Temp/ccbU5rkq.s:2216   .bss:00000012 ptr
C:\Users\DrPepper\AppData\Local\Temp/ccbU5rkq.s:2176   .bss:0000000f sync
                            *COM*:00000002 x16_simple
C:\Users\DrPepper\AppData\Local\Temp/ccbU5rkq.s:2246   .bss:00000019 reverted
C:\Users\DrPepper\AppData\Local\Temp/ccbU5rkq.s:2146   .bss:00000005 voltage16_hh
C:\Users\DrPepper\AppData\Local\Temp/ccbU5rkq.s:2257   .data:0000002f eventN
                            *COM*:00000001 c
                            *COM*:00000002 ADC_cnt

UNDEFINED SYMBOLS
__divmodqi4
__udivmodqi4
__udivmodhi4
__do_copy_data
__do_clear_bss
