   1               		.file	"main.c"
   2               	__SREG__ = 0x3f
   3               	__SP_H__ = 0x3e
   4               	__SP_L__ = 0x3d
   5               	__CCP__  = 0x34
   6               	__tmp_reg__ = 0
   7               	__zero_reg__ = 1
  15               	.Ltext0:
  16               	.global	ADC_Init
  18               	ADC_Init:
  19               	.LFB6:
  20               	.LM1:
  21               	/* prologue: function */
  22               	/* frame size = 0 */
  23               	.LM2:
  24 0000 EAE7      		ldi r30,lo8(122)
  25 0002 F0E0      		ldi r31,hi8(122)
  26 0004 8081      		ld r24,Z
  27 0006 8368      		ori r24,lo8(-125)
  28 0008 8083      		st Z,r24
  29               	.LM3:
  30 000a ECE7      		ldi r30,lo8(124)
  31 000c F0E0      		ldi r31,hi8(124)
  32 000e 8081      		ld r24,Z
  33 0010 8064      		ori r24,lo8(64)
  34 0012 8083      		st Z,r24
  35               	/* epilogue start */
  36               	.LM4:
  37 0014 0895      		ret
  38               	.LFE6:
  40               	.global	timer_init
  42               	timer_init:
  43               	.LFB7:
  44               	.LM5:
  45               	/* prologue: function */
  46               	/* frame size = 0 */
  47               	.LM6:
  48 0016 1092 B000 		sts 176,__zero_reg__
  49               	.LM7:
  50 001a E1EB      		ldi r30,lo8(177)
  51 001c F0E0      		ldi r31,hi8(177)
  52 001e 1082      		st Z,__zero_reg__
  53               	.LM8:
  54 0020 8081      		ld r24,Z
  55 0022 8260      		ori r24,lo8(2)
  56 0024 8083      		st Z,r24
  57               	.LM9:
  58 0026 81E0      		ldi r24,lo8(1)
  59 0028 8093 7000 		sts 112,r24
  60               	/* epilogue start */
  61               	.LM10:
  62 002c 0895      		ret
  63               	.LFE7:
  65               	.global	uart_init
  67               	uart_init:
  68               	.LFB8:
  69               	.LM11:
  70               	.LVL0:
  71               	/* prologue: function */
  72               	/* frame size = 0 */
  73               	.LM12:
  74 002e 9093 C500 		sts 197,r25
  75               	.LVL1:
  76               	.LM13:
  77 0032 8093 C400 		sts 196,r24
  78               	.LM14:
  79 0036 88E9      		ldi r24,lo8(-104)
  80               	.LVL2:
  81 0038 8093 C100 		sts 193,r24
  82               	.LM15:
  83 003c 8EE0      		ldi r24,lo8(14)
  84 003e 8093 C200 		sts 194,r24
  85               	/* epilogue start */
  86               	.LM16:
  87 0042 0895      		ret
  88               	.LFE8:
  90               	.global	SPI_MasterInit
  92               	SPI_MasterInit:
  93               	.LFB9:
  94               	.LM17:
  95               	/* prologue: function */
  96               	/* frame size = 0 */
  97               	.LM18:
  98 0044 8CE2      		ldi r24,lo8(44)
  99 0046 84B9      		out 36-32,r24
 100               	.LM19:
 101 0048 8AE5      		ldi r24,lo8(90)
 102 004a 8CBD      		out 76-32,r24
 103               	/* epilogue start */
 104               	.LM20:
 105 004c 0895      		ret
 106               	.LFE9:
 108               	.global	gatherMult
 110               	gatherMult:
 111               	.LFB11:
 112               	.LM21:
 113               	/* prologue: function */
 114               	/* frame size = 0 */
 115               	.LM22:
 116 004e 5E98      		cbi 43-32,6
 117               	.LM23:
 118 0050 5F98      		cbi 43-32,7
 119               	.LM24:
 120 0052 5D98      		cbi 43-32,5
 121               	.LM25:
 122 0054 4498      		cbi 40-32,4
 123               	.LM26:
 124 0056 419A      		sbi 40-32,1
 125               	.LM27:
 126 0058 2A9A      		sbi 37-32,2
 127               	.LM28:
 128 005a 299A      		sbi 37-32,1
 129               	.LM29:
 130 005c 289A      		sbi 37-32,0
 131               	/* epilogue start */
 132               	.LM30:
 133 005e 0895      		ret
 134               	.LFE11:
 136               	.global	separMult
 138               	separMult:
 139               	.LFB12:
 140               	.LM31:
 141               	/* prologue: function */
 142               	/* frame size = 0 */
 143               	.LM32:
 144 0060 2998      		cbi 37-32,1
 145               	.LM33:
 146 0062 2A98      		cbi 37-32,2
 147               	.LM34:
 148 0064 4198      		cbi 40-32,1
 149               	.LM35:
 150 0066 449A      		sbi 40-32,4
 151               	.LM36:
 152 0068 5E9A      		sbi 43-32,6
 153               	.LM37:
 154 006a 5F9A      		sbi 43-32,7
 155               	.LM38:
 156 006c 289A      		sbi 37-32,0
 157               	.LM39:
 158 006e 5D9A      		sbi 43-32,5
 159               	/* epilogue start */
 160               	.LM40:
 161 0070 0895      		ret
 162               	.LFE12:
 164               	.global	SPI_WriteByte
 166               	SPI_WriteByte:
 167               	.LFB13:
 168               	.LM41:
 169               	.LVL3:
 170               	/* prologue: function */
 171               	/* frame size = 0 */
 172               	.LM42:
 173 0072 8EBD      		out 78-32,r24
 174               	.L14:
 175               	.LM43:
 176 0074 0DB4      		in __tmp_reg__,77-32
 177 0076 07FE      		sbrs __tmp_reg__,7
 178 0078 00C0      		rjmp .L14
 179               	/* epilogue start */
 180               	.LM44:
 181 007a 0895      		ret
 182               	.LFE13:
 184               	.global	setDAC
 186               	setDAC:
 187               	.LFB10:
 188               	.LM45:
 189               	.LVL4:
 190 007c 0F93      		push r16
 191 007e 1F93      		push r17
 192               	/* prologue: function */
 193               	/* frame size = 0 */
 194 0080 E62F      		mov r30,r22
 195               	.LM46:
 196 0082 0027      		clr r16
 197 0084 1127      		clr r17
 198 0086 081B      		sub r16,r24
 199 0088 190B      		sbc r17,r25
 200               	.LVL5:
 201               	.LM47:
 202 008a 0050      		subi r16,lo8(-(2048))
 203 008c 184F      		sbci r17,hi8(-(2048))
 204               	.LM48:
 205 008e 5B98      		cbi 43-32,3
 206               	.LM49:
 207 0090 FF27      		clr r31
 208 0092 E7FD      		sbrc r30,7
 209 0094 F095      		com r31
 210               	.LVL6:
 211 0096 E050      		subi r30,lo8(-(chan_addrs))
 212 0098 F040      		sbci r31,hi8(-(chan_addrs))
 213               	.LVL7:
 214 009a 8081      		ld r24,Z
 215 009c 8295      		swap r24
 216 009e 807F      		andi r24,lo8(-16)
 217 00a0 212F      		mov r18,r17
 218 00a2 3327      		clr r19
 219 00a4 27FD      		sbrc r18,7
 220 00a6 3A95      		dec r19
 221 00a8 2F70      		andi r18,lo8(15)
 222 00aa 822B      		or r24,r18
 223 00ac 8093 0000 		sts send8,r24
 224               	.LM50:
 225 00b0 90E0      		ldi r25,lo8(0)
 226 00b2 0E94 0000 		call SPI_WriteByte
 227               	.LVL8:
 228               	.LM51:
 229 00b6 0093 0000 		sts send8,r16
 230               	.LM52:
 231 00ba 802F      		mov r24,r16
 232 00bc 90E0      		ldi r25,lo8(0)
 233 00be 0E94 0000 		call SPI_WriteByte
 234               	.LM53:
 235 00c2 5B9A      		sbi 43-32,3
 236               	/* epilogue start */
 237               	.LM54:
 238 00c4 1F91      		pop r17
 239 00c6 0F91      		pop r16
 240               	.LVL9:
 241 00c8 0895      		ret
 242               	.LFE10:
 244               	.global	set_reverser
 246               	set_reverser:
 247               	.LFB14:
 248               	.LM55:
 249               	.LVL10:
 250               	/* prologue: function */
 251               	/* frame size = 0 */
 252               	/* epilogue start */
 253               	.LM56:
 254 00ca 0895      		ret
 255               	.LFE14:
 257               	.global	main
 259               	main:
 260               	.LFB15:
 261               	.LM57:
 262 00cc 1F93      		push r17
 263               	/* prologue: function */
 264               	/* frame size = 0 */
 265               	.LM58:
 266 00ce 88B1      		in r24,40-32
 267 00d0 88B9      		out 40-32,r24
 268               	.LM59:
 269 00d2 8EE1      		ldi r24,lo8(30)
 270 00d4 87B9      		out 39-32,r24
 271               	.LM60:
 272 00d6 8EEF      		ldi r24,lo8(-2)
 273 00d8 8AB9      		out 42-32,r24
 274               	.LM61:
 275 00da 8FE1      		ldi r24,lo8(31)
 276 00dc 84B9      		out 36-32,r24
 277               	.LM62:
 278               	/* #APP */
 279               	 ;  232 "main.c" 1
 280 00de 7894      		sei
 281               	 ;  0 "" 2
 282               	/* #NOAPP */
 283               	.LBB15:
 284               	.LBB16:
 285               	.LM63:
 286 00e0 8CE2      		ldi r24,lo8(44)
 287 00e2 84B9      		out 36-32,r24
 288               	.LM64:
 289 00e4 8AE5      		ldi r24,lo8(90)
 290 00e6 8CBD      		out 76-32,r24
 291               	.LBE16:
 292               	.LBE15:
 293               	.LBB17:
 294               	.LBB18:
 295               	.LM65:
 296 00e8 1092 B000 		sts 176,__zero_reg__
 297               	.LM66:
 298 00ec 1092 B100 		sts 177,__zero_reg__
 299               	.LM67:
 300 00f0 8091 B100 		lds r24,177
 301 00f4 8260      		ori r24,lo8(2)
 302 00f6 8093 B100 		sts 177,r24
 303               	.LM68:
 304 00fa 81E0      		ldi r24,lo8(1)
 305 00fc 8093 7000 		sts 112,r24
 306               	.LBE18:
 307               	.LBE17:
 308               	.LBB19:
 309               	.LBB20:
 310               	.LM69:
 311 0100 1092 C500 		sts 197,__zero_reg__
 312               	.LM70:
 313 0104 83E3      		ldi r24,lo8(51)
 314 0106 8093 C400 		sts 196,r24
 315               	.LM71:
 316 010a 88E9      		ldi r24,lo8(-104)
 317 010c 8093 C100 		sts 193,r24
 318               	.LM72:
 319 0110 8EE0      		ldi r24,lo8(14)
 320 0112 8093 C200 		sts 194,r24
 321               	.LBE20:
 322               	.LBE19:
 323               	.LBB21:
 324               	.LBB22:
 325               	.LM73:
 326 0116 8091 7A00 		lds r24,122
 327 011a 8368      		ori r24,lo8(-125)
 328 011c 8093 7A00 		sts 122,r24
 329               	.LM74:
 330 0120 8091 7C00 		lds r24,124
 331 0124 8064      		ori r24,lo8(64)
 332 0126 8093 7C00 		sts 124,r24
 333               	.LBE22:
 334               	.LBE21:
 335               	.LM75:
 336 012a 8091 7A00 		lds r24,122
 337 012e 8064      		ori r24,lo8(64)
 338 0130 8093 7A00 		sts 122,r24
 339               	.LM76:
 340 0134 8091 7800 		lds r24,120
 341               	.LM77:
 342 0138 8091 7800 		lds r24,120
 343 013c 10E0      		ldi r17,lo8(0)
 344               	.L22:
 345               	.LBB23:
 346               	.LM78:
 347 013e 80E0      		ldi r24,lo8(0)
 348 0140 90E0      		ldi r25,hi8(0)
 349 0142 612F      		mov r22,r17
 350 0144 0E94 0000 		call setDAC
 351 0148 1F5F      		subi r17,lo8(-(1))
 352               	.LM79:
 353 014a 1830      		cpi r17,lo8(8)
 354 014c 01F4      		brne .L22
 355               	.LBE23:
 356               	.LM80:
 357 014e 5A98      		cbi 43-32,2
 358               	.LM81:
 359 0150 5A9A      		sbi 43-32,2
 360               	.LM82:
 361 0152 0E94 0000 		call separMult
 362               	.L23:
 363 0156 00C0      		rjmp .L23
 364               	.LFE15:
 366               	.global	__vector_9
 368               	__vector_9:
 369               	.LFB16:
 370               	.LM83:
 371 0158 1F92      		push __zero_reg__
 372 015a 0F92      		push r0
 373 015c 0FB6      		in r0,__SREG__
 374 015e 0F92      		push r0
 375 0160 1124      		clr __zero_reg__
 376 0162 2F93      		push r18
 377 0164 3F93      		push r19
 378 0166 4F93      		push r20
 379 0168 5F93      		push r21
 380 016a 6F93      		push r22
 381 016c 7F93      		push r23
 382 016e 8F93      		push r24
 383 0170 9F93      		push r25
 384 0172 AF93      		push r26
 385 0174 BF93      		push r27
 386 0176 EF93      		push r30
 387 0178 FF93      		push r31
 388               	/* prologue: Signal */
 389               	/* frame size = 0 */
 390               	.LM84:
 391 017a 2091 0000 		lds r18,ctr
 392 017e 3091 0000 		lds r19,(ctr)+1
 393 0182 8091 0000 		lds r24,time_step
 394 0186 9091 0000 		lds r25,(time_step)+1
 395 018a 8217      		cp r24,r18
 396 018c 9307      		cpc r25,r19
 397 018e 04F0      		brlt .+2
 398 0190 00C0      		rjmp .L27
 399               	.LM85:
 400 0192 6091 0000 		lds r22,MD
 401 0196 6623      		tst r22
 402 0198 01F0      		breq .+2
 403 019a 00C0      		rjmp .L28
 404               	.LM86:
 405 019c 2091 0000 		lds r18,event_ctr
 406 01a0 3091 0000 		lds r19,(event_ctr)+1
 407 01a4 2130      		cpi r18,1
 408 01a6 3105      		cpc r19,__zero_reg__
 409 01a8 01F4      		brne .L29
 410               	.LM87:
 411 01aa 9091 7800 		lds r25,120
 412 01ae 9093 0000 		sts ADCL_,r25
 413               	.LM88:
 414 01b2 8091 7900 		lds r24,121
 415 01b6 8093 0000 		sts ADCH_,r24
 416               	.LM89:
 417 01ba 9093 C600 		sts 198,r25
 418 01be 00C0      		rjmp .L30
 419               	.L29:
 420               	.LM90:
 421 01c0 2230      		cpi r18,2
 422 01c2 3105      		cpc r19,__zero_reg__
 423 01c4 01F4      		brne .L31
 424               	.LM91:
 425 01c6 8091 0000 		lds r24,ADCH_
 426 01ca 8093 C600 		sts 198,r24
 427 01ce 00C0      		rjmp .L30
 428               	.L31:
 429               	.LM92:
 430 01d0 2115      		cp r18,__zero_reg__
 431 01d2 3105      		cpc r19,__zero_reg__
 432 01d4 01F4      		brne .L30
 433               	.LM93:
 434 01d6 8FEF      		ldi r24,lo8(-1)
 435 01d8 8093 C600 		sts 198,r24
 436               	.LM94:
 437 01dc 8091 0000 		lds r24,x16
 438 01e0 9091 0000 		lds r25,(x16)+1
 439 01e4 6091 0000 		lds r22,chan
 440 01e8 0E94 0000 		call setDAC
 441               	.LM95:
 442 01ec 8091 0000 		lds r24,x16
 443 01f0 9091 0000 		lds r25,(x16)+1
 444 01f4 00C0      		rjmp .L59
 445               	.L30:
 446               	.LM96:
 447 01f6 8091 0000 		lds r24,t1
 448 01fa 90E0      		ldi r25,lo8(0)
 449 01fc 2817      		cp r18,r24
 450 01fe 3907      		cpc r19,r25
 451 0200 01F4      		brne .+2
 452 0202 00C0      		rjmp .L61
 453               	.L33:
 454               	.LM97:
 455 0204 8091 0000 		lds r24,dT
 456 0208 90E0      		ldi r25,lo8(0)
 457 020a 2817      		cp r18,r24
 458 020c 3907      		cpc r19,r25
 459 020e 01F4      		brne .+2
 460 0210 00C0      		rjmp .L62
 461               	.L34:
 462               	.LM98:
 463 0212 0196      		adiw r24,1
 464 0214 2817      		cp r18,r24
 465 0216 3907      		cpc r19,r25
 466 0218 01F4      		brne .+2
 467 021a 00C0      		rjmp .L58
 468               	.L35:
 469               	.LM99:
 470 021c 8091 0000 		lds r24,dTt2
 471 0220 90E0      		ldi r25,lo8(0)
 472 0222 2817      		cp r18,r24
 473 0224 3907      		cpc r19,r25
 474 0226 01F0      		breq .+2
 475 0228 00C0      		rjmp .L32
 476               	.LM100:
 477 022a 8091 C000 		lds r24,192
 478 022e 85FF      		sbrs r24,5
 479 0230 00C0      		rjmp .L36
 480               	.LM101:
 481 0232 8091 0000 		lds r24,_adc
 482 0236 8093 C600 		sts 198,r24
 483               	.L36:
 484               	.LM102:
 485 023a 1092 0000 		sts (accum)+1,__zero_reg__
 486 023e 1092 0000 		sts accum,__zero_reg__
 487               	.LM103:
 488 0242 1092 0000 		sts ADC_on,__zero_reg__
 489               	.LM104:
 490 0246 1092 0000 		sts accum_cnt,__zero_reg__
 491               	.LM105:
 492 024a 80E0      		ldi r24,lo8(0)
 493 024c 90E0      		ldi r25,hi8(0)
 494 024e 6091 0000 		lds r22,chan
 495 0252 0E94 0000 		call setDAC
 496               	.LM106:
 497 0256 80E0      		ldi r24,lo8(0)
 498 0258 90E0      		ldi r25,hi8(0)
 499               	.L59:
 500 025a 62E0      		ldi r22,lo8(2)
 501 025c 00C0      		rjmp .L57
 502               	.L28:
 503               	.LM107:
 504 025e 6130      		cpi r22,lo8(1)
 505 0260 01F0      		breq .+2
 506 0262 00C0      		rjmp .L37
 507               	.LBB24:
 508               	.LM108:
 509 0264 8091 0000 		lds r24,i.1469
 510 0268 9091 0000 		lds r25,(i.1469)+1
 511 026c 0196      		adiw r24,1
 512 026e 9093 0000 		sts (i.1469)+1,r25
 513 0272 8093 0000 		sts i.1469,r24
 514               	.LM109:
 515 0276 8091 0000 		lds r24,UDP_cnt
 516 027a 8130      		cpi r24,lo8(1)
 517 027c 01F0      		breq .L40
 518 027e 8130      		cpi r24,lo8(1)
 519 0280 00F0      		brlo .L39
 520 0282 8230      		cpi r24,lo8(2)
 521 0284 01F0      		breq .L41
 522 0286 8330      		cpi r24,lo8(3)
 523 0288 01F0      		breq .+2
 524 028a 00C0      		rjmp .L38
 525 028c 00C0      		rjmp .L63
 526               	.L39:
 527               	.LM110:
 528 028e 8091 7A00 		lds r24,122
 529 0292 8064      		ori r24,lo8(64)
 530 0294 8093 7A00 		sts 122,r24
 531               	.LM111:
 532 0298 8FEF      		ldi r24,lo8(-1)
 533 029a 00C0      		rjmp .L56
 534               	.L40:
 535               	.LM112:
 536 029c 8091 0000 		lds r24,ADCL_
 537 02a0 8093 0000 		sts ADCL__,r24
 538               	.LM113:
 539 02a4 8091 0000 		lds r24,ADCH_
 540 02a8 8093 0000 		sts ADCH__,r24
 541               	.LM114:
 542 02ac 9091 7800 		lds r25,120
 543 02b0 9093 0000 		sts ADCL_,r25
 544               	.LM115:
 545 02b4 8091 7900 		lds r24,121
 546 02b8 8093 0000 		sts ADCH_,r24
 547               	.LM116:
 548 02bc 9093 C600 		sts 198,r25
 549 02c0 00C0      		rjmp .L38
 550               	.L41:
 551               	.LM117:
 552 02c2 8091 0000 		lds r24,ADCH_
 553               	.L56:
 554 02c6 8093 C600 		sts 198,r24
 555 02ca 00C0      		rjmp .L38
 556               	.L63:
 557               	.LM118:
 558 02cc 2091 0000 		lds r18,VAC16
 559 02d0 3091 0000 		lds r19,(VAC16)+1
 560 02d4 3093 0000 		sts (VAC16_H)+1,r19
 561 02d8 2093 0000 		sts VAC16_H,r18
 562               	.LM119:
 563 02dc 8091 0000 		lds r24,pos_phase
 564 02e0 8823      		tst r24
 565 02e2 01F0      		breq .L43
 566               	.LM120:
 567 02e4 205E      		subi r18,lo8(-(32))
 568 02e6 3F4F      		sbci r19,hi8(-(32))
 569 02e8 3093 0000 		sts (VAC16)+1,r19
 570 02ec 2093 0000 		sts VAC16,r18
 571               	.LM121:
 572 02f0 8091 0000 		lds r24,y16
 573 02f4 9091 0000 		lds r25,(y16)+1
 574 02f8 2817      		cp r18,r24
 575 02fa 3907      		cpc r19,r25
 576 02fc 04F0      		brlt .L44
 577               	.LM122:
 578 02fe 1092 0000 		sts pos_phase,__zero_reg__
 579 0302 00C0      		rjmp .L44
 580               	.L43:
 581               	.LM123:
 582 0304 C901      		movw r24,r18
 583 0306 8097      		sbiw r24,32
 584 0308 9093 0000 		sts (VAC16)+1,r25
 585 030c 8093 0000 		sts VAC16,r24
 586               	.LM124:
 587 0310 21E0      		ldi r18,lo8(1)
 588 0312 30E0      		ldi r19,hi8(1)
 589 0314 4091 0000 		lds r20,x16
 590 0318 5091 0000 		lds r21,(x16)+1
 591 031c 241B      		sub r18,r20
 592 031e 350B      		sbc r19,r21
 593 0320 8217      		cp r24,r18
 594 0322 9307      		cpc r25,r19
 595 0324 04F4      		brge .L44
 596               	.LM125:
 597 0326 6093 0000 		sts pos_phase,r22
 598               	.L44:
 599               	.LM126:
 600 032a 8091 0000 		lds r24,VAC16
 601 032e 9091 0000 		lds r25,(VAC16)+1
 602 0332 9C01      		movw r18,r24
 603 0334 74E0      		ldi r23,4
 604 0336 3595      	1:	asr r19
 605 0338 2795      		ror r18
 606 033a 7A95      		dec r23
 607 033c 01F4      		brne 1b
 608 033e 2093 C600 		sts 198,r18
 609               	.LM127:
 610 0342 6091 0000 		lds r22,chan
 611 0346 0E94 0000 		call setDAC
 612               	.LM128:
 613 034a 5A98      		cbi 43-32,2
 614               	.LM129:
 615 034c 5A9A      		sbi 43-32,2
 616               	.L38:
 617               	.LM130:
 618 034e 8091 0000 		lds r24,UDP_cnt
 619 0352 8F5F      		subi r24,lo8(-(1))
 620 0354 8370      		andi r24,lo8(3)
 621 0356 8093 0000 		sts UDP_cnt,r24
 622 035a 00C0      		rjmp .L32
 623               	.L37:
 624               	.LBE24:
 625               	.LM131:
 626 035c 6230      		cpi r22,lo8(2)
 627 035e 01F0      		breq .+2
 628 0360 00C0      		rjmp .L32
 629               	.LBB25:
 630               	.LM132:
 631 0362 80E1      		ldi r24,lo8(16)
 632 0364 8093 0000 		sts T,r24
 633               	.LM133:
 634 0368 4091 0000 		lds r20,event_ctr
 635 036c 5091 0000 		lds r21,(event_ctr)+1
 636 0370 4130      		cpi r20,1
 637 0372 5105      		cpc r21,__zero_reg__
 638 0374 01F4      		brne .L45
 639               	.LM134:
 640 0376 8091 0000 		lds r24,PROGRAM_done
 641 037a 8093 C600 		sts 198,r24
 642 037e 00C0      		rjmp .L46
 643               	.L45:
 644               	.LM135:
 645 0380 4230      		cpi r20,2
 646 0382 5105      		cpc r21,__zero_reg__
 647 0384 01F4      		brne .L47
 648               	.LM136:
 649 0386 9091 7800 		lds r25,120
 650 038a 9093 0000 		sts ADCL_,r25
 651               	.LM137:
 652 038e 8091 7900 		lds r24,121
 653 0392 8093 0000 		sts ADCH_,r24
 654               	.LM138:
 655 0396 9093 C600 		sts 198,r25
 656 039a 00C0      		rjmp .L48
 657               	.L47:
 658               	.LM139:
 659 039c 4330      		cpi r20,3
 660 039e 5105      		cpc r21,__zero_reg__
 661 03a0 01F4      		brne .L49
 662               	.LM140:
 663 03a2 8091 0000 		lds r24,ADCH_
 664 03a6 8093 C600 		sts 198,r24
 665               	.LM141:
 666 03aa 382F      		mov r19,r24
 667 03ac 20E0      		ldi r18,lo8(0)
 668 03ae 8091 0000 		lds r24,ADCL_
 669 03b2 90E0      		ldi r25,lo8(0)
 670 03b4 822B      		or r24,r18
 671 03b6 932B      		or r25,r19
 672 03b8 9093 0000 		sts (_adc)+1,r25
 673 03bc 8093 0000 		sts _adc,r24
 674               	.LM142:
 675 03c0 20E0      		ldi r18,lo8(512)
 676 03c2 32E0      		ldi r19,hi8(512)
 677 03c4 281B      		sub r18,r24
 678 03c6 390B      		sbc r19,r25
 679 03c8 3093 0000 		sts (adc_h.1475)+1,r19
 680 03cc 2093 0000 		sts adc_h.1475,r18
 681               	.LM143:
 682 03d0 8091 0000 		lds r24,t1
 683 03d4 90E0      		ldi r25,lo8(0)
 684 03d6 2817      		cp r18,r24
 685 03d8 3907      		cpc r19,r25
 686 03da 01F0      		breq .+2
 687 03dc 00C0      		rjmp .L46
 688               	.LM144:
 689 03de 81E0      		ldi r24,lo8(1)
 690 03e0 8093 0000 		sts PROGRAM_done,r24
 691               	.LM145:
 692 03e4 1092 0000 		sts (prog_val)+1,__zero_reg__
 693 03e8 1092 0000 		sts prog_val,__zero_reg__
 694 03ec 00C0      		rjmp .L50
 695               	.L49:
 696               	.LM146:
 697 03ee 4115      		cp r20,__zero_reg__
 698 03f0 5105      		cpc r21,__zero_reg__
 699 03f2 01F4      		brne .L46
 700               	.LM147:
 701 03f4 8FEF      		ldi r24,lo8(-1)
 702 03f6 8093 C600 		sts 198,r24
 703               	.LM148:
 704 03fa 2091 0000 		lds r18,prog_val
 705 03fe 3091 0000 		lds r19,(prog_val)+1
 706 0402 205E      		subi r18,lo8(-(32))
 707 0404 3F4F      		sbci r19,hi8(-(32))
 708 0406 3093 0000 		sts (prog_val)+1,r19
 709 040a 2093 0000 		sts prog_val,r18
 710               	.LM149:
 711 040e 4091 0000 		lds r20,x16
 712 0412 5091 0000 		lds r21,(x16)+1
 713 0416 80E2      		ldi r24,lo8(32)
 714 0418 90E0      		ldi r25,hi8(32)
 715 041a 841B      		sub r24,r20
 716 041c 950B      		sbc r25,r21
 717 041e 2817      		cp r18,r24
 718 0420 3907      		cpc r19,r25
 719 0422 01F4      		brne .L51
 720               	.LM150:
 721 0424 1092 0000 		sts (prog_val)+1,__zero_reg__
 722 0428 1092 0000 		sts prog_val,__zero_reg__
 723 042c 00C0      		rjmp .L52
 724               	.L51:
 725               	.LM151:
 726 042e 8091 0000 		lds r24,t2
 727 0432 90E0      		ldi r25,lo8(0)
 728 0434 64E0      		ldi r22,4
 729 0436 880F      	1:	lsl r24
 730 0438 991F      		rol r25
 731 043a 6A95      		dec r22
 732 043c 01F4      		brne 1b
 733 043e 8217      		cp r24,r18
 734 0440 9307      		cpc r25,r19
 735 0442 04F4      		brge .L52
 736               	.LM152:
 737 0444 8827      		clr r24
 738 0446 9927      		clr r25
 739 0448 841B      		sub r24,r20
 740 044a 950B      		sbc r25,r21
 741 044c 9093 0000 		sts (prog_val)+1,r25
 742 0450 8093 0000 		sts prog_val,r24
 743               	.L52:
 744               	.LM153:
 745 0454 8091 0000 		lds r24,PROGRAM_done
 746 0458 8823      		tst r24
 747 045a 01F0      		breq .L53
 748               	.LM154:
 749 045c 1092 0000 		sts (prog_val)+1,__zero_reg__
 750 0460 1092 0000 		sts prog_val,__zero_reg__
 751               	.L53:
 752               	.LM155:
 753 0464 8091 0000 		lds r24,prog_val
 754 0468 9091 0000 		lds r25,(prog_val)+1
 755 046c 00C0      		rjmp .L60
 756               	.L46:
 757               	.LM156:
 758 046e 4730      		cpi r20,7
 759 0470 5105      		cpc r21,__zero_reg__
 760 0472 01F0      		breq .L61
 761               	.L48:
 762               	.LM157:
 763 0474 4930      		cpi r20,9
 764 0476 5105      		cpc r21,__zero_reg__
 765 0478 01F4      		brne .L50
 766               	.L62:
 767               	.LM158:
 768 047a 8091 0000 		lds r24,y16
 769 047e 9091 0000 		lds r25,(y16)+1
 770 0482 00C0      		rjmp .L60
 771               	.L50:
 772               	.LM159:
 773 0484 4A30      		cpi r20,10
 774 0486 5105      		cpc r21,__zero_reg__
 775 0488 01F4      		brne .L54
 776               	.L58:
 777               	.LM160:
 778 048a 8091 7A00 		lds r24,122
 779 048e 8064      		ori r24,lo8(64)
 780 0490 8093 7A00 		sts 122,r24
 781 0494 00C0      		rjmp .L32
 782               	.L54:
 783               	.LM161:
 784 0496 4E30      		cpi r20,14
 785 0498 5105      		cpc r21,__zero_reg__
 786 049a 01F4      		brne .L32
 787               	.LM162:
 788 049c 1092 0000 		sts (accum)+1,__zero_reg__
 789 04a0 1092 0000 		sts accum,__zero_reg__
 790               	.LM163:
 791 04a4 1092 0000 		sts ADC_on,__zero_reg__
 792               	.LM164:
 793 04a8 1092 0000 		sts accum_cnt,__zero_reg__
 794               	.L61:
 795               	.LM165:
 796 04ac 80E0      		ldi r24,lo8(0)
 797 04ae 90E0      		ldi r25,hi8(0)
 798               	.L60:
 799 04b0 6091 0000 		lds r22,chan
 800               	.L57:
 801 04b4 0E94 0000 		call setDAC
 802               	.LM166:
 803 04b8 5A98      		cbi 43-32,2
 804               	.LM167:
 805 04ba 5A9A      		sbi 43-32,2
 806               	.L32:
 807               	.LBE25:
 808               	.LM168:
 809 04bc 1092 0000 		sts (ctr)+1,__zero_reg__
 810 04c0 1092 0000 		sts ctr,__zero_reg__
 811               	.LM169:
 812 04c4 2091 0000 		lds r18,event_ctr
 813 04c8 3091 0000 		lds r19,(event_ctr)+1
 814 04cc 2F5F      		subi r18,lo8(-(1))
 815 04ce 3F4F      		sbci r19,hi8(-(1))
 816 04d0 3093 0000 		sts (event_ctr)+1,r19
 817 04d4 2093 0000 		sts event_ctr,r18
 818               	.LM170:
 819 04d8 8091 0000 		lds r24,T
 820 04dc 90E0      		ldi r25,lo8(0)
 821 04de 8217      		cp r24,r18
 822 04e0 9307      		cpc r25,r19
 823 04e2 04F4      		brge .L27
 824               	.LM171:
 825 04e4 1092 0000 		sts (event_ctr)+1,__zero_reg__
 826 04e8 1092 0000 		sts event_ctr,__zero_reg__
 827               	.L27:
 828               	.LM172:
 829 04ec 8091 0000 		lds r24,ctr
 830 04f0 9091 0000 		lds r25,(ctr)+1
 831 04f4 0196      		adiw r24,1
 832 04f6 9093 0000 		sts (ctr)+1,r25
 833 04fa 8093 0000 		sts ctr,r24
 834               	/* epilogue start */
 835               	.LM173:
 836 04fe FF91      		pop r31
 837 0500 EF91      		pop r30
 838 0502 BF91      		pop r27
 839 0504 AF91      		pop r26
 840 0506 9F91      		pop r25
 841 0508 8F91      		pop r24
 842 050a 7F91      		pop r23
 843 050c 6F91      		pop r22
 844 050e 5F91      		pop r21
 845 0510 4F91      		pop r20
 846 0512 3F91      		pop r19
 847 0514 2F91      		pop r18
 848 0516 0F90      		pop r0
 849 0518 0FBE      		out __SREG__,r0
 850 051a 0F90      		pop r0
 851 051c 1F90      		pop __zero_reg__
 852 051e 1895      		reti
 853               	.LFE16:
 855               	.global	__vector_18
 857               	__vector_18:
 858               	.LFB17:
 859               	.LM174:
 860 0520 1F92      		push __zero_reg__
 861 0522 0F92      		push r0
 862 0524 0FB6      		in r0,__SREG__
 863 0526 0F92      		push r0
 864 0528 1124      		clr __zero_reg__
 865 052a 2F93      		push r18
 866 052c 3F93      		push r19
 867 052e 4F93      		push r20
 868 0530 5F93      		push r21
 869 0532 6F93      		push r22
 870 0534 7F93      		push r23
 871 0536 8F93      		push r24
 872 0538 9F93      		push r25
 873 053a AF93      		push r26
 874 053c BF93      		push r27
 875 053e EF93      		push r30
 876 0540 FF93      		push r31
 877               	/* prologue: Signal */
 878               	/* frame size = 0 */
 879               	.LM175:
 880 0542 8091 0000 		lds r24,ptr
 881 0546 8430      		cpi r24,lo8(4)
 882 0548 01F4      		brne .+2
 883 054a 00C0      		rjmp .L70
 884 054c 8530      		cpi r24,lo8(5)
 885 054e 00F4      		brsh .L76
 886 0550 8130      		cpi r24,lo8(1)
 887 0552 01F0      		breq .L67
 888 0554 8130      		cpi r24,lo8(1)
 889 0556 00F0      		brlo .L66
 890 0558 8230      		cpi r24,lo8(2)
 891 055a 01F4      		brne .+2
 892 055c 00C0      		rjmp .L68
 893 055e 8330      		cpi r24,lo8(3)
 894 0560 01F0      		breq .+2
 895 0562 00C0      		rjmp .L65
 896 0564 00C0      		rjmp .L82
 897               	.L76:
 898 0566 8730      		cpi r24,lo8(7)
 899 0568 01F4      		brne .+2
 900 056a 00C0      		rjmp .L73
 901 056c 8830      		cpi r24,lo8(8)
 902 056e 00F4      		brsh .L77
 903 0570 8530      		cpi r24,lo8(5)
 904 0572 01F4      		brne .+2
 905 0574 00C0      		rjmp .L71
 906 0576 8630      		cpi r24,lo8(6)
 907 0578 01F0      		breq .+2
 908 057a 00C0      		rjmp .L65
 909 057c 00C0      		rjmp .L83
 910               	.L77:
 911 057e 8830      		cpi r24,lo8(8)
 912 0580 01F4      		brne .+2
 913 0582 00C0      		rjmp .L74
 914 0584 8930      		cpi r24,lo8(9)
 915 0586 01F0      		breq .+2
 916 0588 00C0      		rjmp .L65
 917 058a 00C0      		rjmp .L84
 918               	.L66:
 919               	.LM176:
 920 058c 8091 C600 		lds r24,198
 921 0590 8F3F      		cpi r24,lo8(-1)
 922 0592 01F0      		breq .L78
 923               	.LM177:
 924 0594 1092 0000 		sts sync,__zero_reg__
 925               	.LM178:
 926 0598 83E0      		ldi r24,lo8(3)
 927 059a 8093 0000 		sts ptr,r24
 928 059e 00C0      		rjmp .L65
 929               	.L78:
 930               	.LM179:
 931 05a0 81E0      		ldi r24,lo8(1)
 932 05a2 8093 0000 		sts sync,r24
 933 05a6 00C0      		rjmp .L65
 934               	.L67:
 935               	.LM180:
 936 05a8 2091 C600 		lds r18,198
 937 05ac 2093 0000 		sts MD,r18
 938               	.LM181:
 939 05b0 2130      		cpi r18,lo8(1)
 940 05b2 01F4      		brne .L79
 941               	.LM182:
 942 05b4 84E0      		ldi r24,lo8(4)
 943 05b6 90E0      		ldi r25,hi8(4)
 944 05b8 9093 0000 		sts (time_step)+1,r25
 945 05bc 8093 0000 		sts time_step,r24
 946 05c0 00C0      		rjmp .L65
 947               	.L79:
 948               	.LM183:
 949 05c2 86E0      		ldi r24,lo8(6)
 950 05c4 90E0      		ldi r25,hi8(6)
 951 05c6 9093 0000 		sts (time_step)+1,r25
 952 05ca 8093 0000 		sts time_step,r24
 953               	.LM184:
 954 05ce 2230      		cpi r18,lo8(2)
 955 05d0 01F0      		breq .+2
 956 05d2 00C0      		rjmp .L65
 957               	.LM185:
 958 05d4 1092 0000 		sts PROGRAM_done,__zero_reg__
 959               	.LM186:
 960 05d8 1092 0000 		sts (prog_val)+1,__zero_reg__
 961 05dc 1092 0000 		sts prog_val,__zero_reg__
 962 05e0 00C0      		rjmp .L65
 963               	.L68:
 964               	.LM187:
 965 05e2 8091 C600 		lds r24,198
 966 05e6 90E0      		ldi r25,lo8(0)
 967 05e8 F4E0      		ldi r31,4
 968 05ea 880F      	1:	lsl r24
 969 05ec 991F      		rol r25
 970 05ee FA95      		dec r31
 971 05f0 01F4      		brne 1b
 972 05f2 9093 0000 		sts (x16)+1,r25
 973 05f6 8093 0000 		sts x16,r24
 974 05fa 00C0      		rjmp .L65
 975               	.L82:
 976               	.LM188:
 977 05fc 8091 C600 		lds r24,198
 978 0600 90E0      		ldi r25,lo8(0)
 979 0602 E4E0      		ldi r30,4
 980 0604 880F      	1:	lsl r24
 981 0606 991F      		rol r25
 982 0608 EA95      		dec r30
 983 060a 01F4      		brne 1b
 984 060c 9093 0000 		sts (y16)+1,r25
 985 0610 8093 0000 		sts y16,r24
 986 0614 00C0      		rjmp .L65
 987               	.L70:
 988               	.LM189:
 989 0616 8091 C600 		lds r24,198
 990 061a 8093 0000 		sts t1,r24
 991 061e 00C0      		rjmp .L65
 992               	.L71:
 993               	.LM190:
 994 0620 8091 C600 		lds r24,198
 995 0624 8093 0000 		sts t2,r24
 996 0628 00C0      		rjmp .L65
 997               	.L83:
 998               	.LM191:
 999 062a 8091 C600 		lds r24,198
 1000 062e 8093 0000 		sts dT,r24
 1001 0632 00C0      		rjmp .L65
 1002               	.L73:
 1003               	.LM192:
 1004 0634 8091 C600 		lds r24,198
 1005 0638 8093 0000 		sts T,r24
 1006 063c 00C0      		rjmp .L65
 1007               	.L74:
 1008               	.LM193:
 1009 063e 8091 C600 		lds r24,198
 1010 0642 8093 0000 		sts chan,r24
 1011 0646 00C0      		rjmp .L65
 1012               	.L84:
 1013               	.LM194:
 1014 0648 8091 C600 		lds r24,198
 1015 064c E091 0000 		lds r30,chan
 1016 0650 F0E0      		ldi r31,lo8(0)
 1017 0652 E050      		subi r30,lo8(-(reverted))
 1018 0654 F040      		sbci r31,hi8(-(reverted))
 1019 0656 8083      		st Z,r24
 1020               	.LM195:
 1021 0658 8091 0000 		lds r24,MD
 1022 065c 8330      		cpi r24,lo8(3)
 1023 065e 01F4      		brne .L80
 1024               	.LM196:
 1025 0660 0E94 0000 		call gatherMult
 1026 0664 00C0      		rjmp .L65
 1027               	.L80:
 1028               	.LM197:
 1029 0666 8430      		cpi r24,lo8(4)
 1030 0668 01F4      		brne .L65
 1031               	.LM198:
 1032 066a 0E94 0000 		call separMult
 1033               	.L65:
 1034               	.LM199:
 1035 066e 8091 0000 		lds r24,t2
 1036 0672 9091 0000 		lds r25,dT
 1037 0676 890F      		add r24,r25
 1038 0678 8093 0000 		sts dTt2,r24
 1039               	.LM200:
 1040 067c 8091 0000 		lds r24,ptr
 1041 0680 8F5F      		subi r24,lo8(-(1))
 1042 0682 6AE0      		ldi r22,lo8(10)
 1043 0684 0E94 0000 		call __udivmodqi4
 1044 0688 9093 0000 		sts ptr,r25
 1045               	/* epilogue start */
 1046               	.LM201:
 1047 068c FF91      		pop r31
 1048 068e EF91      		pop r30
 1049 0690 BF91      		pop r27
 1050 0692 AF91      		pop r26
 1051 0694 9F91      		pop r25
 1052 0696 8F91      		pop r24
 1053 0698 7F91      		pop r23
 1054 069a 6F91      		pop r22
 1055 069c 5F91      		pop r21
 1056 069e 4F91      		pop r20
 1057 06a0 3F91      		pop r19
 1058 06a2 2F91      		pop r18
 1059 06a4 0F90      		pop r0
 1060 06a6 0FBE      		out __SREG__,r0
 1061 06a8 0F90      		pop r0
 1062 06aa 1F90      		pop __zero_reg__
 1063 06ac 1895      		reti
 1064               	.LFE17:
 1066               	.global	MD
 1067               	.global	MD
 1068               		.section .bss
 1071               	MD:
 1072 0000 00        		.skip 1,0
 1073               	.global	chan_addrs
 1074               		.data
 1077               	chan_addrs:
 1078 0000 00        		.byte	0
 1079 0001 01        		.byte	1
 1080 0002 02        		.byte	2
 1081 0003 03        		.byte	3
 1082 0004 07        		.byte	7
 1083 0005 06        		.byte	6
 1084 0006 05        		.byte	5
 1085 0007 04        		.byte	4
 1086               	.global	VAC16
 1087               	.global	VAC16
 1088               		.section .bss
 1091               	VAC16:
 1092 0001 0000      		.skip 2,0
 1093               	.global	VAC16_H
 1094               	.global	VAC16_H
 1097               	VAC16_H:
 1098 0003 0000      		.skip 2,0
 1099               	.global	VAC16_HH
 1100               	.global	VAC16_HH
 1103               	VAC16_HH:
 1104 0005 0000      		.skip 2,0
 1105               	.global	prog_val
 1106               	.global	prog_val
 1109               	prog_val:
 1110 0007 0000      		.skip 2,0
 1111               	.global	x16
 1112               	.global	x16
 1115               	x16:
 1116 0009 0000      		.skip 2,0
 1117               	.global	y16
 1118               	.global	y16
 1121               	y16:
 1122 000b 0000      		.skip 2,0
 1123               	.global	sync
 1124               	.global	sync
 1127               	sync:
 1128 000d 00        		.skip 1,0
 1129               	.global	t1
 1130               		.data
 1133               	t1:
 1134 0008 02        		.byte	2
 1135               	.global	t2
 1138               	t2:
 1139 0009 02        		.byte	2
 1140               	.global	dTt2
 1143               	dTt2:
 1144 000a 0A        		.byte	10
 1145               	.global	pos_phase
 1148               	pos_phase:
 1149 000b 01        		.byte	1
 1150               	.global	ptr
 1151               	.global	ptr
 1152               		.section .bss
 1155               	ptr:
 1156 000e 00        		.skip 1,0
 1157               	.global	PROGRAM_done
 1158               	.global	PROGRAM_done
 1161               	PROGRAM_done:
 1162 000f 00        		.skip 1,0
 1163               	.global	chan
 1164               	.global	chan
 1167               	chan:
 1168 0010 00        		.skip 1,0
 1169               	.global	reverted
 1170               	.global	reverted
 1173               	reverted:
 1174 0011 0000 0000 		.skip 8,0
 1174      0000 0000 
 1175               	.global	time_step
 1176               		.data
 1179               	time_step:
 1180 000c 0600      		.word	6
 1181               	.global	eventN
 1184               	eventN:
 1185 000e 6400      		.word	100
 1186               		.lcomm adc_h.1475,2
 1187               		.lcomm i.1469,2
 1188               		.comm dT,1,1
 1189               		.comm T,1,1
 1190               		.comm send8,1,1
 1191               		.comm UDP_cnt,1,1
 1192               		.comm c,1,1
 1193               		.comm ADC_on,1,1
 1194               		.comm _adc,2,1
 1195               		.comm ctr,2,1
 1196               		.comm accum,2,1
 1197               		.comm event_ctr,2,1
 1198               		.comm ADC_cnt,2,1
 1199               		.comm ADCH_,1,1
 1200               		.comm ADCL_,1,1
 1201               		.comm ADCH__,1,1
 1202               		.comm ADCL__,1,1
 1203               		.comm accum_cnt,1,1
 1316               	.Letext0:
DEFINED SYMBOLS
                            *ABS*:00000000 main.c
C:\Users\DrPepper\AppData\Local\Temp/ccFaWaEM.s:2      *ABS*:0000003f __SREG__
C:\Users\DrPepper\AppData\Local\Temp/ccFaWaEM.s:3      *ABS*:0000003e __SP_H__
C:\Users\DrPepper\AppData\Local\Temp/ccFaWaEM.s:4      *ABS*:0000003d __SP_L__
C:\Users\DrPepper\AppData\Local\Temp/ccFaWaEM.s:5      *ABS*:00000034 __CCP__
C:\Users\DrPepper\AppData\Local\Temp/ccFaWaEM.s:6      *ABS*:00000000 __tmp_reg__
C:\Users\DrPepper\AppData\Local\Temp/ccFaWaEM.s:7      *ABS*:00000001 __zero_reg__
C:\Users\DrPepper\AppData\Local\Temp/ccFaWaEM.s:18     .text:00000000 ADC_Init
C:\Users\DrPepper\AppData\Local\Temp/ccFaWaEM.s:42     .text:00000016 timer_init
C:\Users\DrPepper\AppData\Local\Temp/ccFaWaEM.s:67     .text:0000002e uart_init
C:\Users\DrPepper\AppData\Local\Temp/ccFaWaEM.s:92     .text:00000044 SPI_MasterInit
C:\Users\DrPepper\AppData\Local\Temp/ccFaWaEM.s:110    .text:0000004e gatherMult
C:\Users\DrPepper\AppData\Local\Temp/ccFaWaEM.s:138    .text:00000060 separMult
C:\Users\DrPepper\AppData\Local\Temp/ccFaWaEM.s:166    .text:00000072 SPI_WriteByte
C:\Users\DrPepper\AppData\Local\Temp/ccFaWaEM.s:186    .text:0000007c setDAC
C:\Users\DrPepper\AppData\Local\Temp/ccFaWaEM.s:1077   .data:00000000 chan_addrs
                            *COM*:00000001 send8
C:\Users\DrPepper\AppData\Local\Temp/ccFaWaEM.s:246    .text:000000ca set_reverser
C:\Users\DrPepper\AppData\Local\Temp/ccFaWaEM.s:259    .text:000000cc main
C:\Users\DrPepper\AppData\Local\Temp/ccFaWaEM.s:368    .text:00000158 __vector_9
                            *COM*:00000002 ctr
C:\Users\DrPepper\AppData\Local\Temp/ccFaWaEM.s:1179   .data:0000000c time_step
C:\Users\DrPepper\AppData\Local\Temp/ccFaWaEM.s:1071   .bss:00000000 MD
                            *COM*:00000002 event_ctr
                            *COM*:00000001 ADCL_
                            *COM*:00000001 ADCH_
C:\Users\DrPepper\AppData\Local\Temp/ccFaWaEM.s:1115   .bss:00000009 x16
C:\Users\DrPepper\AppData\Local\Temp/ccFaWaEM.s:1167   .bss:00000010 chan
C:\Users\DrPepper\AppData\Local\Temp/ccFaWaEM.s:1133   .data:00000008 t1
                            *COM*:00000001 dT
C:\Users\DrPepper\AppData\Local\Temp/ccFaWaEM.s:1143   .data:0000000a dTt2
                            *COM*:00000002 _adc
                            *COM*:00000002 accum
                            *COM*:00000001 ADC_on
                            *COM*:00000001 accum_cnt
C:\Users\DrPepper\AppData\Local\Temp/ccFaWaEM.s:1186   .bss:0000001b i.1469
                            *COM*:00000001 UDP_cnt
                            *COM*:00000001 ADCL__
                            *COM*:00000001 ADCH__
C:\Users\DrPepper\AppData\Local\Temp/ccFaWaEM.s:1091   .bss:00000001 VAC16
C:\Users\DrPepper\AppData\Local\Temp/ccFaWaEM.s:1097   .bss:00000003 VAC16_H
C:\Users\DrPepper\AppData\Local\Temp/ccFaWaEM.s:1148   .data:0000000b pos_phase
C:\Users\DrPepper\AppData\Local\Temp/ccFaWaEM.s:1121   .bss:0000000b y16
                            *COM*:00000001 T
C:\Users\DrPepper\AppData\Local\Temp/ccFaWaEM.s:1161   .bss:0000000f PROGRAM_done
                             .bss:00000019 adc_h.1475
C:\Users\DrPepper\AppData\Local\Temp/ccFaWaEM.s:1109   .bss:00000007 prog_val
C:\Users\DrPepper\AppData\Local\Temp/ccFaWaEM.s:1138   .data:00000009 t2
C:\Users\DrPepper\AppData\Local\Temp/ccFaWaEM.s:857    .text:00000520 __vector_18
C:\Users\DrPepper\AppData\Local\Temp/ccFaWaEM.s:1155   .bss:0000000e ptr
C:\Users\DrPepper\AppData\Local\Temp/ccFaWaEM.s:1127   .bss:0000000d sync
C:\Users\DrPepper\AppData\Local\Temp/ccFaWaEM.s:1173   .bss:00000011 reverted
C:\Users\DrPepper\AppData\Local\Temp/ccFaWaEM.s:1103   .bss:00000005 VAC16_HH
C:\Users\DrPepper\AppData\Local\Temp/ccFaWaEM.s:1184   .data:0000000e eventN
                            *COM*:00000001 c
                            *COM*:00000002 ADC_cnt

UNDEFINED SYMBOLS
__udivmodqi4
__do_copy_data
__do_clear_bss
