   1               		.file	"main.c"
   2               	__SREG__ = 0x3f
   3               	__SP_H__ = 0x3e
   4               	__SP_L__ = 0x3d
   5               	__CCP__  = 0x34
   6               	__tmp_reg__ = 0
   7               	__zero_reg__ = 1
  15               	.Ltext0:
  16               	.global	ADC_Init
  18               	ADC_Init:
  19               	.LFB6:
  20               	.LM1:
  21               	/* prologue: function */
  22               	/* frame size = 0 */
  23               	.LM2:
  24 0000 EAE7      		ldi r30,lo8(122)
  25 0002 F0E0      		ldi r31,hi8(122)
  26 0004 8081      		ld r24,Z
  27 0006 8368      		ori r24,lo8(-125)
  28 0008 8083      		st Z,r24
  29               	.LM3:
  30 000a ECE7      		ldi r30,lo8(124)
  31 000c F0E0      		ldi r31,hi8(124)
  32 000e 8081      		ld r24,Z
  33 0010 8064      		ori r24,lo8(64)
  34 0012 8083      		st Z,r24
  35               	/* epilogue start */
  36               	.LM4:
  37 0014 0895      		ret
  38               	.LFE6:
  40               	.global	timer_init
  42               	timer_init:
  43               	.LFB7:
  44               	.LM5:
  45               	/* prologue: function */
  46               	/* frame size = 0 */
  47               	.LM6:
  48 0016 1092 B000 		sts 176,__zero_reg__
  49               	.LM7:
  50 001a E1EB      		ldi r30,lo8(177)
  51 001c F0E0      		ldi r31,hi8(177)
  52 001e 1082      		st Z,__zero_reg__
  53               	.LM8:
  54 0020 8081      		ld r24,Z
  55 0022 8260      		ori r24,lo8(2)
  56 0024 8083      		st Z,r24
  57               	.LM9:
  58 0026 81E0      		ldi r24,lo8(1)
  59 0028 8093 7000 		sts 112,r24
  60               	/* epilogue start */
  61               	.LM10:
  62 002c 0895      		ret
  63               	.LFE7:
  65               	.global	uart_init
  67               	uart_init:
  68               	.LFB8:
  69               	.LM11:
  70               	.LVL0:
  71               	/* prologue: function */
  72               	/* frame size = 0 */
  73               	.LM12:
  74 002e 9093 C500 		sts 197,r25
  75               	.LVL1:
  76               	.LM13:
  77 0032 8093 C400 		sts 196,r24
  78               	.LM14:
  79 0036 88E9      		ldi r24,lo8(-104)
  80               	.LVL2:
  81 0038 8093 C100 		sts 193,r24
  82               	.LM15:
  83 003c 8EE0      		ldi r24,lo8(14)
  84 003e 8093 C200 		sts 194,r24
  85               	/* epilogue start */
  86               	.LM16:
  87 0042 0895      		ret
  88               	.LFE8:
  90               	.global	SPI_MasterInit
  92               	SPI_MasterInit:
  93               	.LFB9:
  94               	.LM17:
  95               	/* prologue: function */
  96               	/* frame size = 0 */
  97               	.LM18:
  98 0044 8CE2      		ldi r24,lo8(44)
  99 0046 84B9      		out 36-32,r24
 100               	.LM19:
 101 0048 8AE5      		ldi r24,lo8(90)
 102 004a 8CBD      		out 76-32,r24
 103               	/* epilogue start */
 104               	.LM20:
 105 004c 0895      		ret
 106               	.LFE9:
 108               	.global	SPI_WriteByte
 110               	SPI_WriteByte:
 111               	.LFB11:
 112               	.LM21:
 113               	.LVL3:
 114               	/* prologue: function */
 115               	/* frame size = 0 */
 116               	.LM22:
 117 004e 8EBD      		out 78-32,r24
 118               	.L10:
 119               	.LM23:
 120 0050 0DB4      		in __tmp_reg__,77-32
 121 0052 07FE      		sbrs __tmp_reg__,7
 122 0054 00C0      		rjmp .L10
 123               	/* epilogue start */
 124               	.LM24:
 125 0056 0895      		ret
 126               	.LFE11:
 128               	.global	setDAC
 130               	setDAC:
 131               	.LFB10:
 132               	.LM25:
 133               	.LVL4:
 134 0058 0F93      		push r16
 135 005a 1F93      		push r17
 136               	/* prologue: function */
 137               	/* frame size = 0 */
 138 005c E62F      		mov r30,r22
 139               	.LM26:
 140 005e 0027      		clr r16
 141 0060 1127      		clr r17
 142 0062 081B      		sub r16,r24
 143 0064 190B      		sbc r17,r25
 144               	.LVL5:
 145               	.LM27:
 146 0066 0050      		subi r16,lo8(-(2048))
 147 0068 184F      		sbci r17,hi8(-(2048))
 148               	.LM28:
 149 006a 5B98      		cbi 43-32,3
 150               	.LM29:
 151 006c FF27      		clr r31
 152 006e E7FD      		sbrc r30,7
 153 0070 F095      		com r31
 154               	.LVL6:
 155 0072 E050      		subi r30,lo8(-(chan_addrs))
 156 0074 F040      		sbci r31,hi8(-(chan_addrs))
 157               	.LVL7:
 158 0076 8081      		ld r24,Z
 159 0078 8295      		swap r24
 160 007a 807F      		andi r24,lo8(-16)
 161 007c 212F      		mov r18,r17
 162 007e 3327      		clr r19
 163 0080 27FD      		sbrc r18,7
 164 0082 3A95      		dec r19
 165 0084 2F70      		andi r18,lo8(15)
 166 0086 822B      		or r24,r18
 167 0088 8093 0000 		sts send8,r24
 168               	.LM30:
 169 008c 90E0      		ldi r25,lo8(0)
 170 008e 0E94 0000 		call SPI_WriteByte
 171               	.LVL8:
 172               	.LM31:
 173 0092 0093 0000 		sts send8,r16
 174               	.LM32:
 175 0096 802F      		mov r24,r16
 176 0098 90E0      		ldi r25,lo8(0)
 177 009a 0E94 0000 		call SPI_WriteByte
 178               	.LM33:
 179 009e 5B9A      		sbi 43-32,3
 180               	/* epilogue start */
 181               	.LM34:
 182 00a0 1F91      		pop r17
 183 00a2 0F91      		pop r16
 184               	.LVL9:
 185 00a4 0895      		ret
 186               	.LFE10:
 188               	.global	set_reverser
 190               	set_reverser:
 191               	.LFB12:
 192               	.LM35:
 193               	.LVL10:
 194               	/* prologue: function */
 195               	/* frame size = 0 */
 196               	/* epilogue start */
 197               	.LM36:
 198 00a6 0895      		ret
 199               	.LFE12:
 201               	.global	main
 203               	main:
 204               	.LFB13:
 205               	.LM37:
 206 00a8 1F93      		push r17
 207               	/* prologue: function */
 208               	/* frame size = 0 */
 209               	.LM38:
 210 00aa 88B1      		in r24,40-32
 211 00ac 88B9      		out 40-32,r24
 212               	.LM39:
 213 00ae 8EE1      		ldi r24,lo8(30)
 214 00b0 87B9      		out 39-32,r24
 215               	.LM40:
 216 00b2 8EEF      		ldi r24,lo8(-2)
 217 00b4 8AB9      		out 42-32,r24
 218               	.LM41:
 219 00b6 8FE1      		ldi r24,lo8(31)
 220 00b8 84B9      		out 36-32,r24
 221               	.LM42:
 222               	/* #APP */
 223               	 ;  203 "main.c" 1
 224 00ba 7894      		sei
 225               	 ;  0 "" 2
 226               	/* #NOAPP */
 227               	.LBB15:
 228               	.LBB16:
 229               	.LM43:
 230 00bc 8CE2      		ldi r24,lo8(44)
 231 00be 84B9      		out 36-32,r24
 232               	.LM44:
 233 00c0 8AE5      		ldi r24,lo8(90)
 234 00c2 8CBD      		out 76-32,r24
 235               	.LBE16:
 236               	.LBE15:
 237               	.LBB17:
 238               	.LBB18:
 239               	.LM45:
 240 00c4 1092 B000 		sts 176,__zero_reg__
 241               	.LM46:
 242 00c8 1092 B100 		sts 177,__zero_reg__
 243               	.LM47:
 244 00cc 8091 B100 		lds r24,177
 245 00d0 8260      		ori r24,lo8(2)
 246 00d2 8093 B100 		sts 177,r24
 247               	.LM48:
 248 00d6 81E0      		ldi r24,lo8(1)
 249 00d8 8093 7000 		sts 112,r24
 250               	.LBE18:
 251               	.LBE17:
 252               	.LBB19:
 253               	.LBB20:
 254               	.LM49:
 255 00dc 1092 C500 		sts 197,__zero_reg__
 256               	.LM50:
 257 00e0 83E3      		ldi r24,lo8(51)
 258 00e2 8093 C400 		sts 196,r24
 259               	.LM51:
 260 00e6 88E9      		ldi r24,lo8(-104)
 261 00e8 8093 C100 		sts 193,r24
 262               	.LM52:
 263 00ec 8EE0      		ldi r24,lo8(14)
 264 00ee 8093 C200 		sts 194,r24
 265               	.LBE20:
 266               	.LBE19:
 267               	.LBB21:
 268               	.LBB22:
 269               	.LM53:
 270 00f2 8091 7A00 		lds r24,122
 271 00f6 8368      		ori r24,lo8(-125)
 272 00f8 8093 7A00 		sts 122,r24
 273               	.LM54:
 274 00fc 8091 7C00 		lds r24,124
 275 0100 8064      		ori r24,lo8(64)
 276 0102 8093 7C00 		sts 124,r24
 277               	.LBE22:
 278               	.LBE21:
 279               	.LM55:
 280 0106 8091 7A00 		lds r24,122
 281 010a 8064      		ori r24,lo8(64)
 282 010c 8093 7A00 		sts 122,r24
 283               	.LM56:
 284 0110 8091 7800 		lds r24,120
 285               	.LM57:
 286 0114 8091 7800 		lds r24,120
 287 0118 10E0      		ldi r17,lo8(0)
 288               	.L18:
 289               	.LBB23:
 290               	.LM58:
 291 011a 80E0      		ldi r24,lo8(0)
 292 011c 90E0      		ldi r25,hi8(0)
 293 011e 612F      		mov r22,r17
 294 0120 0E94 0000 		call setDAC
 295 0124 1F5F      		subi r17,lo8(-(1))
 296               	.LM59:
 297 0126 1830      		cpi r17,lo8(8)
 298 0128 01F4      		brne .L18
 299               	.LBE23:
 300               	.LM60:
 301 012a 5A98      		cbi 43-32,2
 302               	.LM61:
 303 012c 5A9A      		sbi 43-32,2
 304               	.L19:
 305 012e 00C0      		rjmp .L19
 306               	.LFE13:
 308               	.global	__vector_9
 310               	__vector_9:
 311               	.LFB14:
 312               	.LM62:
 313 0130 1F92      		push __zero_reg__
 314 0132 0F92      		push r0
 315 0134 0FB6      		in r0,__SREG__
 316 0136 0F92      		push r0
 317 0138 1124      		clr __zero_reg__
 318 013a 2F93      		push r18
 319 013c 3F93      		push r19
 320 013e 4F93      		push r20
 321 0140 5F93      		push r21
 322 0142 6F93      		push r22
 323 0144 7F93      		push r23
 324 0146 8F93      		push r24
 325 0148 9F93      		push r25
 326 014a AF93      		push r26
 327 014c BF93      		push r27
 328 014e EF93      		push r30
 329 0150 FF93      		push r31
 330               	/* prologue: Signal */
 331               	/* frame size = 0 */
 332               	.LM63:
 333 0152 2091 0000 		lds r18,ctr
 334 0156 3091 0000 		lds r19,(ctr)+1
 335 015a 8091 0000 		lds r24,time_step
 336 015e 9091 0000 		lds r25,(time_step)+1
 337 0162 8217      		cp r24,r18
 338 0164 9307      		cpc r25,r19
 339 0166 04F0      		brlt .+2
 340 0168 00C0      		rjmp .L23
 341               	.LM64:
 342 016a 6091 0000 		lds r22,MD
 343 016e 6623      		tst r22
 344 0170 01F0      		breq .+2
 345 0172 00C0      		rjmp .L24
 346               	.LM65:
 347 0174 2091 0000 		lds r18,event_ctr
 348 0178 3091 0000 		lds r19,(event_ctr)+1
 349 017c 2130      		cpi r18,1
 350 017e 3105      		cpc r19,__zero_reg__
 351 0180 01F4      		brne .L25
 352               	.LM66:
 353 0182 9091 7800 		lds r25,120
 354 0186 9093 0000 		sts ADCL_,r25
 355               	.LM67:
 356 018a 8091 7900 		lds r24,121
 357 018e 8093 0000 		sts ADCH_,r24
 358               	.LM68:
 359 0192 9093 C600 		sts 198,r25
 360 0196 00C0      		rjmp .L26
 361               	.L25:
 362               	.LM69:
 363 0198 2230      		cpi r18,2
 364 019a 3105      		cpc r19,__zero_reg__
 365 019c 01F4      		brne .L27
 366               	.LM70:
 367 019e 8091 0000 		lds r24,ADCH_
 368 01a2 8093 C600 		sts 198,r24
 369 01a6 00C0      		rjmp .L26
 370               	.L27:
 371               	.LM71:
 372 01a8 2115      		cp r18,__zero_reg__
 373 01aa 3105      		cpc r19,__zero_reg__
 374 01ac 01F4      		brne .L26
 375               	.LM72:
 376 01ae 8FEF      		ldi r24,lo8(-1)
 377 01b0 8093 C600 		sts 198,r24
 378               	.LM73:
 379 01b4 8091 0000 		lds r24,x16
 380 01b8 9091 0000 		lds r25,(x16)+1
 381 01bc 6091 0000 		lds r22,chan
 382 01c0 0E94 0000 		call setDAC
 383               	.LM74:
 384 01c4 8091 0000 		lds r24,x16
 385 01c8 9091 0000 		lds r25,(x16)+1
 386 01cc 00C0      		rjmp .L55
 387               	.L26:
 388               	.LM75:
 389 01ce 8091 0000 		lds r24,t1
 390 01d2 90E0      		ldi r25,lo8(0)
 391 01d4 2817      		cp r18,r24
 392 01d6 3907      		cpc r19,r25
 393 01d8 01F4      		brne .+2
 394 01da 00C0      		rjmp .L57
 395               	.L29:
 396               	.LM76:
 397 01dc 8091 0000 		lds r24,dT
 398 01e0 90E0      		ldi r25,lo8(0)
 399 01e2 2817      		cp r18,r24
 400 01e4 3907      		cpc r19,r25
 401 01e6 01F4      		brne .+2
 402 01e8 00C0      		rjmp .L58
 403               	.L30:
 404               	.LM77:
 405 01ea 0196      		adiw r24,1
 406 01ec 2817      		cp r18,r24
 407 01ee 3907      		cpc r19,r25
 408 01f0 01F4      		brne .+2
 409 01f2 00C0      		rjmp .L54
 410               	.L31:
 411               	.LM78:
 412 01f4 8091 0000 		lds r24,dTt2
 413 01f8 90E0      		ldi r25,lo8(0)
 414 01fa 2817      		cp r18,r24
 415 01fc 3907      		cpc r19,r25
 416 01fe 01F0      		breq .+2
 417 0200 00C0      		rjmp .L28
 418               	.LM79:
 419 0202 8091 C000 		lds r24,192
 420 0206 85FF      		sbrs r24,5
 421 0208 00C0      		rjmp .L32
 422               	.LM80:
 423 020a 8091 0000 		lds r24,_adc
 424 020e 8093 C600 		sts 198,r24
 425               	.L32:
 426               	.LM81:
 427 0212 1092 0000 		sts (accum)+1,__zero_reg__
 428 0216 1092 0000 		sts accum,__zero_reg__
 429               	.LM82:
 430 021a 1092 0000 		sts ADC_on,__zero_reg__
 431               	.LM83:
 432 021e 1092 0000 		sts accum_cnt,__zero_reg__
 433               	.LM84:
 434 0222 80E0      		ldi r24,lo8(0)
 435 0224 90E0      		ldi r25,hi8(0)
 436 0226 6091 0000 		lds r22,chan
 437 022a 0E94 0000 		call setDAC
 438               	.LM85:
 439 022e 80E0      		ldi r24,lo8(0)
 440 0230 90E0      		ldi r25,hi8(0)
 441               	.L55:
 442 0232 62E0      		ldi r22,lo8(2)
 443 0234 00C0      		rjmp .L53
 444               	.L24:
 445               	.LM86:
 446 0236 6130      		cpi r22,lo8(1)
 447 0238 01F0      		breq .+2
 448 023a 00C0      		rjmp .L33
 449               	.LBB24:
 450               	.LM87:
 451 023c 8091 0000 		lds r24,i.1427
 452 0240 9091 0000 		lds r25,(i.1427)+1
 453 0244 0196      		adiw r24,1
 454 0246 9093 0000 		sts (i.1427)+1,r25
 455 024a 8093 0000 		sts i.1427,r24
 456               	.LM88:
 457 024e 8091 0000 		lds r24,UDP_cnt
 458 0252 8130      		cpi r24,lo8(1)
 459 0254 01F0      		breq .L36
 460 0256 8130      		cpi r24,lo8(1)
 461 0258 00F0      		brlo .L35
 462 025a 8230      		cpi r24,lo8(2)
 463 025c 01F0      		breq .L37
 464 025e 8330      		cpi r24,lo8(3)
 465 0260 01F0      		breq .+2
 466 0262 00C0      		rjmp .L34
 467 0264 00C0      		rjmp .L59
 468               	.L35:
 469               	.LM89:
 470 0266 8091 7A00 		lds r24,122
 471 026a 8064      		ori r24,lo8(64)
 472 026c 8093 7A00 		sts 122,r24
 473               	.LM90:
 474 0270 8FEF      		ldi r24,lo8(-1)
 475 0272 00C0      		rjmp .L52
 476               	.L36:
 477               	.LM91:
 478 0274 8091 0000 		lds r24,ADCL_
 479 0278 8093 0000 		sts ADCL__,r24
 480               	.LM92:
 481 027c 8091 0000 		lds r24,ADCH_
 482 0280 8093 0000 		sts ADCH__,r24
 483               	.LM93:
 484 0284 9091 7800 		lds r25,120
 485 0288 9093 0000 		sts ADCL_,r25
 486               	.LM94:
 487 028c 8091 7900 		lds r24,121
 488 0290 8093 0000 		sts ADCH_,r24
 489               	.LM95:
 490 0294 9093 C600 		sts 198,r25
 491 0298 00C0      		rjmp .L34
 492               	.L37:
 493               	.LM96:
 494 029a 8091 0000 		lds r24,ADCH_
 495               	.L52:
 496 029e 8093 C600 		sts 198,r24
 497 02a2 00C0      		rjmp .L34
 498               	.L59:
 499               	.LM97:
 500 02a4 2091 0000 		lds r18,VAC16
 501 02a8 3091 0000 		lds r19,(VAC16)+1
 502 02ac 3093 0000 		sts (VAC16_H)+1,r19
 503 02b0 2093 0000 		sts VAC16_H,r18
 504               	.LM98:
 505 02b4 8091 0000 		lds r24,pos_phase
 506 02b8 8823      		tst r24
 507 02ba 01F0      		breq .L39
 508               	.LM99:
 509 02bc 205E      		subi r18,lo8(-(32))
 510 02be 3F4F      		sbci r19,hi8(-(32))
 511 02c0 3093 0000 		sts (VAC16)+1,r19
 512 02c4 2093 0000 		sts VAC16,r18
 513               	.LM100:
 514 02c8 8091 0000 		lds r24,y16
 515 02cc 9091 0000 		lds r25,(y16)+1
 516 02d0 2817      		cp r18,r24
 517 02d2 3907      		cpc r19,r25
 518 02d4 04F0      		brlt .L40
 519               	.LM101:
 520 02d6 1092 0000 		sts pos_phase,__zero_reg__
 521 02da 00C0      		rjmp .L40
 522               	.L39:
 523               	.LM102:
 524 02dc C901      		movw r24,r18
 525 02de 8097      		sbiw r24,32
 526 02e0 9093 0000 		sts (VAC16)+1,r25
 527 02e4 8093 0000 		sts VAC16,r24
 528               	.LM103:
 529 02e8 21E0      		ldi r18,lo8(1)
 530 02ea 30E0      		ldi r19,hi8(1)
 531 02ec 4091 0000 		lds r20,x16
 532 02f0 5091 0000 		lds r21,(x16)+1
 533 02f4 241B      		sub r18,r20
 534 02f6 350B      		sbc r19,r21
 535 02f8 8217      		cp r24,r18
 536 02fa 9307      		cpc r25,r19
 537 02fc 04F4      		brge .L40
 538               	.LM104:
 539 02fe 6093 0000 		sts pos_phase,r22
 540               	.L40:
 541               	.LM105:
 542 0302 8091 0000 		lds r24,VAC16
 543 0306 9091 0000 		lds r25,(VAC16)+1
 544 030a 9C01      		movw r18,r24
 545 030c 74E0      		ldi r23,4
 546 030e 3595      	1:	asr r19
 547 0310 2795      		ror r18
 548 0312 7A95      		dec r23
 549 0314 01F4      		brne 1b
 550 0316 2093 C600 		sts 198,r18
 551               	.LM106:
 552 031a 6091 0000 		lds r22,chan
 553 031e 0E94 0000 		call setDAC
 554               	.LM107:
 555 0322 5A98      		cbi 43-32,2
 556               	.LM108:
 557 0324 5A9A      		sbi 43-32,2
 558               	.L34:
 559               	.LM109:
 560 0326 8091 0000 		lds r24,UDP_cnt
 561 032a 8F5F      		subi r24,lo8(-(1))
 562 032c 8370      		andi r24,lo8(3)
 563 032e 8093 0000 		sts UDP_cnt,r24
 564 0332 00C0      		rjmp .L28
 565               	.L33:
 566               	.LBE24:
 567               	.LM110:
 568 0334 6230      		cpi r22,lo8(2)
 569 0336 01F0      		breq .+2
 570 0338 00C0      		rjmp .L28
 571               	.LBB25:
 572               	.LM111:
 573 033a 80E1      		ldi r24,lo8(16)
 574 033c 8093 0000 		sts T,r24
 575               	.LM112:
 576 0340 4091 0000 		lds r20,event_ctr
 577 0344 5091 0000 		lds r21,(event_ctr)+1
 578 0348 4130      		cpi r20,1
 579 034a 5105      		cpc r21,__zero_reg__
 580 034c 01F4      		brne .L41
 581               	.LM113:
 582 034e 8091 0000 		lds r24,PROGRAM_done
 583 0352 8093 C600 		sts 198,r24
 584 0356 00C0      		rjmp .L42
 585               	.L41:
 586               	.LM114:
 587 0358 4230      		cpi r20,2
 588 035a 5105      		cpc r21,__zero_reg__
 589 035c 01F4      		brne .L43
 590               	.LM115:
 591 035e 9091 7800 		lds r25,120
 592 0362 9093 0000 		sts ADCL_,r25
 593               	.LM116:
 594 0366 8091 7900 		lds r24,121
 595 036a 8093 0000 		sts ADCH_,r24
 596               	.LM117:
 597 036e 9093 C600 		sts 198,r25
 598 0372 00C0      		rjmp .L44
 599               	.L43:
 600               	.LM118:
 601 0374 4330      		cpi r20,3
 602 0376 5105      		cpc r21,__zero_reg__
 603 0378 01F4      		brne .L45
 604               	.LM119:
 605 037a 8091 0000 		lds r24,ADCH_
 606 037e 8093 C600 		sts 198,r24
 607               	.LM120:
 608 0382 382F      		mov r19,r24
 609 0384 20E0      		ldi r18,lo8(0)
 610 0386 8091 0000 		lds r24,ADCL_
 611 038a 90E0      		ldi r25,lo8(0)
 612 038c 822B      		or r24,r18
 613 038e 932B      		or r25,r19
 614 0390 9093 0000 		sts (_adc)+1,r25
 615 0394 8093 0000 		sts _adc,r24
 616               	.LM121:
 617 0398 20E0      		ldi r18,lo8(512)
 618 039a 32E0      		ldi r19,hi8(512)
 619 039c 281B      		sub r18,r24
 620 039e 390B      		sbc r19,r25
 621 03a0 3093 0000 		sts (adc_h.1433)+1,r19
 622 03a4 2093 0000 		sts adc_h.1433,r18
 623               	.LM122:
 624 03a8 8091 0000 		lds r24,t1
 625 03ac 90E0      		ldi r25,lo8(0)
 626 03ae 2817      		cp r18,r24
 627 03b0 3907      		cpc r19,r25
 628 03b2 01F0      		breq .+2
 629 03b4 00C0      		rjmp .L42
 630               	.LM123:
 631 03b6 81E0      		ldi r24,lo8(1)
 632 03b8 8093 0000 		sts PROGRAM_done,r24
 633               	.LM124:
 634 03bc 1092 0000 		sts (prog_val)+1,__zero_reg__
 635 03c0 1092 0000 		sts prog_val,__zero_reg__
 636 03c4 00C0      		rjmp .L46
 637               	.L45:
 638               	.LM125:
 639 03c6 4115      		cp r20,__zero_reg__
 640 03c8 5105      		cpc r21,__zero_reg__
 641 03ca 01F4      		brne .L42
 642               	.LM126:
 643 03cc 8FEF      		ldi r24,lo8(-1)
 644 03ce 8093 C600 		sts 198,r24
 645               	.LM127:
 646 03d2 2091 0000 		lds r18,prog_val
 647 03d6 3091 0000 		lds r19,(prog_val)+1
 648 03da 205E      		subi r18,lo8(-(32))
 649 03dc 3F4F      		sbci r19,hi8(-(32))
 650 03de 3093 0000 		sts (prog_val)+1,r19
 651 03e2 2093 0000 		sts prog_val,r18
 652               	.LM128:
 653 03e6 4091 0000 		lds r20,x16
 654 03ea 5091 0000 		lds r21,(x16)+1
 655 03ee 80E2      		ldi r24,lo8(32)
 656 03f0 90E0      		ldi r25,hi8(32)
 657 03f2 841B      		sub r24,r20
 658 03f4 950B      		sbc r25,r21
 659 03f6 2817      		cp r18,r24
 660 03f8 3907      		cpc r19,r25
 661 03fa 01F4      		brne .L47
 662               	.LM129:
 663 03fc 1092 0000 		sts (prog_val)+1,__zero_reg__
 664 0400 1092 0000 		sts prog_val,__zero_reg__
 665 0404 00C0      		rjmp .L48
 666               	.L47:
 667               	.LM130:
 668 0406 8091 0000 		lds r24,t2
 669 040a 90E0      		ldi r25,lo8(0)
 670 040c 64E0      		ldi r22,4
 671 040e 880F      	1:	lsl r24
 672 0410 991F      		rol r25
 673 0412 6A95      		dec r22
 674 0414 01F4      		brne 1b
 675 0416 8217      		cp r24,r18
 676 0418 9307      		cpc r25,r19
 677 041a 04F4      		brge .L48
 678               	.LM131:
 679 041c 8827      		clr r24
 680 041e 9927      		clr r25
 681 0420 841B      		sub r24,r20
 682 0422 950B      		sbc r25,r21
 683 0424 9093 0000 		sts (prog_val)+1,r25
 684 0428 8093 0000 		sts prog_val,r24
 685               	.L48:
 686               	.LM132:
 687 042c 8091 0000 		lds r24,PROGRAM_done
 688 0430 8823      		tst r24
 689 0432 01F0      		breq .L49
 690               	.LM133:
 691 0434 1092 0000 		sts (prog_val)+1,__zero_reg__
 692 0438 1092 0000 		sts prog_val,__zero_reg__
 693               	.L49:
 694               	.LM134:
 695 043c 8091 0000 		lds r24,prog_val
 696 0440 9091 0000 		lds r25,(prog_val)+1
 697 0444 00C0      		rjmp .L56
 698               	.L42:
 699               	.LM135:
 700 0446 4730      		cpi r20,7
 701 0448 5105      		cpc r21,__zero_reg__
 702 044a 01F0      		breq .L57
 703               	.L44:
 704               	.LM136:
 705 044c 4930      		cpi r20,9
 706 044e 5105      		cpc r21,__zero_reg__
 707 0450 01F4      		brne .L46
 708               	.L58:
 709               	.LM137:
 710 0452 8091 0000 		lds r24,y16
 711 0456 9091 0000 		lds r25,(y16)+1
 712 045a 00C0      		rjmp .L56
 713               	.L46:
 714               	.LM138:
 715 045c 4A30      		cpi r20,10
 716 045e 5105      		cpc r21,__zero_reg__
 717 0460 01F4      		brne .L50
 718               	.L54:
 719               	.LM139:
 720 0462 8091 7A00 		lds r24,122
 721 0466 8064      		ori r24,lo8(64)
 722 0468 8093 7A00 		sts 122,r24
 723 046c 00C0      		rjmp .L28
 724               	.L50:
 725               	.LM140:
 726 046e 4E30      		cpi r20,14
 727 0470 5105      		cpc r21,__zero_reg__
 728 0472 01F4      		brne .L28
 729               	.LM141:
 730 0474 1092 0000 		sts (accum)+1,__zero_reg__
 731 0478 1092 0000 		sts accum,__zero_reg__
 732               	.LM142:
 733 047c 1092 0000 		sts ADC_on,__zero_reg__
 734               	.LM143:
 735 0480 1092 0000 		sts accum_cnt,__zero_reg__
 736               	.L57:
 737               	.LM144:
 738 0484 80E0      		ldi r24,lo8(0)
 739 0486 90E0      		ldi r25,hi8(0)
 740               	.L56:
 741 0488 6091 0000 		lds r22,chan
 742               	.L53:
 743 048c 0E94 0000 		call setDAC
 744               	.LM145:
 745 0490 5A98      		cbi 43-32,2
 746               	.LM146:
 747 0492 5A9A      		sbi 43-32,2
 748               	.L28:
 749               	.LBE25:
 750               	.LM147:
 751 0494 1092 0000 		sts (ctr)+1,__zero_reg__
 752 0498 1092 0000 		sts ctr,__zero_reg__
 753               	.LM148:
 754 049c 2091 0000 		lds r18,event_ctr
 755 04a0 3091 0000 		lds r19,(event_ctr)+1
 756 04a4 2F5F      		subi r18,lo8(-(1))
 757 04a6 3F4F      		sbci r19,hi8(-(1))
 758 04a8 3093 0000 		sts (event_ctr)+1,r19
 759 04ac 2093 0000 		sts event_ctr,r18
 760               	.LM149:
 761 04b0 8091 0000 		lds r24,T
 762 04b4 90E0      		ldi r25,lo8(0)
 763 04b6 8217      		cp r24,r18
 764 04b8 9307      		cpc r25,r19
 765 04ba 04F4      		brge .L23
 766               	.LM150:
 767 04bc 1092 0000 		sts (event_ctr)+1,__zero_reg__
 768 04c0 1092 0000 		sts event_ctr,__zero_reg__
 769               	.L23:
 770               	.LM151:
 771 04c4 8091 0000 		lds r24,ctr
 772 04c8 9091 0000 		lds r25,(ctr)+1
 773 04cc 0196      		adiw r24,1
 774 04ce 9093 0000 		sts (ctr)+1,r25
 775 04d2 8093 0000 		sts ctr,r24
 776               	/* epilogue start */
 777               	.LM152:
 778 04d6 FF91      		pop r31
 779 04d8 EF91      		pop r30
 780 04da BF91      		pop r27
 781 04dc AF91      		pop r26
 782 04de 9F91      		pop r25
 783 04e0 8F91      		pop r24
 784 04e2 7F91      		pop r23
 785 04e4 6F91      		pop r22
 786 04e6 5F91      		pop r21
 787 04e8 4F91      		pop r20
 788 04ea 3F91      		pop r19
 789 04ec 2F91      		pop r18
 790 04ee 0F90      		pop r0
 791 04f0 0FBE      		out __SREG__,r0
 792 04f2 0F90      		pop r0
 793 04f4 1F90      		pop __zero_reg__
 794 04f6 1895      		reti
 795               	.LFE14:
 797               	.global	__vector_18
 799               	__vector_18:
 800               	.LFB15:
 801               	.LM153:
 802 04f8 1F92      		push __zero_reg__
 803 04fa 0F92      		push r0
 804 04fc 0FB6      		in r0,__SREG__
 805 04fe 0F92      		push r0
 806 0500 1124      		clr __zero_reg__
 807 0502 2F93      		push r18
 808 0504 6F93      		push r22
 809 0506 7F93      		push r23
 810 0508 8F93      		push r24
 811 050a 9F93      		push r25
 812 050c EF93      		push r30
 813 050e FF93      		push r31
 814               	/* prologue: Signal */
 815               	/* frame size = 0 */
 816               	.LM154:
 817 0510 8091 0000 		lds r24,ptr
 818 0514 8430      		cpi r24,lo8(4)
 819 0516 01F4      		brne .+2
 820 0518 00C0      		rjmp .L66
 821 051a 8530      		cpi r24,lo8(5)
 822 051c 00F4      		brsh .L72
 823 051e 8130      		cpi r24,lo8(1)
 824 0520 01F0      		breq .L63
 825 0522 8130      		cpi r24,lo8(1)
 826 0524 00F0      		brlo .L62
 827 0526 8230      		cpi r24,lo8(2)
 828 0528 01F4      		brne .+2
 829 052a 00C0      		rjmp .L64
 830 052c 8330      		cpi r24,lo8(3)
 831 052e 01F0      		breq .+2
 832 0530 00C0      		rjmp .L61
 833 0532 00C0      		rjmp .L79
 834               	.L72:
 835 0534 8730      		cpi r24,lo8(7)
 836 0536 01F4      		brne .+2
 837 0538 00C0      		rjmp .L69
 838 053a 8830      		cpi r24,lo8(8)
 839 053c 00F4      		brsh .L73
 840 053e 8530      		cpi r24,lo8(5)
 841 0540 01F4      		brne .+2
 842 0542 00C0      		rjmp .L67
 843 0544 8630      		cpi r24,lo8(6)
 844 0546 01F0      		breq .+2
 845 0548 00C0      		rjmp .L61
 846 054a 00C0      		rjmp .L80
 847               	.L73:
 848 054c 8830      		cpi r24,lo8(8)
 849 054e 01F4      		brne .+2
 850 0550 00C0      		rjmp .L70
 851 0552 8930      		cpi r24,lo8(9)
 852 0554 01F0      		breq .+2
 853 0556 00C0      		rjmp .L61
 854 0558 00C0      		rjmp .L81
 855               	.L62:
 856               	.LM155:
 857 055a 8091 C600 		lds r24,198
 858 055e 8F3F      		cpi r24,lo8(-1)
 859 0560 01F0      		breq .L74
 860               	.LM156:
 861 0562 1092 0000 		sts sync,__zero_reg__
 862               	.LM157:
 863 0566 83E0      		ldi r24,lo8(3)
 864 0568 8093 0000 		sts ptr,r24
 865 056c 00C0      		rjmp .L61
 866               	.L74:
 867               	.LM158:
 868 056e 81E0      		ldi r24,lo8(1)
 869 0570 8093 0000 		sts sync,r24
 870 0574 00C0      		rjmp .L61
 871               	.L63:
 872               	.LM159:
 873 0576 2091 C600 		lds r18,198
 874 057a 2093 0000 		sts MD,r18
 875               	.LM160:
 876 057e 2130      		cpi r18,lo8(1)
 877 0580 01F4      		brne .L75
 878               	.LM161:
 879 0582 84E0      		ldi r24,lo8(4)
 880 0584 90E0      		ldi r25,hi8(4)
 881 0586 9093 0000 		sts (time_step)+1,r25
 882 058a 8093 0000 		sts time_step,r24
 883 058e 00C0      		rjmp .L61
 884               	.L75:
 885               	.LM162:
 886 0590 86E0      		ldi r24,lo8(6)
 887 0592 90E0      		ldi r25,hi8(6)
 888 0594 9093 0000 		sts (time_step)+1,r25
 889 0598 8093 0000 		sts time_step,r24
 890               	.LM163:
 891 059c 2230      		cpi r18,lo8(2)
 892 059e 01F0      		breq .+2
 893 05a0 00C0      		rjmp .L61
 894               	.LM164:
 895 05a2 1092 0000 		sts PROGRAM_done,__zero_reg__
 896               	.LM165:
 897 05a6 1092 0000 		sts (prog_val)+1,__zero_reg__
 898 05aa 1092 0000 		sts prog_val,__zero_reg__
 899 05ae 00C0      		rjmp .L61
 900               	.L64:
 901               	.LM166:
 902 05b0 8091 C600 		lds r24,198
 903 05b4 90E0      		ldi r25,lo8(0)
 904 05b6 F4E0      		ldi r31,4
 905 05b8 880F      	1:	lsl r24
 906 05ba 991F      		rol r25
 907 05bc FA95      		dec r31
 908 05be 01F4      		brne 1b
 909 05c0 9093 0000 		sts (x16)+1,r25
 910 05c4 8093 0000 		sts x16,r24
 911 05c8 00C0      		rjmp .L61
 912               	.L79:
 913               	.LM167:
 914 05ca 8091 C600 		lds r24,198
 915 05ce 90E0      		ldi r25,lo8(0)
 916 05d0 E4E0      		ldi r30,4
 917 05d2 880F      	1:	lsl r24
 918 05d4 991F      		rol r25
 919 05d6 EA95      		dec r30
 920 05d8 01F4      		brne 1b
 921 05da 9093 0000 		sts (y16)+1,r25
 922 05de 8093 0000 		sts y16,r24
 923 05e2 00C0      		rjmp .L61
 924               	.L66:
 925               	.LM168:
 926 05e4 8091 C600 		lds r24,198
 927 05e8 8093 0000 		sts t1,r24
 928 05ec 00C0      		rjmp .L61
 929               	.L67:
 930               	.LM169:
 931 05ee 8091 C600 		lds r24,198
 932 05f2 8093 0000 		sts t2,r24
 933 05f6 00C0      		rjmp .L61
 934               	.L80:
 935               	.LM170:
 936 05f8 8091 C600 		lds r24,198
 937 05fc 8093 0000 		sts dT,r24
 938 0600 00C0      		rjmp .L61
 939               	.L69:
 940               	.LM171:
 941 0602 8091 C600 		lds r24,198
 942 0606 8093 0000 		sts T,r24
 943 060a 00C0      		rjmp .L61
 944               	.L70:
 945               	.LM172:
 946 060c 8091 C600 		lds r24,198
 947 0610 8093 0000 		sts chan,r24
 948 0614 00C0      		rjmp .L61
 949               	.L81:
 950               	.LM173:
 951 0616 8091 C600 		lds r24,198
 952 061a E091 0000 		lds r30,chan
 953 061e F0E0      		ldi r31,lo8(0)
 954 0620 E050      		subi r30,lo8(-(reverted))
 955 0622 F040      		sbci r31,hi8(-(reverted))
 956 0624 8083      		st Z,r24
 957               	.LM174:
 958 0626 8091 0000 		lds r24,MD
 959 062a 8330      		cpi r24,lo8(3)
 960 062c 01F4      		brne .L76
 961               	.LM175:
 962 062e 5E98      		cbi 43-32,6
 963               	.LM176:
 964 0630 5F98      		cbi 43-32,7
 965               	.LM177:
 966 0632 2898      		cbi 37-32,0
 967 0634 00C0      		rjmp .L78
 968               	.L76:
 969               	.LM178:
 970 0636 8430      		cpi r24,lo8(4)
 971 0638 01F4      		brne .L61
 972               	.LM179:
 973 063a 5E9A      		sbi 43-32,6
 974               	.LM180:
 975 063c 5F9A      		sbi 43-32,7
 976               	.LM181:
 977 063e 289A      		sbi 37-32,0
 978               	.L78:
 979               	.LM182:
 980 0640 5D9A      		sbi 43-32,5
 981               	.L61:
 982               	.LM183:
 983 0642 8091 0000 		lds r24,t2
 984 0646 9091 0000 		lds r25,dT
 985 064a 890F      		add r24,r25
 986 064c 8093 0000 		sts dTt2,r24
 987               	.LM184:
 988 0650 8091 0000 		lds r24,ptr
 989 0654 8F5F      		subi r24,lo8(-(1))
 990 0656 6AE0      		ldi r22,lo8(10)
 991 0658 0E94 0000 		call __udivmodqi4
 992 065c 9093 0000 		sts ptr,r25
 993               	/* epilogue start */
 994               	.LM185:
 995 0660 FF91      		pop r31
 996 0662 EF91      		pop r30
 997 0664 9F91      		pop r25
 998 0666 8F91      		pop r24
 999 0668 7F91      		pop r23
 1000 066a 6F91      		pop r22
 1001 066c 2F91      		pop r18
 1002 066e 0F90      		pop r0
 1003 0670 0FBE      		out __SREG__,r0
 1004 0672 0F90      		pop r0
 1005 0674 1F90      		pop __zero_reg__
 1006 0676 1895      		reti
 1007               	.LFE15:
 1009               	.global	MD
 1010               	.global	MD
 1011               		.section .bss
 1014               	MD:
 1015 0000 00        		.skip 1,0
 1016               	.global	chan_addrs
 1017               		.data
 1020               	chan_addrs:
 1021 0000 00        		.byte	0
 1022 0001 01        		.byte	1
 1023 0002 02        		.byte	2
 1024 0003 03        		.byte	3
 1025 0004 07        		.byte	7
 1026 0005 06        		.byte	6
 1027 0006 05        		.byte	5
 1028 0007 04        		.byte	4
 1029               	.global	VAC16
 1030               	.global	VAC16
 1031               		.section .bss
 1034               	VAC16:
 1035 0001 0000      		.skip 2,0
 1036               	.global	VAC16_H
 1037               	.global	VAC16_H
 1040               	VAC16_H:
 1041 0003 0000      		.skip 2,0
 1042               	.global	VAC16_HH
 1043               	.global	VAC16_HH
 1046               	VAC16_HH:
 1047 0005 0000      		.skip 2,0
 1048               	.global	prog_val
 1049               	.global	prog_val
 1052               	prog_val:
 1053 0007 0000      		.skip 2,0
 1054               	.global	x16
 1055               	.global	x16
 1058               	x16:
 1059 0009 0000      		.skip 2,0
 1060               	.global	y16
 1061               	.global	y16
 1064               	y16:
 1065 000b 0000      		.skip 2,0
 1066               	.global	sync
 1067               	.global	sync
 1070               	sync:
 1071 000d 00        		.skip 1,0
 1072               	.global	t1
 1073               		.data
 1076               	t1:
 1077 0008 02        		.byte	2
 1078               	.global	t2
 1081               	t2:
 1082 0009 02        		.byte	2
 1083               	.global	dTt2
 1086               	dTt2:
 1087 000a 0A        		.byte	10
 1088               	.global	pos_phase
 1091               	pos_phase:
 1092 000b 01        		.byte	1
 1093               	.global	ptr
 1094               	.global	ptr
 1095               		.section .bss
 1098               	ptr:
 1099 000e 00        		.skip 1,0
 1100               	.global	PROGRAM_done
 1101               	.global	PROGRAM_done
 1104               	PROGRAM_done:
 1105 000f 00        		.skip 1,0
 1106               	.global	chan
 1107               	.global	chan
 1110               	chan:
 1111 0010 00        		.skip 1,0
 1112               	.global	reverted
 1113               	.global	reverted
 1116               	reverted:
 1117 0011 0000 0000 		.skip 8,0
 1117      0000 0000 
 1118               	.global	time_step
 1119               		.data
 1122               	time_step:
 1123 000c 0600      		.word	6
 1124               	.global	eventN
 1127               	eventN:
 1128 000e 6400      		.word	100
 1129               		.lcomm adc_h.1433,2
 1130               		.lcomm i.1427,2
 1131               		.comm dT,1,1
 1132               		.comm T,1,1
 1133               		.comm send8,1,1
 1134               		.comm UDP_cnt,1,1
 1135               		.comm c,1,1
 1136               		.comm ADC_on,1,1
 1137               		.comm _adc,2,1
 1138               		.comm ctr,2,1
 1139               		.comm accum,2,1
 1140               		.comm event_ctr,2,1
 1141               		.comm ADC_cnt,2,1
 1142               		.comm ADCH_,1,1
 1143               		.comm ADCL_,1,1
 1144               		.comm ADCH__,1,1
 1145               		.comm ADCL__,1,1
 1146               		.comm accum_cnt,1,1
 1243               	.Letext0:
DEFINED SYMBOLS
                            *ABS*:00000000 main.c
C:\Users\DrPepper\AppData\Local\Temp/ccyjmdjt.s:2      *ABS*:0000003f __SREG__
C:\Users\DrPepper\AppData\Local\Temp/ccyjmdjt.s:3      *ABS*:0000003e __SP_H__
C:\Users\DrPepper\AppData\Local\Temp/ccyjmdjt.s:4      *ABS*:0000003d __SP_L__
C:\Users\DrPepper\AppData\Local\Temp/ccyjmdjt.s:5      *ABS*:00000034 __CCP__
C:\Users\DrPepper\AppData\Local\Temp/ccyjmdjt.s:6      *ABS*:00000000 __tmp_reg__
C:\Users\DrPepper\AppData\Local\Temp/ccyjmdjt.s:7      *ABS*:00000001 __zero_reg__
C:\Users\DrPepper\AppData\Local\Temp/ccyjmdjt.s:18     .text:00000000 ADC_Init
C:\Users\DrPepper\AppData\Local\Temp/ccyjmdjt.s:42     .text:00000016 timer_init
C:\Users\DrPepper\AppData\Local\Temp/ccyjmdjt.s:67     .text:0000002e uart_init
C:\Users\DrPepper\AppData\Local\Temp/ccyjmdjt.s:92     .text:00000044 SPI_MasterInit
C:\Users\DrPepper\AppData\Local\Temp/ccyjmdjt.s:110    .text:0000004e SPI_WriteByte
C:\Users\DrPepper\AppData\Local\Temp/ccyjmdjt.s:130    .text:00000058 setDAC
C:\Users\DrPepper\AppData\Local\Temp/ccyjmdjt.s:1020   .data:00000000 chan_addrs
                            *COM*:00000001 send8
C:\Users\DrPepper\AppData\Local\Temp/ccyjmdjt.s:190    .text:000000a6 set_reverser
C:\Users\DrPepper\AppData\Local\Temp/ccyjmdjt.s:203    .text:000000a8 main
C:\Users\DrPepper\AppData\Local\Temp/ccyjmdjt.s:310    .text:00000130 __vector_9
                            *COM*:00000002 ctr
C:\Users\DrPepper\AppData\Local\Temp/ccyjmdjt.s:1122   .data:0000000c time_step
C:\Users\DrPepper\AppData\Local\Temp/ccyjmdjt.s:1014   .bss:00000000 MD
                            *COM*:00000002 event_ctr
                            *COM*:00000001 ADCL_
                            *COM*:00000001 ADCH_
C:\Users\DrPepper\AppData\Local\Temp/ccyjmdjt.s:1058   .bss:00000009 x16
C:\Users\DrPepper\AppData\Local\Temp/ccyjmdjt.s:1110   .bss:00000010 chan
C:\Users\DrPepper\AppData\Local\Temp/ccyjmdjt.s:1076   .data:00000008 t1
                            *COM*:00000001 dT
C:\Users\DrPepper\AppData\Local\Temp/ccyjmdjt.s:1086   .data:0000000a dTt2
                            *COM*:00000002 _adc
                            *COM*:00000002 accum
                            *COM*:00000001 ADC_on
                            *COM*:00000001 accum_cnt
C:\Users\DrPepper\AppData\Local\Temp/ccyjmdjt.s:1129   .bss:0000001b i.1427
                            *COM*:00000001 UDP_cnt
                            *COM*:00000001 ADCL__
                            *COM*:00000001 ADCH__
C:\Users\DrPepper\AppData\Local\Temp/ccyjmdjt.s:1034   .bss:00000001 VAC16
C:\Users\DrPepper\AppData\Local\Temp/ccyjmdjt.s:1040   .bss:00000003 VAC16_H
C:\Users\DrPepper\AppData\Local\Temp/ccyjmdjt.s:1091   .data:0000000b pos_phase
C:\Users\DrPepper\AppData\Local\Temp/ccyjmdjt.s:1064   .bss:0000000b y16
                            *COM*:00000001 T
C:\Users\DrPepper\AppData\Local\Temp/ccyjmdjt.s:1104   .bss:0000000f PROGRAM_done
                             .bss:00000019 adc_h.1433
C:\Users\DrPepper\AppData\Local\Temp/ccyjmdjt.s:1052   .bss:00000007 prog_val
C:\Users\DrPepper\AppData\Local\Temp/ccyjmdjt.s:1081   .data:00000009 t2
C:\Users\DrPepper\AppData\Local\Temp/ccyjmdjt.s:799    .text:000004f8 __vector_18
C:\Users\DrPepper\AppData\Local\Temp/ccyjmdjt.s:1098   .bss:0000000e ptr
C:\Users\DrPepper\AppData\Local\Temp/ccyjmdjt.s:1070   .bss:0000000d sync
C:\Users\DrPepper\AppData\Local\Temp/ccyjmdjt.s:1116   .bss:00000011 reverted
C:\Users\DrPepper\AppData\Local\Temp/ccyjmdjt.s:1046   .bss:00000005 VAC16_HH
C:\Users\DrPepper\AppData\Local\Temp/ccyjmdjt.s:1127   .data:0000000e eventN
                            *COM*:00000001 c
                            *COM*:00000002 ADC_cnt

UNDEFINED SYMBOLS
__udivmodqi4
__do_copy_data
__do_clear_bss
