   1               		.file	"main.c"
   2               	__SREG__ = 0x3f
   3               	__SP_H__ = 0x3e
   4               	__SP_L__ = 0x3d
   5               	__CCP__  = 0x34
   6               	__tmp_reg__ = 0
   7               	__zero_reg__ = 1
  15               	.Ltext0:
  16               	.global	set_pin
  18               	set_pin:
  19               	.LFB6:
  20               	.LM1:
  21 0000 DF93      		push r29
  22 0002 CF93      		push r28
  23 0004 00D0      		rcall .
  24 0006 0F92      		push __tmp_reg__
  25 0008 CDB7      		in r28,__SP_L__
  26 000a DEB7      		in r29,__SP_H__
  27               	/* prologue: function */
  28               	/* frame size = 3 */
  29 000c 6983      		std Y+1,r22
  30 000e 7A83      		std Y+2,r23
  31 0010 8B83      		std Y+3,r24
  32               	.LM2:
  33 0012 E981      		ldd r30,Y+1
  34 0014 FA81      		ldd r31,Y+2
  35               	.LM3:
  36 0016 21E0      		ldi r18,lo8(1)
  37 0018 30E0      		ldi r19,hi8(1)
  38 001a 00C0      		rjmp 2f
  39 001c 220F      	1:	lsl r18
  40 001e 331F      		rol r19
  41 0020 8A95      	2:	dec r24
  42 0022 02F4      		brpl 1b
  43 0024 8081      		ld r24,Z
  44 0026 822B      		or r24,r18
  45 0028 8083      		st Z,r24
  46               	/* epilogue start */
  47               	.LM4:
  48 002a 0F90      		pop __tmp_reg__
  49 002c 0F90      		pop __tmp_reg__
  50 002e 0F90      		pop __tmp_reg__
  51 0030 CF91      		pop r28
  52 0032 DF91      		pop r29
  53 0034 0895      		ret
  54               	.LFE6:
  56               	.global	reset_pin
  58               	reset_pin:
  59               	.LFB7:
  60               	.LM5:
  61 0036 DF93      		push r29
  62 0038 CF93      		push r28
  63 003a 00D0      		rcall .
  64 003c 0F92      		push __tmp_reg__
  65 003e CDB7      		in r28,__SP_L__
  66 0040 DEB7      		in r29,__SP_H__
  67               	/* prologue: function */
  68               	/* frame size = 3 */
  69 0042 6983      		std Y+1,r22
  70 0044 7A83      		std Y+2,r23
  71 0046 8B83      		std Y+3,r24
  72               	.LM6:
  73 0048 E981      		ldd r30,Y+1
  74 004a FA81      		ldd r31,Y+2
  75               	.LM7:
  76 004c 21E0      		ldi r18,lo8(1)
  77 004e 30E0      		ldi r19,hi8(1)
  78 0050 00C0      		rjmp 2f
  79 0052 220F      	1:	lsl r18
  80 0054 331F      		rol r19
  81 0056 8A95      	2:	dec r24
  82 0058 02F4      		brpl 1b
  83 005a 2095      		com r18
  84 005c 8081      		ld r24,Z
  85 005e 8223      		and r24,r18
  86 0060 8083      		st Z,r24
  87               	/* epilogue start */
  88               	.LM8:
  89 0062 0F90      		pop __tmp_reg__
  90 0064 0F90      		pop __tmp_reg__
  91 0066 0F90      		pop __tmp_reg__
  92 0068 CF91      		pop r28
  93 006a DF91      		pop r29
  94 006c 0895      		ret
  95               	.LFE7:
  97               	.global	gatherMult
  99               	gatherMult:
 100               	.LFB8:
 101               	.LM9:
 102               	/* prologue: function */
 103               	/* frame size = 0 */
 104               	.LM10:
 105 006e E091 0000 		lds r30,sep2_pin
 106 0072 F091 0000 		lds r31,(sep2_pin)+1
 107               	.LBB99:
 108               	.LBB100:
 109               	.LM11:
 110 0076 41E0      		ldi r20,lo8(1)
 111 0078 50E0      		ldi r21,hi8(1)
 112 007a CA01      		movw r24,r20
 113 007c 0090 0000 		lds r0,sep2_pin+2
 114 0080 00C0      		rjmp 2f
 115 0082 880F      	1:	lsl r24
 116 0084 991F      		rol r25
 117 0086 0A94      	2:	dec r0
 118 0088 02F4      		brpl 1b
 119 008a 8095      		com r24
 120 008c 2081      		ld r18,Z
 121 008e 2823      		and r18,r24
 122 0090 2083      		st Z,r18
 123               	.LM12:
 124 0092 E091 0000 		lds r30,sep3_pin
 125 0096 F091 0000 		lds r31,(sep3_pin)+1
 126               	.LBE100:
 127               	.LBE99:
 128               	.LBB101:
 129               	.LBB102:
 130               	.LM13:
 131 009a CA01      		movw r24,r20
 132 009c 0090 0000 		lds r0,sep3_pin+2
 133 00a0 00C0      		rjmp 2f
 134 00a2 880F      	1:	lsl r24
 135 00a4 991F      		rol r25
 136 00a6 0A94      	2:	dec r0
 137 00a8 02F4      		brpl 1b
 138 00aa 8095      		com r24
 139 00ac 2081      		ld r18,Z
 140 00ae 2823      		and r18,r24
 141 00b0 2083      		st Z,r18
 142               	.LM14:
 143 00b2 E091 0000 		lds r30,sep1_pin
 144 00b6 F091 0000 		lds r31,(sep1_pin)+1
 145               	.LBE102:
 146               	.LBE101:
 147               	.LBB103:
 148               	.LBB104:
 149               	.LM15:
 150 00ba CA01      		movw r24,r20
 151 00bc 0090 0000 		lds r0,sep1_pin+2
 152 00c0 00C0      		rjmp 2f
 153 00c2 880F      	1:	lsl r24
 154 00c4 991F      		rol r25
 155 00c6 0A94      	2:	dec r0
 156 00c8 02F4      		brpl 1b
 157 00ca 8095      		com r24
 158 00cc 2081      		ld r18,Z
 159 00ce 2823      		and r18,r24
 160 00d0 2083      		st Z,r18
 161               	.LBE104:
 162               	.LBE103:
 163               	.LM16:
 164 00d2 4198      		cbi 40-32,1
 165               	.LM17:
 166 00d4 2A98      		cbi 37-32,2
 167               	.LM18:
 168 00d6 2998      		cbi 37-32,1
 169               	.LM19:
 170 00d8 E091 0000 		lds r30,sep4_pin
 171 00dc F091 0000 		lds r31,(sep4_pin)+1
 172               	.LBB105:
 173               	.LBB106:
 174               	.LM20:
 175 00e0 CA01      		movw r24,r20
 176 00e2 0090 0000 		lds r0,sep4_pin+2
 177 00e6 00C0      		rjmp 2f
 178 00e8 880F      	1:	lsl r24
 179 00ea 991F      		rol r25
 180 00ec 0A94      	2:	dec r0
 181 00ee 02F4      		brpl 1b
 182 00f0 8095      		com r24
 183 00f2 2081      		ld r18,Z
 184 00f4 2823      		and r18,r24
 185 00f6 2083      		st Z,r18
 186               	.LM21:
 187 00f8 E091 0000 		lds r30,resister_pin
 188 00fc F091 0000 		lds r31,(resister_pin)+1
 189               	.LBE106:
 190               	.LBE105:
 191               	.LBB107:
 192               	.LBB108:
 193               	.LM22:
 194 0100 0090 0000 		lds r0,resister_pin+2
 195 0104 00C0      		rjmp 2f
 196 0106 440F      	1:	lsl r20
 197 0108 551F      		rol r21
 198 010a 0A94      	2:	dec r0
 199 010c 02F4      		brpl 1b
 200 010e 8081      		ld r24,Z
 201 0110 842B      		or r24,r20
 202 0112 8083      		st Z,r24
 203               	/* epilogue start */
 204               	.LBE108:
 205               	.LBE107:
 206               	.LM23:
 207 0114 0895      		ret
 208               	.LFE8:
 210               	.global	usualMult
 212               	usualMult:
 213               	.LFB9:
 214               	.LM24:
 215               	/* prologue: function */
 216               	/* frame size = 0 */
 217               	.LM25:
 218 0116 2998      		cbi 37-32,1
 219               	.LM26:
 220 0118 2A98      		cbi 37-32,2
 221               	.LM27:
 222 011a 4198      		cbi 40-32,1
 223               	.LM28:
 224 011c E091 0000 		lds r30,resister_pin
 225 0120 F091 0000 		lds r31,(resister_pin)+1
 226               	.LBB109:
 227               	.LBB110:
 228               	.LM29:
 229 0124 21E0      		ldi r18,lo8(1)
 230 0126 30E0      		ldi r19,hi8(1)
 231 0128 A901      		movw r20,r18
 232 012a 0090 0000 		lds r0,resister_pin+2
 233 012e 00C0      		rjmp 2f
 234 0130 440F      	1:	lsl r20
 235 0132 551F      		rol r21
 236 0134 0A94      	2:	dec r0
 237 0136 02F4      		brpl 1b
 238 0138 8081      		ld r24,Z
 239 013a 842B      		or r24,r20
 240 013c 8083      		st Z,r24
 241               	.LM30:
 242 013e E091 0000 		lds r30,sep2_pin
 243 0142 F091 0000 		lds r31,(sep2_pin)+1
 244               	.LBE110:
 245               	.LBE109:
 246               	.LBB111:
 247               	.LBB112:
 248               	.LM31:
 249 0146 A901      		movw r20,r18
 250 0148 0090 0000 		lds r0,sep2_pin+2
 251 014c 00C0      		rjmp 2f
 252 014e 440F      	1:	lsl r20
 253 0150 551F      		rol r21
 254 0152 0A94      	2:	dec r0
 255 0154 02F4      		brpl 1b
 256 0156 8081      		ld r24,Z
 257 0158 842B      		or r24,r20
 258 015a 8083      		st Z,r24
 259               	.LM32:
 260 015c E091 0000 		lds r30,sep3_pin
 261 0160 F091 0000 		lds r31,(sep3_pin)+1
 262               	.LBE112:
 263               	.LBE111:
 264               	.LBB113:
 265               	.LBB114:
 266               	.LM33:
 267 0164 A901      		movw r20,r18
 268 0166 0090 0000 		lds r0,sep3_pin+2
 269 016a 00C0      		rjmp 2f
 270 016c 440F      	1:	lsl r20
 271 016e 551F      		rol r21
 272 0170 0A94      	2:	dec r0
 273 0172 02F4      		brpl 1b
 274 0174 8081      		ld r24,Z
 275 0176 842B      		or r24,r20
 276 0178 8083      		st Z,r24
 277               	.LM34:
 278 017a E091 0000 		lds r30,sep4_pin
 279 017e F091 0000 		lds r31,(sep4_pin)+1
 280               	.LBE114:
 281               	.LBE113:
 282               	.LBB115:
 283               	.LBB116:
 284               	.LM35:
 285 0182 A901      		movw r20,r18
 286 0184 0090 0000 		lds r0,sep4_pin+2
 287 0188 00C0      		rjmp 2f
 288 018a 440F      	1:	lsl r20
 289 018c 551F      		rol r21
 290 018e 0A94      	2:	dec r0
 291 0190 02F4      		brpl 1b
 292 0192 8081      		ld r24,Z
 293 0194 842B      		or r24,r20
 294 0196 8083      		st Z,r24
 295               	.LM36:
 296 0198 E091 0000 		lds r30,sep1_pin
 297 019c F091 0000 		lds r31,(sep1_pin)+1
 298               	.LBE116:
 299               	.LBE115:
 300               	.LBB117:
 301               	.LBB118:
 302               	.LM37:
 303 01a0 0090 0000 		lds r0,sep1_pin+2
 304 01a4 00C0      		rjmp 2f
 305 01a6 220F      	1:	lsl r18
 306 01a8 331F      		rol r19
 307 01aa 0A94      	2:	dec r0
 308 01ac 02F4      		brpl 1b
 309 01ae 8081      		ld r24,Z
 310 01b0 822B      		or r24,r18
 311 01b2 8083      		st Z,r24
 312               	/* epilogue start */
 313               	.LBE118:
 314               	.LBE117:
 315               	.LM38:
 316 01b4 0895      		ret
 317               	.LFE9:
 319               	.global	set_reverser
 321               	set_reverser:
 322               	.LFB10:
 323               	.LM39:
 324               	.LVL0:
 325               	/* prologue: function */
 326               	/* frame size = 0 */
 327               	/* epilogue start */
 328               	.LM40:
 329 01b6 0895      		ret
 330               	.LFE10:
 332               	.global	ADC_Init
 334               	ADC_Init:
 335               	.LFB12:
 336               	.LM41:
 337               	/* prologue: function */
 338               	/* frame size = 0 */
 339               	.LM42:
 340 01b8 EAE7      		ldi r30,lo8(122)
 341 01ba F0E0      		ldi r31,hi8(122)
 342 01bc 8081      		ld r24,Z
 343 01be 8368      		ori r24,lo8(-125)
 344 01c0 8083      		st Z,r24
 345               	.LM43:
 346 01c2 ECE7      		ldi r30,lo8(124)
 347 01c4 F0E0      		ldi r31,hi8(124)
 348 01c6 8081      		ld r24,Z
 349 01c8 8064      		ori r24,lo8(64)
 350 01ca 8083      		st Z,r24
 351               	/* epilogue start */
 352               	.LM44:
 353 01cc 0895      		ret
 354               	.LFE12:
 356               	.global	timer_init
 358               	timer_init:
 359               	.LFB13:
 360               	.LM45:
 361               	/* prologue: function */
 362               	/* frame size = 0 */
 363               	.LM46:
 364 01ce 1092 B000 		sts 176,__zero_reg__
 365               	.LM47:
 366 01d2 E1EB      		ldi r30,lo8(177)
 367 01d4 F0E0      		ldi r31,hi8(177)
 368 01d6 1082      		st Z,__zero_reg__
 369               	.LM48:
 370 01d8 8081      		ld r24,Z
 371 01da 8260      		ori r24,lo8(2)
 372 01dc 8083      		st Z,r24
 373               	.LM49:
 374 01de 81E0      		ldi r24,lo8(1)
 375 01e0 8093 7000 		sts 112,r24
 376               	/* epilogue start */
 377               	.LM50:
 378 01e4 0895      		ret
 379               	.LFE13:
 381               	.global	uart_init
 383               	uart_init:
 384               	.LFB14:
 385               	.LM51:
 386               	.LVL1:
 387               	/* prologue: function */
 388               	/* frame size = 0 */
 389               	.LM52:
 390 01e6 9093 C500 		sts 197,r25
 391               	.LVL2:
 392               	.LM53:
 393 01ea 8093 C400 		sts 196,r24
 394               	.LM54:
 395 01ee 88E9      		ldi r24,lo8(-104)
 396               	.LVL3:
 397 01f0 8093 C100 		sts 193,r24
 398               	.LM55:
 399 01f4 8EE0      		ldi r24,lo8(14)
 400 01f6 8093 C200 		sts 194,r24
 401               	/* epilogue start */
 402               	.LM56:
 403 01fa 0895      		ret
 404               	.LFE14:
 406               	.global	SPI_MasterInit
 408               	SPI_MasterInit:
 409               	.LFB15:
 410               	.LM57:
 411               	/* prologue: function */
 412               	/* frame size = 0 */
 413               	.LM58:
 414 01fc 84B1      		in r24,36-32
 415 01fe 8C62      		ori r24,lo8(44)
 416 0200 84B9      		out 36-32,r24
 417               	.LM59:
 418 0202 88E5      		ldi r24,lo8(88)
 419 0204 8CBD      		out 76-32,r24
 420               	/* epilogue start */
 421               	.LM60:
 422 0206 0895      		ret
 423               	.LFE15:
 425               	.global	SPI_WriteByte
 427               	SPI_WriteByte:
 428               	.LFB17:
 429               	.LM61:
 430               	.LVL4:
 431               	/* prologue: function */
 432               	/* frame size = 0 */
 433               	.LM62:
 434 0208 8EBD      		out 78-32,r24
 435               	.L20:
 436               	.LM63:
 437 020a 0DB4      		in __tmp_reg__,77-32
 438 020c 07FE      		sbrs __tmp_reg__,7
 439 020e 00C0      		rjmp .L20
 440               	/* epilogue start */
 441               	.LM64:
 442 0210 0895      		ret
 443               	.LFE17:
 445               	.global	prepareResetDAC
 447               	prepareResetDAC:
 448               	.LFB16:
 449               	.LM65:
 450               	.LVL5:
 451 0212 EF92      		push r14
 452 0214 FF92      		push r15
 453 0216 0F93      		push r16
 454 0218 1F93      		push r17
 455               	/* prologue: function */
 456               	/* frame size = 0 */
 457               	.LM66:
 458 021a 282F      		mov r18,r24
 459 021c 2595      		asr r18
 460 021e 2595      		asr r18
 461 0220 2595      		asr r18
 462 0222 3327      		clr r19
 463 0224 27FD      		sbrc r18,7
 464 0226 3095      		com r19
 465 0228 8901      		movw r16,r18
 466 022a 000F      		lsl r16
 467 022c 111F      		rol r17
 468 022e 020F      		add r16,r18
 469 0230 131F      		adc r17,r19
 470 0232 0050      		subi r16,lo8(-(SYNC_PINS))
 471 0234 1040      		sbci r17,hi8(-(SYNC_PINS))
 472 0236 D801      		movw r26,r16
 473 0238 ED91      		ld r30,X+
 474 023a FC91      		ld r31,X
 475 023c 1197      		sbiw r26,1
 476               	.LBB119:
 477               	.LBB120:
 478               	.LM67:
 479 023e 91E0      		ldi r25,lo8(1)
 480 0240 E92E      		mov r14,r25
 481 0242 F12C      		mov r15,__zero_reg__
 482 0244 9701      		movw r18,r14
 483 0246 1296      		adiw r26,2
 484 0248 0C90      		ld r0,X
 485 024a 00C0      		rjmp 2f
 486 024c 220F      	1:	lsl r18
 487 024e 331F      		rol r19
 488 0250 0A94      	2:	dec r0
 489 0252 02F4      		brpl 1b
 490 0254 2095      		com r18
 491 0256 9081      		ld r25,Z
 492 0258 9223      		and r25,r18
 493 025a 9083      		st Z,r25
 494               	.LBE120:
 495               	.LBE119:
 496               	.LM68:
 497 025c 68E0      		ldi r22,lo8(8)
 498 025e 0E94 0000 		call __divmodqi4
 499               	.LVL6:
 500 0262 E92F      		mov r30,r25
 501 0264 FF27      		clr r31
 502 0266 E7FD      		sbrc r30,7
 503 0268 F095      		com r31
 504 026a E050      		subi r30,lo8(-(chan_addrs))
 505 026c F040      		sbci r31,hi8(-(chan_addrs))
 506 026e 8081      		ld r24,Z
 507 0270 8860      		ori r24,lo8(8)
 508 0272 90E0      		ldi r25,lo8(0)
 509 0274 0E94 0000 		call SPI_WriteByte
 510               	.LM69:
 511 0278 80E0      		ldi r24,lo8(0)
 512 027a 90E0      		ldi r25,hi8(0)
 513 027c 0E94 0000 		call SPI_WriteByte
 514               	.LM70:
 515 0280 D801      		movw r26,r16
 516 0282 ED91      		ld r30,X+
 517 0284 FC91      		ld r31,X
 518 0286 1197      		sbiw r26,1
 519               	.LBB121:
 520               	.LBB122:
 521               	.LM71:
 522 0288 1296      		adiw r26,2
 523 028a 0C90      		ld r0,X
 524 028c 00C0      		rjmp 2f
 525 028e EE0C      	1:	lsl r14
 526 0290 FF1C      		rol r15
 527 0292 0A94      	2:	dec r0
 528 0294 02F4      		brpl 1b
 529 0296 8081      		ld r24,Z
 530 0298 8E29      		or r24,r14
 531 029a 8083      		st Z,r24
 532               	/* epilogue start */
 533               	.LBE122:
 534               	.LBE121:
 535               	.LM72:
 536 029c 1F91      		pop r17
 537 029e 0F91      		pop r16
 538 02a0 FF90      		pop r15
 539 02a2 EF90      		pop r14
 540 02a4 0895      		ret
 541               	.LFE16:
 543               	.global	prepareSetDAC
 545               	prepareSetDAC:
 546               	.LFB11:
 547               	.LM73:
 548               	.LVL7:
 549 02a6 CF92      		push r12
 550 02a8 DF92      		push r13
 551 02aa EF92      		push r14
 552 02ac FF92      		push r15
 553 02ae 0F93      		push r16
 554 02b0 1F93      		push r17
 555 02b2 CF93      		push r28
 556 02b4 DF93      		push r29
 557               	/* prologue: function */
 558               	/* frame size = 0 */
 559 02b6 E62F      		mov r30,r22
 560               	.LM74:
 561 02b8 EE24      		clr r14
 562 02ba FF24      		clr r15
 563 02bc E81A      		sub r14,r24
 564 02be F90A      		sbc r15,r25
 565               	.LVL8:
 566               	.LM75:
 567 02c0 80E0      		ldi r24,lo8(2048)
 568 02c2 98E0      		ldi r25,hi8(2048)
 569 02c4 E80E      		add r14,r24
 570 02c6 F91E      		adc r15,r25
 571               	.LM76:
 572 02c8 862F      		mov r24,r22
 573 02ca 8695      		lsr r24
 574 02cc 8695      		lsr r24
 575 02ce 8695      		lsr r24
 576 02d0 90E0      		ldi r25,lo8(0)
 577 02d2 8C01      		movw r16,r24
 578 02d4 000F      		lsl r16
 579 02d6 111F      		rol r17
 580 02d8 080F      		add r16,r24
 581 02da 191F      		adc r17,r25
 582 02dc 0050      		subi r16,lo8(-(SYNC_PINS))
 583 02de 1040      		sbci r17,hi8(-(SYNC_PINS))
 584 02e0 E801      		movw r28,r16
 585 02e2 A881      		ld r26,Y
 586 02e4 B981      		ldd r27,Y+1
 587               	.LBB123:
 588               	.LBB124:
 589               	.LM77:
 590 02e6 61E0      		ldi r22,lo8(1)
 591 02e8 C62E      		mov r12,r22
 592 02ea D12C      		mov r13,__zero_reg__
 593               	.LVL9:
 594 02ec C601      		movw r24,r12
 595 02ee 0A80      		ldd r0,Y+2
 596 02f0 00C0      		rjmp 2f
 597 02f2 880F      	1:	lsl r24
 598 02f4 991F      		rol r25
 599 02f6 0A94      	2:	dec r0
 600 02f8 02F4      		brpl 1b
 601 02fa 8095      		com r24
 602 02fc 2C91      		ld r18,X
 603 02fe 2823      		and r18,r24
 604 0300 2C93      		st X,r18
 605               	.LBE124:
 606               	.LBE123:
 607               	.LM78:
 608 0302 8F2D      		mov r24,r15
 609 0304 9927      		clr r25
 610 0306 87FD      		sbrc r24,7
 611 0308 9A95      		dec r25
 612 030a 8F70      		andi r24,lo8(15)
 613 030c F0E0      		ldi r31,lo8(0)
 614               	.LVL10:
 615 030e E770      		andi r30,lo8(7)
 616 0310 F070      		andi r31,hi8(7)
 617               	.LVL11:
 618 0312 E050      		subi r30,lo8(-(chan_addrs))
 619 0314 F040      		sbci r31,hi8(-(chan_addrs))
 620               	.LVL12:
 621 0316 2081      		ld r18,Z
 622 0318 822B      		or r24,r18
 623 031a 90E0      		ldi r25,lo8(0)
 624 031c 0E94 0000 		call SPI_WriteByte
 625               	.LVL13:
 626               	.LM79:
 627 0320 E092 0000 		sts send8.1408,r14
 628               	.LM80:
 629 0324 8E2D      		mov r24,r14
 630 0326 90E0      		ldi r25,lo8(0)
 631 0328 0E94 0000 		call SPI_WriteByte
 632               	.LM81:
 633 032c E881      		ld r30,Y
 634 032e F981      		ldd r31,Y+1
 635               	.LBB125:
 636               	.LBB126:
 637               	.LM82:
 638 0330 0A80      		ldd r0,Y+2
 639 0332 00C0      		rjmp 2f
 640 0334 CC0C      	1:	lsl r12
 641 0336 DD1C      		rol r13
 642 0338 0A94      	2:	dec r0
 643 033a 02F4      		brpl 1b
 644 033c 8081      		ld r24,Z
 645 033e 8C29      		or r24,r12
 646 0340 8083      		st Z,r24
 647               	/* epilogue start */
 648               	.LBE126:
 649               	.LBE125:
 650               	.LM83:
 651 0342 DF91      		pop r29
 652 0344 CF91      		pop r28
 653 0346 1F91      		pop r17
 654 0348 0F91      		pop r16
 655 034a FF90      		pop r15
 656 034c EF90      		pop r14
 657               	.LVL14:
 658 034e DF90      		pop r13
 659 0350 CF90      		pop r12
 660 0352 0895      		ret
 661               	.LFE11:
 663               	.global	setDAC
 665               	setDAC:
 666               	.LFB18:
 667               	.LM84:
 668               	/* prologue: function */
 669               	/* frame size = 0 */
 670               	.LM85:
 671 0354 5A98      		cbi 43-32,2
 672               	.LM86:
 673 0356 5A9A      		sbi 43-32,2
 674               	/* epilogue start */
 675               	.LM87:
 676 0358 0895      		ret
 677               	.LFE18:
 679               	.global	main
 681               	main:
 682               	.LFB19:
 683               	.LM88:
 684 035a 1F93      		push r17
 685               	/* prologue: function */
 686               	/* frame size = 0 */
 687               	.LM89:
 688 035c 8091 0000 		lds r24,STAT_CYCLE
 689 0360 9091 0000 		lds r25,STAT_N
 690 0364 899F      		mul r24,r25
 691 0366 802D      		mov r24,r0
 692 0368 1124      		clr r1
 693 036a 8093 0000 		sts BIG_STAT_N,r24
 694 036e E0E0      		ldi r30,lo8(chan_addrs)
 695 0370 F0E0      		ldi r31,hi8(chan_addrs)
 696 0372 90E0      		ldi r25,lo8(0)
 697               	.LVL15:
 698               	.L30:
 699               	.LBB127:
 700               	.LM90:
 701 0374 892F      		mov r24,r25
 702 0376 8295      		swap r24
 703 0378 807F      		andi r24,lo8(-16)
 704 037a 8193      		st Z+,r24
 705               	.LM91:
 706 037c 9F5F      		subi r25,lo8(-(1))
 707 037e 9830      		cpi r25,lo8(8)
 708 0380 01F4      		brne .L30
 709               	.LBE127:
 710               	.LM92:
 711 0382 8EE1      		ldi r24,lo8(30)
 712 0384 87B9      		out 39-32,r24
 713               	.LM93:
 714 0386 8FEF      		ldi r24,lo8(-1)
 715 0388 8AB9      		out 42-32,r24
 716               	.LM94:
 717 038a 8FE1      		ldi r24,lo8(31)
 718 038c 84B9      		out 36-32,r24
 719               	.LM95:
 720               	/* #APP */
 721               	 ;  176 "main.c" 1
 722 038e 7894      		sei
 723               	 ;  0 "" 2
 724               	/* #NOAPP */
 725               	.LBB128:
 726               	.LBB129:
 727               	.LM96:
 728 0390 84B1      		in r24,36-32
 729 0392 8C62      		ori r24,lo8(44)
 730 0394 84B9      		out 36-32,r24
 731               	.LM97:
 732 0396 88E5      		ldi r24,lo8(88)
 733 0398 8CBD      		out 76-32,r24
 734               	.LBE129:
 735               	.LBE128:
 736               	.LBB130:
 737               	.LBB131:
 738               	.LM98:
 739 039a 1092 B000 		sts 176,__zero_reg__
 740               	.LM99:
 741 039e 1092 B100 		sts 177,__zero_reg__
 742               	.LM100:
 743 03a2 8091 B100 		lds r24,177
 744 03a6 8260      		ori r24,lo8(2)
 745 03a8 8093 B100 		sts 177,r24
 746               	.LM101:
 747 03ac 81E0      		ldi r24,lo8(1)
 748 03ae 8093 7000 		sts 112,r24
 749               	.LBE131:
 750               	.LBE130:
 751               	.LBB132:
 752               	.LBB133:
 753               	.LM102:
 754 03b2 1092 C500 		sts 197,__zero_reg__
 755               	.LM103:
 756 03b6 83E3      		ldi r24,lo8(51)
 757 03b8 8093 C400 		sts 196,r24
 758               	.LM104:
 759 03bc 88E9      		ldi r24,lo8(-104)
 760 03be 8093 C100 		sts 193,r24
 761               	.LM105:
 762 03c2 8EE0      		ldi r24,lo8(14)
 763 03c4 8093 C200 		sts 194,r24
 764               	.LBE133:
 765               	.LBE132:
 766               	.LBB134:
 767               	.LBB135:
 768               	.LM106:
 769 03c8 8091 7A00 		lds r24,122
 770 03cc 8368      		ori r24,lo8(-125)
 771 03ce 8093 7A00 		sts 122,r24
 772               	.LM107:
 773 03d2 8091 7C00 		lds r24,124
 774 03d6 8064      		ori r24,lo8(64)
 775 03d8 8093 7C00 		sts 124,r24
 776               	.LBE135:
 777               	.LBE134:
 778               	.LM108:
 779 03dc 8091 7A00 		lds r24,122
 780 03e0 8064      		ori r24,lo8(64)
 781 03e2 8093 7A00 		sts 122,r24
 782               	.LM109:
 783 03e6 8091 7800 		lds r24,120
 784               	.LM110:
 785 03ea 8091 7800 		lds r24,120
 786 03ee 10E0      		ldi r17,lo8(0)
 787               	.L31:
 788               	.LBB136:
 789               	.LM111:
 790 03f0 80E0      		ldi r24,lo8(0)
 791 03f2 90E0      		ldi r25,hi8(0)
 792 03f4 612F      		mov r22,r17
 793 03f6 0E94 0000 		call prepareSetDAC
 794               	.LVL16:
 795 03fa 1F5F      		subi r17,lo8(-(1))
 796               	.LM112:
 797 03fc 1034      		cpi r17,lo8(64)
 798 03fe 01F4      		brne .L31
 799               	.LBE136:
 800               	.LBB137:
 801               	.LBB138:
 802               	.LM113:
 803 0400 5A98      		cbi 43-32,2
 804               	.LM114:
 805 0402 5A9A      		sbi 43-32,2
 806               	.L32:
 807 0404 00C0      		rjmp .L32
 808               	.LBE138:
 809               	.LBE137:
 810               	.LFE19:
 812               	.global	__vector_9
 814               	__vector_9:
 815               	.LFB20:
 816               	.LM115:
 817 0406 1F92      		push __zero_reg__
 818 0408 0F92      		push r0
 819 040a 0FB6      		in r0,__SREG__
 820 040c 0F92      		push r0
 821 040e 1124      		clr __zero_reg__
 822 0410 2F93      		push r18
 823 0412 3F93      		push r19
 824 0414 4F93      		push r20
 825 0416 5F93      		push r21
 826 0418 6F93      		push r22
 827 041a 7F93      		push r23
 828 041c 8F93      		push r24
 829 041e 9F93      		push r25
 830 0420 AF93      		push r26
 831 0422 BF93      		push r27
 832 0424 EF93      		push r30
 833 0426 FF93      		push r31
 834               	/* prologue: Signal */
 835               	/* frame size = 0 */
 836               	.LM116:
 837 0428 8091 0000 		lds r24,mode_active
 838 042c 8823      		tst r24
 839 042e 01F4      		brne .+2
 840 0430 00C0      		rjmp .L103
 841               	.LM117:
 842 0432 2091 0000 		lds r18,_ctr
 843 0436 3091 0000 		lds r19,(_ctr)+1
 844 043a 8091 0000 		lds r24,time_step
 845 043e 9091 0000 		lds r25,(time_step)+1
 846 0442 8217      		cp r24,r18
 847 0444 9307      		cpc r25,r19
 848 0446 04F0      		brlt .+2
 849 0448 00C0      		rjmp .L38
 850               	.LM118:
 851 044a 8091 0000 		lds r24,MD
 852 044e 8823      		tst r24
 853 0450 01F4      		brne .L39
 854               	.LM119:
 855 0452 8091 0000 		lds r24,event_cnt
 856 0456 9091 0000 		lds r25,(event_cnt)+1
 857 045a 0097      		sbiw r24,0
 858 045c 01F4      		brne .L40
 859               	.LM120:
 860 045e 8FEF      		ldi r24,lo8(-1)
 861 0460 8093 C600 		sts 198,r24
 862 0464 00C0      		rjmp .L121
 863               	.L40:
 864               	.LM121:
 865 0466 8130      		cpi r24,1
 866 0468 9105      		cpc r25,__zero_reg__
 867 046a 01F4      		brne .L42
 868               	.LM122:
 869 046c 8091 7A00 		lds r24,122
 870 0470 8064      		ori r24,lo8(64)
 871 0472 8093 7A00 		sts 122,r24
 872 0476 00C0      		rjmp .L114
 873               	.L42:
 874               	.LM123:
 875 0478 8230      		cpi r24,2
 876 047a 9105      		cpc r25,__zero_reg__
 877 047c 01F4      		brne .+2
 878 047e 00C0      		rjmp .L114
 879               	.L43:
 880               	.LM124:
 881 0480 8330      		cpi r24,3
 882 0482 9105      		cpc r25,__zero_reg__
 883 0484 01F4      		brne .+2
 884 0486 00C0      		rjmp .L41
 885               	.LM125:
 886 0488 8430      		cpi r24,4
 887 048a 9105      		cpc r25,__zero_reg__
 888 048c 01F4      		brne .L44
 889               	.LM126:
 890 048e 9091 7800 		lds r25,120
 891 0492 9093 0000 		sts ADCL_,r25
 892               	.LM127:
 893 0496 8091 7900 		lds r24,121
 894 049a 8093 0000 		sts ADCH_,r24
 895               	.LM128:
 896 049e 9093 C600 		sts 198,r25
 897               	.LM129:
 898 04a2 80E0      		ldi r24,lo8(0)
 899 04a4 90E0      		ldi r25,hi8(0)
 900 04a6 00C0      		rjmp .L122
 901               	.L44:
 902               	.LM130:
 903 04a8 0597      		sbiw r24,5
 904 04aa 01F0      		breq .+2
 905 04ac 00C0      		rjmp .L41
 906               	.LM131:
 907 04ae 8091 0000 		lds r24,ADCH_
 908 04b2 8093 C600 		sts 198,r24
 909 04b6 00C0      		rjmp .L115
 910               	.L39:
 911               	.LM132:
 912 04b8 8730      		cpi r24,lo8(7)
 913 04ba 01F4      		brne .L45
 914               	.LM133:
 915 04bc 8093 0000 		sts T,r24
 916               	.LM134:
 917 04c0 8091 0000 		lds r24,event_cnt
 918 04c4 9091 0000 		lds r25,(event_cnt)+1
 919 04c8 0097      		sbiw r24,0
 920 04ca 01F4      		brne .L46
 921               	.LM135:
 922 04cc 8FEF      		ldi r24,lo8(-1)
 923 04ce 8093 C600 		sts 198,r24
 924               	.LM136:
 925 04d2 8091 0000 		lds r24,inp8
 926 04d6 9927      		clr r25
 927 04d8 87FD      		sbrc r24,7
 928 04da 9095      		com r25
 929 04dc A4E0      		ldi r26,4
 930 04de 880F      	1:	lsl r24
 931 04e0 991F      		rol r25
 932 04e2 AA95      		dec r26
 933 04e4 01F4      		brne 1b
 934 04e6 9093 0000 		sts (inp16)+1,r25
 935 04ea 8093 0000 		sts inp16,r24
 936 04ee 00C0      		rjmp .L105
 937               	.L46:
 938               	.LM137:
 939 04f0 8130      		cpi r24,1
 940 04f2 9105      		cpc r25,__zero_reg__
 941 04f4 01F4      		brne .+2
 942 04f6 00C0      		rjmp .L114
 943               	.L47:
 944               	.LM138:
 945 04f8 8230      		cpi r24,2
 946 04fa 9105      		cpc r25,__zero_reg__
 947 04fc 01F4      		brne .+2
 948 04fe 00C0      		rjmp .L116
 949               	.L48:
 950               	.LM139:
 951 0500 8330      		cpi r24,3
 952 0502 9105      		cpc r25,__zero_reg__
 953 0504 01F4      		brne .L129
 954 0506 00C0      		rjmp .L53
 955               	.L45:
 956               	.LM140:
 957 0508 8130      		cpi r24,lo8(1)
 958 050a 01F0      		breq .+2
 959 050c 00C0      		rjmp .L50
 960               	.LM141:
 961 050e 8091 0000 		lds r24,event_cnt
 962 0512 9091 0000 		lds r25,(event_cnt)+1
 963 0516 8230      		cpi r24,2
 964 0518 9105      		cpc r25,__zero_reg__
 965 051a 01F0      		breq .L53
 966 051c 8330      		cpi r24,3
 967 051e 9105      		cpc r25,__zero_reg__
 968 0520 04F4      		brge .L56
 969 0522 0097      		sbiw r24,0
 970 0524 01F0      		breq .L51
 971 0526 0197      		sbiw r24,1
 972 0528 01F0      		breq .+2
 973 052a 00C0      		rjmp .L41
 974 052c 00C0      		rjmp .L146
 975               	.L56:
 976 052e 8330      		cpi r24,3
 977 0530 9105      		cpc r25,__zero_reg__
 978 0532 01F0      		breq .L54
 979               	.L129:
 980 0534 0497      		sbiw r24,4
 981 0536 01F0      		breq .+2
 982 0538 00C0      		rjmp .L41
 983 053a 00C0      		rjmp .L108
 984               	.L51:
 985               	.LM142:
 986 053c 8091 7A00 		lds r24,122
 987 0540 8064      		ori r24,lo8(64)
 988 0542 8093 7A00 		sts 122,r24
 989 0546 00C0      		rjmp .L112
 990               	.L146:
 991               	.LM143:
 992 0548 8091 0000 		lds r24,ADCL_
 993 054c 8093 0000 		sts ADCL__,r24
 994               	.LM144:
 995 0550 8091 0000 		lds r24,ADCH_
 996 0554 8093 0000 		sts ADCH__,r24
 997 0558 00C0      		rjmp .L116
 998               	.L53:
 999               	.LM145:
 1000 055a 8091 0000 		lds r24,ADCH_
 1001 055e 00C0      		rjmp .L113
 1002               	.L54:
 1003               	.LM146:
 1004 0560 8091 0000 		lds r24,pos_phase
 1005 0564 2091 0000 		lds r18,voltage16
 1006 0568 3091 0000 		lds r19,(voltage16)+1
 1007 056c 8823      		tst r24
 1008 056e 01F0      		breq .L57
 1009               	.LM147:
 1010 0570 205E      		subi r18,lo8(-(32))
 1011 0572 3F4F      		sbci r19,hi8(-(32))
 1012 0574 3093 0000 		sts (voltage16)+1,r19
 1013 0578 2093 0000 		sts voltage16,r18
 1014               	.LM148:
 1015 057c 8091 0000 		lds r24,ref16
 1016 0580 9091 0000 		lds r25,(ref16)+1
 1017 0584 2817      		cp r18,r24
 1018 0586 3907      		cpc r19,r25
 1019 0588 04F0      		brlt .L58
 1020               	.LM149:
 1021 058a 1092 0000 		sts pos_phase,__zero_reg__
 1022 058e 00C0      		rjmp .L58
 1023               	.L57:
 1024               	.LM150:
 1025 0590 C901      		movw r24,r18
 1026 0592 8097      		sbiw r24,32
 1027 0594 9093 0000 		sts (voltage16)+1,r25
 1028 0598 8093 0000 		sts voltage16,r24
 1029               	.LM151:
 1030 059c 21E0      		ldi r18,lo8(1)
 1031 059e 30E0      		ldi r19,hi8(1)
 1032 05a0 4091 0000 		lds r20,inp16
 1033 05a4 5091 0000 		lds r21,(inp16)+1
 1034 05a8 241B      		sub r18,r20
 1035 05aa 350B      		sbc r19,r21
 1036 05ac 8217      		cp r24,r18
 1037 05ae 9307      		cpc r25,r19
 1038 05b0 04F4      		brge .L58
 1039               	.LM152:
 1040 05b2 81E0      		ldi r24,lo8(1)
 1041 05b4 8093 0000 		sts pos_phase,r24
 1042               	.L58:
 1043               	.LM153:
 1044 05b8 8091 0000 		lds r24,voltage16
 1045 05bc 9091 0000 		lds r25,(voltage16)+1
 1046 05c0 9C01      		movw r18,r24
 1047 05c2 F4E0      		ldi r31,4
 1048 05c4 3595      	1:	asr r19
 1049 05c6 2795      		ror r18
 1050 05c8 FA95      		dec r31
 1051 05ca 01F4      		brne 1b
 1052 05cc 2093 C600 		sts 198,r18
 1053 05d0 00C0      		rjmp .L122
 1054               	.L50:
 1055               	.LM154:
 1056 05d2 8230      		cpi r24,lo8(2)
 1057 05d4 01F0      		breq .+2
 1058 05d6 00C0      		rjmp .L59
 1059               	.LBB139:
 1060               	.LM155:
 1061 05d8 80E1      		ldi r24,lo8(16)
 1062 05da 8093 0000 		sts T,r24
 1063               	.LM156:
 1064 05de 8091 0000 		lds r24,event_cnt
 1065 05e2 9091 0000 		lds r25,(event_cnt)+1
 1066 05e6 0097      		sbiw r24,0
 1067 05e8 01F4      		brne .L60
 1068               	.LM157:
 1069 05ea 8FEF      		ldi r24,lo8(-1)
 1070 05ec 8093 C600 		sts 198,r24
 1071               	.LM158:
 1072 05f0 8091 0000 		lds r24,ref16
 1073 05f4 9091 0000 		lds r25,(ref16)+1
 1074               	.L105:
 1075 05f8 6091 0000 		lds r22,chan
 1076               	.L106:
 1077 05fc 0E94 0000 		call prepareSetDAC
 1078               	.LBB140:
 1079               	.LBB141:
 1080               	.LM159:
 1081 0600 5A98      		cbi 43-32,2
 1082               	.LM160:
 1083 0602 5A9A      		sbi 43-32,2
 1084               	.LBE141:
 1085               	.LBE140:
 1086               	.LM161:
 1087 0604 8091 7A00 		lds r24,122
 1088 0608 8064      		ori r24,lo8(64)
 1089 060a 8093 7A00 		sts 122,r24
 1090 060e 00C0      		rjmp .L41
 1091               	.L60:
 1092               	.LM162:
 1093 0610 8130      		cpi r24,1
 1094 0612 9105      		cpc r25,__zero_reg__
 1095 0614 01F4      		brne .L61
 1096               	.L114:
 1097               	.LM163:
 1098 0616 1092 C600 		sts 198,__zero_reg__
 1099 061a 00C0      		rjmp .L41
 1100               	.L61:
 1101               	.LM164:
 1102 061c 8230      		cpi r24,2
 1103 061e 9105      		cpc r25,__zero_reg__
 1104 0620 01F4      		brne .+2
 1105 0622 00C0      		rjmp .L116
 1106               	.L62:
 1107               	.LM165:
 1108 0624 8330      		cpi r24,3
 1109 0626 9105      		cpc r25,__zero_reg__
 1110 0628 01F0      		breq .+2
 1111 062a 00C0      		rjmp .L63
 1112               	.LM166:
 1113 062c 8091 0000 		lds r24,ADCH_
 1114 0630 8093 C600 		sts 198,r24
 1115               	.LM167:
 1116 0634 382F      		mov r19,r24
 1117 0636 20E0      		ldi r18,lo8(0)
 1118 0638 8091 0000 		lds r24,ADCL_
 1119 063c 90E0      		ldi r25,lo8(0)
 1120 063e 822B      		or r24,r18
 1121 0640 932B      		or r25,r19
 1122 0642 9093 0000 		sts (_adc)+1,r25
 1123 0646 8093 0000 		sts _adc,r24
 1124               	.LM168:
 1125 064a 40E0      		ldi r20,lo8(512)
 1126 064c 52E0      		ldi r21,hi8(512)
 1127 064e 481B      		sub r20,r24
 1128 0650 590B      		sbc r21,r25
 1129 0652 5093 0000 		sts (adc_h.1519)+1,r21
 1130 0656 4093 0000 		sts adc_h.1519,r20
 1131               	.LM169:
 1132 065a 8091 0000 		lds r24,t1
 1133 065e 282F      		mov r18,r24
 1134 0660 30E0      		ldi r19,lo8(0)
 1135 0662 C901      		movw r24,r18
 1136 0664 0197      		sbiw r24,1
 1137 0666 4817      		cp r20,r24
 1138 0668 5907      		cpc r21,r25
 1139 066a 00F4      		brsh .L64
 1140               	.LM170:
 1141 066c 8091 0000 		lds r24,inp16
 1142 0670 9091 0000 		lds r25,(inp16)+1
 1143 0674 9095      		com r25
 1144 0676 8195      		neg r24
 1145 0678 9F4F      		sbci r25,lo8(-1)
 1146 067a 9093 0000 		sts (proging_val)+1,r25
 1147 067e 8093 0000 		sts proging_val,r24
 1148 0682 00C0      		rjmp .L41
 1149               	.L64:
 1150               	.LM171:
 1151 0684 2E5F      		subi r18,lo8(-(2))
 1152 0686 3F4F      		sbci r19,hi8(-(2))
 1153 0688 4217      		cp r20,r18
 1154 068a 5307      		cpc r21,r19
 1155 068c 00F0      		brlo .+2
 1156 068e 00C0      		rjmp .L41
 1157               	.LM172:
 1158 0690 81E0      		ldi r24,lo8(1)
 1159 0692 8093 0000 		sts PROGRAM_done,r24
 1160               	.LM173:
 1161 0696 1092 0000 		sts (proging_val)+1,__zero_reg__
 1162 069a 1092 0000 		sts proging_val,__zero_reg__
 1163               	.L121:
 1164               	.LM174:
 1165 069e 8091 0000 		lds r24,ref16
 1166 06a2 9091 0000 		lds r25,(ref16)+1
 1167               	.L122:
 1168 06a6 6091 0000 		lds r22,chan
 1169 06aa 00C0      		rjmp .L104
 1170               	.L63:
 1171               	.LM175:
 1172 06ac 8430      		cpi r24,4
 1173 06ae 9105      		cpc r25,__zero_reg__
 1174 06b0 01F0      		breq .+2
 1175 06b2 00C0      		rjmp .L65
 1176               	.LM176:
 1177 06b4 8091 0000 		lds r24,PROGRAM_done
 1178 06b8 8093 C600 		sts 198,r24
 1179               	.LM177:
 1180 06bc 8823      		tst r24
 1181 06be 01F0      		breq .L66
 1182               	.LM178:
 1183 06c0 1092 0000 		sts (proging_val)+1,__zero_reg__
 1184 06c4 1092 0000 		sts proging_val,__zero_reg__
 1185               	.L66:
 1186               	.LM179:
 1187 06c8 8091 0000 		lds r24,proging_val
 1188 06cc 9091 0000 		lds r25,(proging_val)+1
 1189 06d0 6091 0000 		lds r22,chan
 1190 06d4 0E94 0000 		call prepareSetDAC
 1191               	.LBB142:
 1192               	.LBB143:
 1193               	.LM180:
 1194 06d8 5A98      		cbi 43-32,2
 1195               	.LM181:
 1196 06da 5A9A      		sbi 43-32,2
 1197               	.LBE143:
 1198               	.LBE142:
 1199               	.LM182:
 1200 06dc 2091 0000 		lds r18,proging_val
 1201 06e0 3091 0000 		lds r19,(proging_val)+1
 1202 06e4 8091 0000 		lds r24,inp16
 1203 06e8 9091 0000 		lds r25,(inp16)+1
 1204 06ec 4427      		clr r20
 1205 06ee 5527      		clr r21
 1206 06f0 481B      		sub r20,r24
 1207 06f2 590B      		sbc r21,r25
 1208 06f4 2417      		cp r18,r20
 1209 06f6 3507      		cpc r19,r21
 1210 06f8 01F4      		brne .L67
 1211               	.LM183:
 1212 06fa 1092 0000 		sts (proging_val)+1,__zero_reg__
 1213 06fe 1092 0000 		sts proging_val,__zero_reg__
 1214 0702 00C0      		rjmp .L41
 1215               	.L67:
 1216               	.LM184:
 1217 0704 8091 0000 		lds r24,t2
 1218 0708 90E0      		ldi r25,lo8(0)
 1219 070a E4E0      		ldi r30,4
 1220 070c 880F      	1:	lsl r24
 1221 070e 991F      		rol r25
 1222 0710 EA95      		dec r30
 1223 0712 01F4      		brne 1b
 1224 0714 8217      		cp r24,r18
 1225 0716 9307      		cpc r25,r19
 1226 0718 04F4      		brge .L68
 1227               	.LM185:
 1228 071a 5093 0000 		sts (proging_val)+1,r21
 1229 071e 4093 0000 		sts proging_val,r20
 1230 0722 00C0      		rjmp .L41
 1231               	.L68:
 1232               	.LM186:
 1233 0724 205E      		subi r18,lo8(-(32))
 1234 0726 3F4F      		sbci r19,hi8(-(32))
 1235 0728 3093 0000 		sts (proging_val)+1,r19
 1236 072c 2093 0000 		sts proging_val,r18
 1237 0730 00C0      		rjmp .L41
 1238               	.L65:
 1239               	.LM187:
 1240 0732 0597      		sbiw r24,5
 1241 0734 01F0      		breq .+2
 1242 0736 00C0      		rjmp .L41
 1243               	.LM188:
 1244 0738 8091 0000 		lds r24,PROGRAM_done
 1245 073c 8093 C600 		sts 198,r24
 1246               	.LM189:
 1247 0740 80E0      		ldi r24,lo8(0)
 1248 0742 90E0      		ldi r25,hi8(0)
 1249 0744 6091 0000 		lds r22,chan
 1250 0748 0E94 0000 		call prepareSetDAC
 1251               	.LBB144:
 1252               	.LBB145:
 1253               	.LM190:
 1254 074c 5A98      		cbi 43-32,2
 1255               	.LM191:
 1256 074e 5A9A      		sbi 43-32,2
 1257               	.LBE145:
 1258               	.LBE144:
 1259               	.LM192:
 1260 0750 8091 0000 		lds r24,PROGRAM_done
 1261 0754 8823      		tst r24
 1262 0756 01F0      		breq .L69
 1263               	.LM193:
 1264 0758 1092 0000 		sts mode_active,__zero_reg__
 1265               	.L69:
 1266               	.LM194:
 1267 075c 8FEF      		ldi r24,lo8(-1)
 1268 075e 9FEF      		ldi r25,hi8(-1)
 1269 0760 9093 0000 		sts (event_cnt)+1,r25
 1270 0764 8093 0000 		sts event_cnt,r24
 1271 0768 00C0      		rjmp .L41
 1272               	.L59:
 1273               	.LBE139:
 1274               	.LM195:
 1275 076a 8830      		cpi r24,lo8(8)
 1276 076c 01F4      		brne .L70
 1277               	.LM196:
 1278 076e 8091 0000 		lds r24,event_cnt
 1279 0772 9091 0000 		lds r25,(event_cnt)+1
 1280 0776 0097      		sbiw r24,0
 1281 0778 01F4      		brne .+2
 1282 077a 00C0      		rjmp .L109
 1283               	.L71:
 1284               	.LM197:
 1285 077c 8130      		cpi r24,1
 1286 077e 9105      		cpc r25,__zero_reg__
 1287 0780 01F4      		brne .L72
 1288               	.LM198:
 1289 0782 8091 0000 		lds r24,reset16
 1290 0786 9091 0000 		lds r25,(reset16)+1
 1291 078a 60E0      		ldi r22,lo8(0)
 1292 078c 0E94 0000 		call prepareSetDAC
 1293               	.LM199:
 1294 0790 8091 0000 		lds r24,reset16
 1295 0794 9091 0000 		lds r25,(reset16)+1
 1296 0798 61E0      		ldi r22,lo8(1)
 1297 079a 0E94 0000 		call prepareSetDAC
 1298               	.LM200:
 1299 079e 8091 0000 		lds r24,reset16
 1300 07a2 9091 0000 		lds r25,(reset16)+1
 1301 07a6 62E0      		ldi r22,lo8(2)
 1302 07a8 0E94 0000 		call prepareSetDAC
 1303               	.LM201:
 1304 07ac 8091 0000 		lds r24,reset16
 1305 07b0 9091 0000 		lds r25,(reset16)+1
 1306 07b4 00C0      		rjmp .L123
 1307               	.L72:
 1308               	.LM202:
 1309 07b6 8230      		cpi r24,2
 1310 07b8 9105      		cpc r25,__zero_reg__
 1311 07ba 01F4      		brne .L73
 1312               	.LM203:
 1313 07bc 80E0      		ldi r24,lo8(0)
 1314 07be 90E0      		ldi r25,hi8(0)
 1315 07c0 60E0      		ldi r22,lo8(0)
 1316 07c2 0E94 0000 		call prepareSetDAC
 1317               	.LM204:
 1318 07c6 80E0      		ldi r24,lo8(0)
 1319 07c8 90E0      		ldi r25,hi8(0)
 1320 07ca 61E0      		ldi r22,lo8(1)
 1321 07cc 0E94 0000 		call prepareSetDAC
 1322               	.LM205:
 1323 07d0 80E0      		ldi r24,lo8(0)
 1324 07d2 90E0      		ldi r25,hi8(0)
 1325 07d4 62E0      		ldi r22,lo8(2)
 1326 07d6 0E94 0000 		call prepareSetDAC
 1327 07da 00C0      		rjmp .L127
 1328               	.L73:
 1329               	.LM206:
 1330 07dc 8330      		cpi r24,3
 1331 07de 9105      		cpc r25,__zero_reg__
 1332 07e0 01F4      		brne .L90
 1333               	.L112:
 1334               	.LM207:
 1335 07e2 8FEF      		ldi r24,lo8(-1)
 1336               	.L113:
 1337 07e4 8093 C600 		sts 198,r24
 1338 07e8 00C0      		rjmp .L41
 1339               	.L70:
 1340               	.LM208:
 1341 07ea 8530      		cpi r24,lo8(5)
 1342 07ec 01F0      		breq .+2
 1343 07ee 00C0      		rjmp .L41
 1344               	.LM209:
 1345 07f0 8091 0000 		lds r24,event_cnt
 1346 07f4 9091 0000 		lds r25,(event_cnt)+1
 1347 07f8 0097      		sbiw r24,0
 1348 07fa 01F4      		brne .L87
 1349               	.LM210:
 1350 07fc 0E94 0000 		call gatherMult
 1351 0800 00C0      		rjmp .L41
 1352               	.L87:
 1353               	.LM211:
 1354 0802 8130      		cpi r24,1
 1355 0804 9105      		cpc r25,__zero_reg__
 1356 0806 01F4      		brne .L88
 1357               	.LM212:
 1358 0808 8091 0000 		lds r24,inp16
 1359 080c 9091 0000 		lds r25,(inp16)+1
 1360 0810 9095      		com r25
 1361 0812 8195      		neg r24
 1362 0814 9F4F      		sbci r25,lo8(-1)
 1363               	.L124:
 1364 0816 60E0      		ldi r22,lo8(0)
 1365               	.L104:
 1366 0818 0E94 0000 		call prepareSetDAC
 1367               	.LBB146:
 1368               	.LBB147:
 1369               	.LM213:
 1370 081c 5A98      		cbi 43-32,2
 1371               	.LM214:
 1372 081e 5A9A      		sbi 43-32,2
 1373 0820 00C0      		rjmp .L41
 1374               	.L88:
 1375               	.LBE147:
 1376               	.LBE146:
 1377               	.LM215:
 1378 0822 8230      		cpi r24,2
 1379 0824 9105      		cpc r25,__zero_reg__
 1380 0826 01F0      		breq .L132
 1381               	.L89:
 1382               	.LM216:
 1383 0828 8330      		cpi r24,3
 1384 082a 9105      		cpc r25,__zero_reg__
 1385 082c 01F4      		brne .L90
 1386               	.LM217:
 1387 082e 8FEF      		ldi r24,lo8(-1)
 1388 0830 8093 C600 		sts 198,r24
 1389               	.L109:
 1390               	.LM218:
 1391 0834 0E94 0000 		call usualMult
 1392 0838 00C0      		rjmp .L41
 1393               	.L90:
 1394               	.LM219:
 1395 083a 8430      		cpi r24,4
 1396 083c 9105      		cpc r25,__zero_reg__
 1397 083e 01F4      		brne .L91
 1398               	.LM220:
 1399 0840 8091 0000 		lds r24,ref16
 1400 0844 9091 0000 		lds r25,(ref16)+1
 1401 0848 60E0      		ldi r22,lo8(0)
 1402 084a 00C0      		rjmp .L106
 1403               	.L91:
 1404               	.LM221:
 1405 084c 8530      		cpi r24,5
 1406 084e 9105      		cpc r25,__zero_reg__
 1407 0850 01F4      		brne .+2
 1408 0852 00C0      		rjmp .L116
 1409               	.L92:
 1410               	.LM222:
 1411 0854 8630      		cpi r24,6
 1412 0856 9105      		cpc r25,__zero_reg__
 1413 0858 01F4      		brne .L93
 1414               	.LM223:
 1415 085a 8091 0000 		lds r24,ADCH_
 1416 085e 8093 C600 		sts 198,r24
 1417               	.L132:
 1418               	.LM224:
 1419 0862 80E0      		ldi r24,lo8(0)
 1420 0864 90E0      		ldi r25,hi8(0)
 1421 0866 00C0      		rjmp .L124
 1422               	.L93:
 1423               	.LM225:
 1424 0868 8730      		cpi r24,7
 1425 086a 9105      		cpc r25,__zero_reg__
 1426 086c 01F4      		brne .L94
 1427               	.LM226:
 1428 086e 8091 0000 		lds r24,ref16
 1429 0872 9091 0000 		lds r25,(ref16)+1
 1430 0876 61E0      		ldi r22,lo8(1)
 1431 0878 00C0      		rjmp .L106
 1432               	.L94:
 1433               	.LM227:
 1434 087a 8830      		cpi r24,8
 1435 087c 9105      		cpc r25,__zero_reg__
 1436 087e 01F0      		breq .L116
 1437               	.L95:
 1438               	.LM228:
 1439 0880 8930      		cpi r24,9
 1440 0882 9105      		cpc r25,__zero_reg__
 1441 0884 01F4      		brne .L96
 1442               	.LM229:
 1443 0886 8091 0000 		lds r24,ADCH_
 1444 088a 8093 C600 		sts 198,r24
 1445               	.LM230:
 1446 088e 80E0      		ldi r24,lo8(0)
 1447 0890 90E0      		ldi r25,hi8(0)
 1448 0892 61E0      		ldi r22,lo8(1)
 1449 0894 00C0      		rjmp .L104
 1450               	.L96:
 1451               	.LM231:
 1452 0896 8A30      		cpi r24,10
 1453 0898 9105      		cpc r25,__zero_reg__
 1454 089a 01F4      		brne .L97
 1455               	.LM232:
 1456 089c 8091 0000 		lds r24,ref16
 1457 08a0 9091 0000 		lds r25,(ref16)+1
 1458 08a4 62E0      		ldi r22,lo8(2)
 1459 08a6 00C0      		rjmp .L106
 1460               	.L97:
 1461               	.LM233:
 1462 08a8 8B30      		cpi r24,11
 1463 08aa 9105      		cpc r25,__zero_reg__
 1464 08ac 01F0      		breq .L116
 1465               	.L98:
 1466               	.LM234:
 1467 08ae 8C30      		cpi r24,12
 1468 08b0 9105      		cpc r25,__zero_reg__
 1469 08b2 01F4      		brne .L99
 1470               	.LM235:
 1471 08b4 8091 0000 		lds r24,ADCH_
 1472 08b8 8093 C600 		sts 198,r24
 1473               	.LM236:
 1474 08bc 80E0      		ldi r24,lo8(0)
 1475 08be 90E0      		ldi r25,hi8(0)
 1476 08c0 62E0      		ldi r22,lo8(2)
 1477 08c2 00C0      		rjmp .L104
 1478               	.L99:
 1479               	.LM237:
 1480 08c4 8D30      		cpi r24,13
 1481 08c6 9105      		cpc r25,__zero_reg__
 1482 08c8 01F4      		brne .L100
 1483               	.LM238:
 1484 08ca 8091 0000 		lds r24,ref16
 1485 08ce 9091 0000 		lds r25,(ref16)+1
 1486 08d2 63E0      		ldi r22,lo8(3)
 1487 08d4 00C0      		rjmp .L106
 1488               	.L100:
 1489               	.LM239:
 1490 08d6 8E30      		cpi r24,14
 1491 08d8 9105      		cpc r25,__zero_reg__
 1492 08da 01F4      		brne .L101
 1493               	.L116:
 1494               	.LM240:
 1495 08dc 9091 7800 		lds r25,120
 1496 08e0 9093 0000 		sts ADCL_,r25
 1497               	.LM241:
 1498 08e4 8091 7900 		lds r24,121
 1499 08e8 8093 0000 		sts ADCH_,r24
 1500               	.LM242:
 1501 08ec 9093 C600 		sts 198,r25
 1502 08f0 00C0      		rjmp .L41
 1503               	.L101:
 1504               	.LM243:
 1505 08f2 8F30      		cpi r24,15
 1506 08f4 9105      		cpc r25,__zero_reg__
 1507 08f6 01F4      		brne .L102
 1508               	.LM244:
 1509 08f8 8091 0000 		lds r24,ADCH_
 1510 08fc 8093 C600 		sts 198,r24
 1511               	.L127:
 1512               	.LM245:
 1513 0900 80E0      		ldi r24,lo8(0)
 1514 0902 90E0      		ldi r25,hi8(0)
 1515               	.L123:
 1516 0904 63E0      		ldi r22,lo8(3)
 1517 0906 00C0      		rjmp .L104
 1518               	.L102:
 1519               	.LM246:
 1520 0908 4097      		sbiw r24,16
 1521 090a 01F4      		brne .L41
 1522               	.L108:
 1523               	.LM247:
 1524 090c 1092 C600 		sts 198,__zero_reg__
 1525               	.L115:
 1526               	.LM248:
 1527 0910 1092 0000 		sts mode_active,__zero_reg__
 1528               	.L41:
 1529               	.LM249:
 1530 0914 1092 0000 		sts (_ctr)+1,__zero_reg__
 1531 0918 1092 0000 		sts _ctr,__zero_reg__
 1532               	.LM250:
 1533 091c 8091 0000 		lds r24,mode_active
 1534 0920 8823      		tst r24
 1535 0922 01F0      		breq .L38
 1536 0924 8091 0000 		lds r24,event_cnt
 1537 0928 9091 0000 		lds r25,(event_cnt)+1
 1538 092c 0196      		adiw r24,1
 1539 092e 9093 0000 		sts (event_cnt)+1,r25
 1540 0932 8093 0000 		sts event_cnt,r24
 1541               	.L38:
 1542               	.LM251:
 1543 0936 8091 0000 		lds r24,_ctr
 1544 093a 9091 0000 		lds r25,(_ctr)+1
 1545 093e 0196      		adiw r24,1
 1546 0940 9093 0000 		sts (_ctr)+1,r25
 1547 0944 8093 0000 		sts _ctr,r24
 1548               	.L103:
 1549               	/* epilogue start */
 1550               	.LM252:
 1551 0948 FF91      		pop r31
 1552 094a EF91      		pop r30
 1553 094c BF91      		pop r27
 1554 094e AF91      		pop r26
 1555 0950 9F91      		pop r25
 1556 0952 8F91      		pop r24
 1557 0954 7F91      		pop r23
 1558 0956 6F91      		pop r22
 1559 0958 5F91      		pop r21
 1560 095a 4F91      		pop r20
 1561 095c 3F91      		pop r19
 1562 095e 2F91      		pop r18
 1563 0960 0F90      		pop r0
 1564 0962 0FBE      		out __SREG__,r0
 1565 0964 0F90      		pop r0
 1566 0966 1F90      		pop __zero_reg__
 1567 0968 1895      		reti
 1568               	.LFE20:
 1570               	.global	__vector_18
 1572               	__vector_18:
 1573               	.LFB21:
 1574               	.LM253:
 1575 096a 1F92      		push __zero_reg__
 1576 096c 0F92      		push r0
 1577 096e 0FB6      		in r0,__SREG__
 1578 0970 0F92      		push r0
 1579 0972 1124      		clr __zero_reg__
 1580 0974 2F93      		push r18
 1581 0976 3F93      		push r19
 1582 0978 4F93      		push r20
 1583 097a 5F93      		push r21
 1584 097c 6F93      		push r22
 1585 097e 7F93      		push r23
 1586 0980 8F93      		push r24
 1587 0982 9F93      		push r25
 1588 0984 AF93      		push r26
 1589 0986 BF93      		push r27
 1590 0988 EF93      		push r30
 1591 098a FF93      		push r31
 1592               	/* prologue: Signal */
 1593               	/* frame size = 0 */
 1594               	.LM254:
 1595 098c 2091 C600 		lds r18,198
 1596 0990 2093 0000 		sts rec,r18
 1597               	.LM255:
 1598 0994 8091 0000 		lds r24,rec_ind
 1599 0998 8430      		cpi r24,lo8(4)
 1600 099a 01F4      		brne .+2
 1601 099c 00C0      		rjmp .L153
 1602 099e 8530      		cpi r24,lo8(5)
 1603 09a0 00F4      		brsh .L159
 1604 09a2 8130      		cpi r24,lo8(1)
 1605 09a4 01F0      		breq .L150
 1606 09a6 8130      		cpi r24,lo8(1)
 1607 09a8 00F0      		brlo .L149
 1608 09aa 8230      		cpi r24,lo8(2)
 1609 09ac 01F4      		brne .+2
 1610 09ae 00C0      		rjmp .L151
 1611 09b0 8330      		cpi r24,lo8(3)
 1612 09b2 01F0      		breq .+2
 1613 09b4 00C0      		rjmp .L148
 1614 09b6 00C0      		rjmp .L168
 1615               	.L159:
 1616 09b8 8730      		cpi r24,lo8(7)
 1617 09ba 01F4      		brne .+2
 1618 09bc 00C0      		rjmp .L156
 1619 09be 8830      		cpi r24,lo8(8)
 1620 09c0 00F4      		brsh .L160
 1621 09c2 8530      		cpi r24,lo8(5)
 1622 09c4 01F4      		brne .+2
 1623 09c6 00C0      		rjmp .L154
 1624 09c8 8630      		cpi r24,lo8(6)
 1625 09ca 01F0      		breq .+2
 1626 09cc 00C0      		rjmp .L148
 1627 09ce 00C0      		rjmp .L169
 1628               	.L160:
 1629 09d0 8830      		cpi r24,lo8(8)
 1630 09d2 01F4      		brne .+2
 1631 09d4 00C0      		rjmp .L157
 1632 09d6 8930      		cpi r24,lo8(9)
 1633 09d8 01F0      		breq .+2
 1634 09da 00C0      		rjmp .L148
 1635 09dc 00C0      		rjmp .L170
 1636               	.L149:
 1637               	.LM256:
 1638 09de 2F3F      		cpi r18,lo8(-1)
 1639 09e0 01F0      		breq .L161
 1640               	.LM257:
 1641 09e2 1092 0000 		sts sync,__zero_reg__
 1642               	.LM258:
 1643 09e6 83E0      		ldi r24,lo8(3)
 1644 09e8 8093 0000 		sts rec_ind,r24
 1645 09ec 00C0      		rjmp .L148
 1646               	.L161:
 1647               	.LM259:
 1648 09ee 81E0      		ldi r24,lo8(1)
 1649 09f0 8093 0000 		sts sync,r24
 1650 09f4 00C0      		rjmp .L148
 1651               	.L150:
 1652               	.LM260:
 1653 09f6 2130      		cpi r18,lo8(1)
 1654 09f8 01F4      		brne .L162
 1655 09fa 8091 0000 		lds r24,MD
 1656 09fe 8130      		cpi r24,lo8(1)
 1657 0a00 01F0      		breq .L162
 1658               	.LM261:
 1659 0a02 1092 0000 		sts (voltage16)+1,__zero_reg__
 1660 0a06 1092 0000 		sts voltage16,__zero_reg__
 1661               	.LM262:
 1662 0a0a 1092 0000 		sts pos_phase,__zero_reg__
 1663               	.L162:
 1664               	.LM263:
 1665 0a0e 2093 0000 		sts MD,r18
 1666               	.LM264:
 1667 0a12 2130      		cpi r18,lo8(1)
 1668 0a14 01F4      		brne .L163
 1669               	.LM265:
 1670 0a16 84E0      		ldi r24,lo8(4)
 1671 0a18 90E0      		ldi r25,hi8(4)
 1672 0a1a 9093 0000 		sts (time_step)+1,r25
 1673 0a1e 8093 0000 		sts time_step,r24
 1674 0a22 00C0      		rjmp .L148
 1675               	.L163:
 1676               	.LM266:
 1677 0a24 86E0      		ldi r24,lo8(6)
 1678 0a26 90E0      		ldi r25,hi8(6)
 1679 0a28 9093 0000 		sts (time_step)+1,r25
 1680 0a2c 8093 0000 		sts time_step,r24
 1681               	.LM267:
 1682 0a30 2230      		cpi r18,lo8(2)
 1683 0a32 01F0      		breq .+2
 1684 0a34 00C0      		rjmp .L148
 1685               	.LM268:
 1686 0a36 1092 0000 		sts PROGRAM_done,__zero_reg__
 1687               	.LM269:
 1688 0a3a 1092 0000 		sts (proging_val)+1,__zero_reg__
 1689 0a3e 1092 0000 		sts proging_val,__zero_reg__
 1690 0a42 00C0      		rjmp .L148
 1691               	.L151:
 1692               	.LM270:
 1693 0a44 2093 0000 		sts inp8,r18
 1694               	.LM271:
 1695 0a48 822F      		mov r24,r18
 1696 0a4a 90E0      		ldi r25,lo8(0)
 1697 0a4c 9093 0000 		sts (inp16_simple)+1,r25
 1698 0a50 8093 0000 		sts inp16_simple,r24
 1699               	.LM272:
 1700 0a54 34E0      		ldi r19,4
 1701 0a56 880F      	1:	lsl r24
 1702 0a58 991F      		rol r25
 1703 0a5a 3A95      		dec r19
 1704 0a5c 01F4      		brne 1b
 1705 0a5e 9093 0000 		sts (inp16)+1,r25
 1706 0a62 8093 0000 		sts inp16,r24
 1707 0a66 00C0      		rjmp .L148
 1708               	.L168:
 1709               	.LM273:
 1710 0a68 822F      		mov r24,r18
 1711 0a6a 90E0      		ldi r25,lo8(0)
 1712 0a6c 24E0      		ldi r18,4
 1713 0a6e 880F      	1:	lsl r24
 1714 0a70 991F      		rol r25
 1715 0a72 2A95      		dec r18
 1716 0a74 01F4      		brne 1b
 1717 0a76 9093 0000 		sts (ref16)+1,r25
 1718 0a7a 8093 0000 		sts ref16,r24
 1719 0a7e 00C0      		rjmp .L148
 1720               	.L153:
 1721               	.LM274:
 1722 0a80 8091 0000 		lds r24,MD
 1723 0a84 8230      		cpi r24,lo8(2)
 1724 0a86 01F4      		brne .L164
 1725               	.LM275:
 1726 0a88 2093 0000 		sts t1,r18
 1727 0a8c 00C0      		rjmp .L148
 1728               	.L164:
 1729               	.LM276:
 1730 0a8e 822F      		mov r24,r18
 1731 0a90 90E0      		ldi r25,lo8(0)
 1732 0a92 B4E0      		ldi r27,4
 1733 0a94 880F      	1:	lsl r24
 1734 0a96 991F      		rol r25
 1735 0a98 BA95      		dec r27
 1736 0a9a 01F4      		brne 1b
 1737 0a9c 9093 0000 		sts (reset16)+1,r25
 1738 0aa0 8093 0000 		sts reset16,r24
 1739 0aa4 00C0      		rjmp .L148
 1740               	.L154:
 1741               	.LM277:
 1742 0aa6 2093 0000 		sts t2,r18
 1743 0aaa 00C0      		rjmp .L148
 1744               	.L169:
 1745               	.LM278:
 1746 0aac 2093 0000 		sts dT,r18
 1747 0ab0 00C0      		rjmp .L148
 1748               	.L156:
 1749               	.LM279:
 1750 0ab2 2093 0000 		sts T,r18
 1751 0ab6 00C0      		rjmp .L148
 1752               	.L157:
 1753               	.LM280:
 1754 0ab8 2093 0000 		sts chan,r18
 1755 0abc 00C0      		rjmp .L148
 1756               	.L170:
 1757               	.LM281:
 1758 0abe E091 0000 		lds r30,chan
 1759 0ac2 F0E0      		ldi r31,lo8(0)
 1760 0ac4 E050      		subi r30,lo8(-(reverted))
 1761 0ac6 F040      		sbci r31,hi8(-(reverted))
 1762 0ac8 2083      		st Z,r18
 1763               	.LM282:
 1764 0aca 8091 0000 		lds r24,MD
 1765 0ace 8330      		cpi r24,lo8(3)
 1766 0ad0 01F4      		brne .L165
 1767               	.LM283:
 1768 0ad2 0E94 0000 		call gatherMult
 1769 0ad6 00C0      		rjmp .L166
 1770               	.L165:
 1771               	.LM284:
 1772 0ad8 8430      		cpi r24,lo8(4)
 1773 0ada 01F4      		brne .L166
 1774               	.LM285:
 1775 0adc 0E94 0000 		call usualMult
 1776               	.L166:
 1777               	.LM286:
 1778 0ae0 1092 0000 		sts (event_cnt)+1,__zero_reg__
 1779 0ae4 1092 0000 		sts event_cnt,__zero_reg__
 1780               	.LM287:
 1781 0ae8 81E0      		ldi r24,lo8(1)
 1782 0aea 8093 0000 		sts mode_active,r24
 1783               	.L148:
 1784               	.LM288:
 1785 0aee 8091 0000 		lds r24,t2
 1786 0af2 9091 0000 		lds r25,dT
 1787 0af6 890F      		add r24,r25
 1788 0af8 8093 0000 		sts dTt2,r24
 1789               	.LM289:
 1790 0afc 8091 0000 		lds r24,rec_ind
 1791 0b00 8F5F      		subi r24,lo8(-(1))
 1792 0b02 6AE0      		ldi r22,lo8(10)
 1793 0b04 0E94 0000 		call __udivmodqi4
 1794 0b08 9093 0000 		sts rec_ind,r25
 1795               	/* epilogue start */
 1796               	.LM290:
 1797 0b0c FF91      		pop r31
 1798 0b0e EF91      		pop r30
 1799 0b10 BF91      		pop r27
 1800 0b12 AF91      		pop r26
 1801 0b14 9F91      		pop r25
 1802 0b16 8F91      		pop r24
 1803 0b18 7F91      		pop r23
 1804 0b1a 6F91      		pop r22
 1805 0b1c 5F91      		pop r21
 1806 0b1e 4F91      		pop r20
 1807 0b20 3F91      		pop r19
 1808 0b22 2F91      		pop r18
 1809 0b24 0F90      		pop r0
 1810 0b26 0FBE      		out __SREG__,r0
 1811 0b28 0F90      		pop r0
 1812 0b2a 1F90      		pop __zero_reg__
 1813 0b2c 1895      		reti
 1814               	.LFE21:
 1816               	.global	SYNC_PINS
 1817               		.data
 1820               	SYNC_PINS:
 1821 0000 2B00      		.word	43
 1822 0002 05        		.byte	5
 1823 0003 2B00      		.word	43
 1824 0005 06        		.byte	6
 1825 0006 2B00      		.word	43
 1826 0008 07        		.byte	7
 1827 0009 2500      		.word	37
 1828 000b 00        		.byte	0
 1829 000c 2500      		.word	37
 1830 000e 01        		.byte	1
 1831 000f 2800      		.word	40
 1832 0011 02        		.byte	2
 1833 0012 2800      		.word	40
 1834 0014 03        		.byte	3
 1835 0015 2800      		.word	40
 1836 0017 04        		.byte	4
 1837               	.global	sep1_pin
 1840               	sep1_pin:
 1841 0018 2B00      		.word	43
 1842 001a 05        		.byte	5
 1843               	.global	sep2_pin
 1846               	sep2_pin:
 1847 001b 2B00      		.word	43
 1848 001d 06        		.byte	6
 1849               	.global	sep3_pin
 1852               	sep3_pin:
 1853 001e 2B00      		.word	43
 1854 0020 07        		.byte	7
 1855               	.global	sep4_pin
 1858               	sep4_pin:
 1859 0021 2500      		.word	37
 1860 0023 00        		.byte	0
 1861               	.global	resister_pin
 1864               	resister_pin:
 1865 0024 2800      		.word	40
 1866 0026 04        		.byte	4
 1867               	.global	MD
 1868               	.global	MD
 1869               		.section .bss
 1872               	MD:
 1873 0000 00        		.skip 1,0
 1874               	.global	STAT_N
 1875               		.data
 1878               	STAT_N:
 1879 0027 11        		.byte	17
 1880               	.global	STAT_CYCLE
 1883               	STAT_CYCLE:
 1884 0028 05        		.byte	5
 1885               	.global	voltage16
 1886               	.global	voltage16
 1887               		.section .bss
 1890               	voltage16:
 1891 0001 0000      		.skip 2,0
 1892               	.global	proging_val
 1893               	.global	proging_val
 1896               	proging_val:
 1897 0003 0000      		.skip 2,0
 1898               	.global	inp16
 1899               	.global	inp16
 1902               	inp16:
 1903 0005 0000      		.skip 2,0
 1904               	.global	ref16
 1905               	.global	ref16
 1908               	ref16:
 1909 0007 0000      		.skip 2,0
 1910               	.global	reset16
 1911               	.global	reset16
 1914               	reset16:
 1915 0009 0000      		.skip 2,0
 1916               	.global	sync
 1917               	.global	sync
 1920               	sync:
 1921 000b 00        		.skip 1,0
 1922               	.global	t1
 1923               		.data
 1926               	t1:
 1927 0029 02        		.byte	2
 1928               	.global	t2
 1931               	t2:
 1932 002a 02        		.byte	2
 1933               	.global	dTt2
 1936               	dTt2:
 1937 002b 0A        		.byte	10
 1938               	.global	pos_phase
 1941               	pos_phase:
 1942 002c 01        		.byte	1
 1943               	.global	STAT_dt_step
 1944               	.global	STAT_dt_step
 1945               		.section .bss
 1948               	STAT_dt_step:
 1949 000c 00        		.skip 1,0
 1950               	.global	STAT_V_step
 1951               	.global	STAT_V_step
 1954               	STAT_V_step:
 1955 000d 00        		.skip 1,0
 1956               	.global	rec_ind
 1957               	.global	rec_ind
 1960               	rec_ind:
 1961 000e 00        		.skip 1,0
 1962               	.global	PROGRAM_done
 1963               	.global	PROGRAM_done
 1966               	PROGRAM_done:
 1967 000f 00        		.skip 1,0
 1968               	.global	chan
 1969               	.global	chan
 1972               	chan:
 1973 0010 00        		.skip 1,0
 1974               	.global	mode_active
 1975               	.global	mode_active
 1978               	mode_active:
 1979 0011 00        		.skip 1,0
 1980               	.global	an_cnt
 1981               	.global	an_cnt
 1984               	an_cnt:
 1985 0012 0000      		.skip 2,0
 1986               	.global	an_cnt_fast
 1987               	.global	an_cnt_fast
 1990               	an_cnt_fast:
 1991 0014 0000      		.skip 2,0
 1992               	.global	reverted
 1993               	.global	reverted
 1996               	reverted:
 1997 0016 0000 0000 		.skip 64,0
 1997      0000 0000 
 1997      0000 0000 
 1997      0000 0000 
 1997      0000 0000 
 1998               	.global	time_step
 1999               		.data
 2002               	time_step:
 2003 002d 0600      		.word	6
 2004               	.global	eventN
 2007               	eventN:
 2008 002f 6400      		.word	100
 2009               		.lcomm adc_h.1519,2
 2010               		.lcomm send8.1408,1
 2011               		.comm chan_addrs,8,1
 2012               		.comm BIG_STAT_N,1,1
 2013               		.comm x16_grad,2,1
 2014               		.comm inp16_simple,2,1
 2015               		.comm inp8,1,1
 2016               		.comm dT,1,1
 2017               		.comm T,1,1
 2018               		.comm VAC_cnt,1,1
 2019               		.comm c,1,1
 2020               		.comm _adc,2,1
 2021               		.comm _ctr,2,1
 2022               		.comm event_cnt,2,1
 2023               		.comm ADC_cnt,2,1
 2024               		.comm ADCH_,1,1
 2025               		.comm ADCL_,1,1
 2026               		.comm ADCH__,1,1
 2027               		.comm ADCL__,1,1
 2028               		.comm rec,1,1
 2173               	.Letext0:
DEFINED SYMBOLS
                            *ABS*:00000000 main.c
C:\Users\DrPepper\AppData\Local\Temp/ccN3qhPD.s:2      *ABS*:0000003f __SREG__
C:\Users\DrPepper\AppData\Local\Temp/ccN3qhPD.s:3      *ABS*:0000003e __SP_H__
C:\Users\DrPepper\AppData\Local\Temp/ccN3qhPD.s:4      *ABS*:0000003d __SP_L__
C:\Users\DrPepper\AppData\Local\Temp/ccN3qhPD.s:5      *ABS*:00000034 __CCP__
C:\Users\DrPepper\AppData\Local\Temp/ccN3qhPD.s:6      *ABS*:00000000 __tmp_reg__
C:\Users\DrPepper\AppData\Local\Temp/ccN3qhPD.s:7      *ABS*:00000001 __zero_reg__
C:\Users\DrPepper\AppData\Local\Temp/ccN3qhPD.s:18     .text:00000000 set_pin
C:\Users\DrPepper\AppData\Local\Temp/ccN3qhPD.s:58     .text:00000036 reset_pin
C:\Users\DrPepper\AppData\Local\Temp/ccN3qhPD.s:99     .text:0000006e gatherMult
C:\Users\DrPepper\AppData\Local\Temp/ccN3qhPD.s:1846   .data:0000001b sep2_pin
C:\Users\DrPepper\AppData\Local\Temp/ccN3qhPD.s:1852   .data:0000001e sep3_pin
C:\Users\DrPepper\AppData\Local\Temp/ccN3qhPD.s:1840   .data:00000018 sep1_pin
C:\Users\DrPepper\AppData\Local\Temp/ccN3qhPD.s:1858   .data:00000021 sep4_pin
C:\Users\DrPepper\AppData\Local\Temp/ccN3qhPD.s:1864   .data:00000024 resister_pin
C:\Users\DrPepper\AppData\Local\Temp/ccN3qhPD.s:212    .text:00000116 usualMult
C:\Users\DrPepper\AppData\Local\Temp/ccN3qhPD.s:321    .text:000001b6 set_reverser
C:\Users\DrPepper\AppData\Local\Temp/ccN3qhPD.s:334    .text:000001b8 ADC_Init
C:\Users\DrPepper\AppData\Local\Temp/ccN3qhPD.s:358    .text:000001ce timer_init
C:\Users\DrPepper\AppData\Local\Temp/ccN3qhPD.s:383    .text:000001e6 uart_init
C:\Users\DrPepper\AppData\Local\Temp/ccN3qhPD.s:408    .text:000001fc SPI_MasterInit
C:\Users\DrPepper\AppData\Local\Temp/ccN3qhPD.s:427    .text:00000208 SPI_WriteByte
C:\Users\DrPepper\AppData\Local\Temp/ccN3qhPD.s:447    .text:00000212 prepareResetDAC
C:\Users\DrPepper\AppData\Local\Temp/ccN3qhPD.s:1820   .data:00000000 SYNC_PINS
                            *COM*:00000008 chan_addrs
C:\Users\DrPepper\AppData\Local\Temp/ccN3qhPD.s:545    .text:000002a6 prepareSetDAC
C:\Users\DrPepper\AppData\Local\Temp/ccN3qhPD.s:2009   .bss:00000058 send8.1408
C:\Users\DrPepper\AppData\Local\Temp/ccN3qhPD.s:665    .text:00000354 setDAC
C:\Users\DrPepper\AppData\Local\Temp/ccN3qhPD.s:681    .text:0000035a main
C:\Users\DrPepper\AppData\Local\Temp/ccN3qhPD.s:1883   .data:00000028 STAT_CYCLE
C:\Users\DrPepper\AppData\Local\Temp/ccN3qhPD.s:1878   .data:00000027 STAT_N
                            *COM*:00000001 BIG_STAT_N
C:\Users\DrPepper\AppData\Local\Temp/ccN3qhPD.s:814    .text:00000406 __vector_9
C:\Users\DrPepper\AppData\Local\Temp/ccN3qhPD.s:1978   .bss:00000011 mode_active
                            *COM*:00000002 _ctr
C:\Users\DrPepper\AppData\Local\Temp/ccN3qhPD.s:2002   .data:0000002d time_step
C:\Users\DrPepper\AppData\Local\Temp/ccN3qhPD.s:1872   .bss:00000000 MD
                            *COM*:00000002 event_cnt
                            *COM*:00000001 ADCL_
                            *COM*:00000001 ADCH_
                            *COM*:00000001 T
                            *COM*:00000001 inp8
C:\Users\DrPepper\AppData\Local\Temp/ccN3qhPD.s:1902   .bss:00000005 inp16
                            *COM*:00000001 ADCL__
                            *COM*:00000001 ADCH__
C:\Users\DrPepper\AppData\Local\Temp/ccN3qhPD.s:1941   .data:0000002c pos_phase
C:\Users\DrPepper\AppData\Local\Temp/ccN3qhPD.s:1890   .bss:00000001 voltage16
C:\Users\DrPepper\AppData\Local\Temp/ccN3qhPD.s:1908   .bss:00000007 ref16
C:\Users\DrPepper\AppData\Local\Temp/ccN3qhPD.s:1972   .bss:00000010 chan
                            *COM*:00000002 _adc
                             .bss:00000056 adc_h.1519
C:\Users\DrPepper\AppData\Local\Temp/ccN3qhPD.s:1926   .data:00000029 t1
C:\Users\DrPepper\AppData\Local\Temp/ccN3qhPD.s:1896   .bss:00000003 proging_val
C:\Users\DrPepper\AppData\Local\Temp/ccN3qhPD.s:1966   .bss:0000000f PROGRAM_done
C:\Users\DrPepper\AppData\Local\Temp/ccN3qhPD.s:1931   .data:0000002a t2
C:\Users\DrPepper\AppData\Local\Temp/ccN3qhPD.s:1914   .bss:00000009 reset16
C:\Users\DrPepper\AppData\Local\Temp/ccN3qhPD.s:1572   .text:0000096a __vector_18
                            *COM*:00000001 rec
C:\Users\DrPepper\AppData\Local\Temp/ccN3qhPD.s:1960   .bss:0000000e rec_ind
C:\Users\DrPepper\AppData\Local\Temp/ccN3qhPD.s:1920   .bss:0000000b sync
                            *COM*:00000002 inp16_simple
                            *COM*:00000001 dT
C:\Users\DrPepper\AppData\Local\Temp/ccN3qhPD.s:1996   .bss:00000016 reverted
C:\Users\DrPepper\AppData\Local\Temp/ccN3qhPD.s:1936   .data:0000002b dTt2
C:\Users\DrPepper\AppData\Local\Temp/ccN3qhPD.s:1948   .bss:0000000c STAT_dt_step
C:\Users\DrPepper\AppData\Local\Temp/ccN3qhPD.s:1954   .bss:0000000d STAT_V_step
C:\Users\DrPepper\AppData\Local\Temp/ccN3qhPD.s:1984   .bss:00000012 an_cnt
C:\Users\DrPepper\AppData\Local\Temp/ccN3qhPD.s:1990   .bss:00000014 an_cnt_fast
C:\Users\DrPepper\AppData\Local\Temp/ccN3qhPD.s:2007   .data:0000002f eventN
                            *COM*:00000002 x16_grad
                            *COM*:00000001 VAC_cnt
                            *COM*:00000001 c
                            *COM*:00000002 ADC_cnt

UNDEFINED SYMBOLS
__divmodqi4
__udivmodqi4
__do_copy_data
__do_clear_bss
