   1               		.file	"main.c"
   2               	__SREG__ = 0x3f
   3               	__SP_H__ = 0x3e
   4               	__SP_L__ = 0x3d
   5               	__CCP__  = 0x34
   6               	__tmp_reg__ = 0
   7               	__zero_reg__ = 1
  15               	.Ltext0:
  16               	.global	ADC_Init
  18               	ADC_Init:
  19               	.LFB6:
  20               	.LM1:
  21               	/* prologue: function */
  22               	/* frame size = 0 */
  23               	.LM2:
  24 0000 EAE7      		ldi r30,lo8(122)
  25 0002 F0E0      		ldi r31,hi8(122)
  26 0004 8081      		ld r24,Z
  27 0006 8368      		ori r24,lo8(-125)
  28 0008 8083      		st Z,r24
  29               	.LM3:
  30 000a ECE7      		ldi r30,lo8(124)
  31 000c F0E0      		ldi r31,hi8(124)
  32 000e 8081      		ld r24,Z
  33 0010 8064      		ori r24,lo8(64)
  34 0012 8083      		st Z,r24
  35               	/* epilogue start */
  36               	.LM4:
  37 0014 0895      		ret
  38               	.LFE6:
  40               	.global	timer_init
  42               	timer_init:
  43               	.LFB7:
  44               	.LM5:
  45               	/* prologue: function */
  46               	/* frame size = 0 */
  47               	.LM6:
  48 0016 1092 B000 		sts 176,__zero_reg__
  49               	.LM7:
  50 001a E1EB      		ldi r30,lo8(177)
  51 001c F0E0      		ldi r31,hi8(177)
  52 001e 1082      		st Z,__zero_reg__
  53               	.LM8:
  54 0020 8081      		ld r24,Z
  55 0022 8260      		ori r24,lo8(2)
  56 0024 8083      		st Z,r24
  57               	.LM9:
  58 0026 81E0      		ldi r24,lo8(1)
  59 0028 8093 7000 		sts 112,r24
  60               	/* epilogue start */
  61               	.LM10:
  62 002c 0895      		ret
  63               	.LFE7:
  65               	.global	uart_init
  67               	uart_init:
  68               	.LFB8:
  69               	.LM11:
  70               	.LVL0:
  71               	/* prologue: function */
  72               	/* frame size = 0 */
  73               	.LM12:
  74 002e 9093 C500 		sts 197,r25
  75               	.LVL1:
  76               	.LM13:
  77 0032 8093 C400 		sts 196,r24
  78               	.LM14:
  79 0036 88E9      		ldi r24,lo8(-104)
  80               	.LVL2:
  81 0038 8093 C100 		sts 193,r24
  82               	.LM15:
  83 003c 8EE0      		ldi r24,lo8(14)
  84 003e 8093 C200 		sts 194,r24
  85               	/* epilogue start */
  86               	.LM16:
  87 0042 0895      		ret
  88               	.LFE8:
  90               	.global	SPI_MasterInit
  92               	SPI_MasterInit:
  93               	.LFB9:
  94               	.LM17:
  95               	/* prologue: function */
  96               	/* frame size = 0 */
  97               	.LM18:
  98 0044 8CE2      		ldi r24,lo8(44)
  99 0046 84B9      		out 36-32,r24
 100               	.LM19:
 101 0048 88E5      		ldi r24,lo8(88)
 102 004a 8CBD      		out 76-32,r24
 103               	/* epilogue start */
 104               	.LM20:
 105 004c 0895      		ret
 106               	.LFE9:
 108               	.global	gatherMult
 110               	gatherMult:
 111               	.LFB12:
 112               	.LM21:
 113               	/* prologue: function */
 114               	/* frame size = 0 */
 115               	.LM22:
 116 004e 5E98      		cbi 43-32,6
 117               	.LM23:
 118 0050 5F98      		cbi 43-32,7
 119               	.LM24:
 120 0052 5D98      		cbi 43-32,5
 121               	.LM25:
 122 0054 4498      		cbi 40-32,4
 123               	.LM26:
 124 0056 419A      		sbi 40-32,1
 125               	.LM27:
 126 0058 2A9A      		sbi 37-32,2
 127               	.LM28:
 128 005a 299A      		sbi 37-32,1
 129               	.LM29:
 130 005c 289A      		sbi 37-32,0
 131               	/* epilogue start */
 132               	.LM30:
 133 005e 0895      		ret
 134               	.LFE12:
 136               	.global	separMult
 138               	separMult:
 139               	.LFB13:
 140               	.LM31:
 141               	/* prologue: function */
 142               	/* frame size = 0 */
 143               	.LM32:
 144 0060 2998      		cbi 37-32,1
 145               	.LM33:
 146 0062 2A98      		cbi 37-32,2
 147               	.LM34:
 148 0064 4198      		cbi 40-32,1
 149               	.LM35:
 150 0066 449A      		sbi 40-32,4
 151               	.LM36:
 152 0068 5E9A      		sbi 43-32,6
 153               	.LM37:
 154 006a 5F9A      		sbi 43-32,7
 155               	.LM38:
 156 006c 289A      		sbi 37-32,0
 157               	.LM39:
 158 006e 5D9A      		sbi 43-32,5
 159               	/* epilogue start */
 160               	.LM40:
 161 0070 0895      		ret
 162               	.LFE13:
 164               	.global	SPI_WriteByte
 166               	SPI_WriteByte:
 167               	.LFB14:
 168               	.LM41:
 169               	.LVL3:
 170               	/* prologue: function */
 171               	/* frame size = 0 */
 172               	.LM42:
 173 0072 8EBD      		out 78-32,r24
 174               	.L14:
 175               	.LM43:
 176 0074 0DB4      		in __tmp_reg__,77-32
 177 0076 07FE      		sbrs __tmp_reg__,7
 178 0078 00C0      		rjmp .L14
 179               	/* epilogue start */
 180               	.LM44:
 181 007a 0895      		ret
 182               	.LFE14:
 184               	.global	resetDAC
 186               	resetDAC:
 187               	.LFB11:
 188               	.LM45:
 189               	.LVL4:
 190               	/* prologue: function */
 191               	/* frame size = 0 */
 192               	.LM46:
 193 007c 5B98      		cbi 43-32,3
 194               	.LM47:
 195 007e E82F      		mov r30,r24
 196 0080 FF27      		clr r31
 197 0082 E7FD      		sbrc r30,7
 198 0084 F095      		com r31
 199               	.LVL5:
 200 0086 E050      		subi r30,lo8(-(chan_addrs))
 201 0088 F040      		sbci r31,hi8(-(chan_addrs))
 202               	.LVL6:
 203 008a 8081      		ld r24,Z
 204 008c 8860      		ori r24,lo8(8)
 205 008e 90E0      		ldi r25,lo8(0)
 206 0090 0E94 0000 		call SPI_WriteByte
 207               	.LVL7:
 208               	.LM48:
 209 0094 80E0      		ldi r24,lo8(0)
 210 0096 90E0      		ldi r25,hi8(0)
 211 0098 0E94 0000 		call SPI_WriteByte
 212               	.LM49:
 213 009c 5B9A      		sbi 43-32,3
 214               	/* epilogue start */
 215               	.LM50:
 216 009e 0895      		ret
 217               	.LFE11:
 219               	.global	setDAC
 221               	setDAC:
 222               	.LFB10:
 223               	.LM51:
 224               	.LVL8:
 225 00a0 0F93      		push r16
 226 00a2 1F93      		push r17
 227               	/* prologue: function */
 228               	/* frame size = 0 */
 229 00a4 E62F      		mov r30,r22
 230               	.LM52:
 231 00a6 0027      		clr r16
 232 00a8 1127      		clr r17
 233 00aa 081B      		sub r16,r24
 234 00ac 190B      		sbc r17,r25
 235               	.LVL9:
 236               	.LM53:
 237 00ae 0050      		subi r16,lo8(-(2048))
 238 00b0 184F      		sbci r17,hi8(-(2048))
 239               	.LM54:
 240 00b2 5B98      		cbi 43-32,3
 241               	.LM55:
 242 00b4 812F      		mov r24,r17
 243 00b6 9927      		clr r25
 244 00b8 87FD      		sbrc r24,7
 245 00ba 9A95      		dec r25
 246 00bc 8F70      		andi r24,lo8(15)
 247 00be FF27      		clr r31
 248 00c0 E7FD      		sbrc r30,7
 249 00c2 F095      		com r31
 250               	.LVL10:
 251 00c4 E050      		subi r30,lo8(-(chan_addrs))
 252 00c6 F040      		sbci r31,hi8(-(chan_addrs))
 253               	.LVL11:
 254 00c8 2081      		ld r18,Z
 255 00ca 822B      		or r24,r18
 256 00cc 8093 0000 		sts send8,r24
 257               	.LM56:
 258 00d0 90E0      		ldi r25,lo8(0)
 259 00d2 0E94 0000 		call SPI_WriteByte
 260               	.LVL12:
 261               	.LM57:
 262 00d6 0093 0000 		sts send8,r16
 263               	.LM58:
 264 00da 802F      		mov r24,r16
 265 00dc 90E0      		ldi r25,lo8(0)
 266 00de 0E94 0000 		call SPI_WriteByte
 267               	.LM59:
 268 00e2 5B9A      		sbi 43-32,3
 269               	/* epilogue start */
 270               	.LM60:
 271 00e4 1F91      		pop r17
 272 00e6 0F91      		pop r16
 273               	.LVL13:
 274 00e8 0895      		ret
 275               	.LFE10:
 277               	.global	set_reverser
 279               	set_reverser:
 280               	.LFB15:
 281               	.LM61:
 282               	.LVL14:
 283               	/* prologue: function */
 284               	/* frame size = 0 */
 285               	/* epilogue start */
 286               	.LM62:
 287 00ea 0895      		ret
 288               	.LFE15:
 290               	.global	main
 292               	main:
 293               	.LFB16:
 294               	.LM63:
 295 00ec 1F93      		push r17
 296               	/* prologue: function */
 297               	/* frame size = 0 */
 298               	.LM64:
 299 00ee 8091 0000 		lds r24,STAT_CYCLE
 300 00f2 9091 0000 		lds r25,STAT_N
 301 00f6 899F      		mul r24,r25
 302 00f8 802D      		mov r24,r0
 303 00fa 1124      		clr r1
 304 00fc 8093 0000 		sts BIG_STAT_N,r24
 305 0100 E0E0      		ldi r30,lo8(chan_addrs)
 306 0102 F0E0      		ldi r31,hi8(chan_addrs)
 307               	.L24:
 308               	.LBB12:
 309               	.LM65:
 310 0104 8081      		ld r24,Z
 311 0106 8295      		swap r24
 312 0108 807F      		andi r24,lo8(-16)
 313 010a 8193      		st Z+,r24
 314               	.LM66:
 315 010c 80E0      		ldi r24,hi8(chan_addrs+8)
 316 010e E030      		cpi r30,lo8(chan_addrs+8)
 317 0110 F807      		cpc r31,r24
 318 0112 01F4      		brne .L24
 319               	.LBE12:
 320               	.LM67:
 321 0114 88B1      		in r24,40-32
 322 0116 88B9      		out 40-32,r24
 323               	.LM68:
 324 0118 8EE1      		ldi r24,lo8(30)
 325 011a 87B9      		out 39-32,r24
 326               	.LM69:
 327 011c 8EEF      		ldi r24,lo8(-2)
 328 011e 8AB9      		out 42-32,r24
 329               	.LM70:
 330 0120 8FE1      		ldi r24,lo8(31)
 331 0122 84B9      		out 36-32,r24
 332               	.LM71:
 333               	/* #APP */
 334               	 ;  264 "main.c" 1
 335 0124 7894      		sei
 336               	 ;  0 "" 2
 337               	/* #NOAPP */
 338               	.LBB13:
 339               	.LBB14:
 340               	.LM72:
 341 0126 8CE2      		ldi r24,lo8(44)
 342 0128 84B9      		out 36-32,r24
 343               	.LM73:
 344 012a 88E5      		ldi r24,lo8(88)
 345 012c 8CBD      		out 76-32,r24
 346               	.LBE14:
 347               	.LBE13:
 348               	.LBB15:
 349               	.LBB16:
 350               	.LM74:
 351 012e 1092 B000 		sts 176,__zero_reg__
 352               	.LM75:
 353 0132 1092 B100 		sts 177,__zero_reg__
 354               	.LM76:
 355 0136 8091 B100 		lds r24,177
 356 013a 8260      		ori r24,lo8(2)
 357 013c 8093 B100 		sts 177,r24
 358               	.LM77:
 359 0140 81E0      		ldi r24,lo8(1)
 360 0142 8093 7000 		sts 112,r24
 361               	.LBE16:
 362               	.LBE15:
 363               	.LBB17:
 364               	.LBB18:
 365               	.LM78:
 366 0146 1092 C500 		sts 197,__zero_reg__
 367               	.LM79:
 368 014a 83E3      		ldi r24,lo8(51)
 369 014c 8093 C400 		sts 196,r24
 370               	.LM80:
 371 0150 88E9      		ldi r24,lo8(-104)
 372 0152 8093 C100 		sts 193,r24
 373               	.LM81:
 374 0156 8EE0      		ldi r24,lo8(14)
 375 0158 8093 C200 		sts 194,r24
 376               	.LBE18:
 377               	.LBE17:
 378               	.LBB19:
 379               	.LBB20:
 380               	.LM82:
 381 015c 8091 7A00 		lds r24,122
 382 0160 8368      		ori r24,lo8(-125)
 383 0162 8093 7A00 		sts 122,r24
 384               	.LM83:
 385 0166 8091 7C00 		lds r24,124
 386 016a 8064      		ori r24,lo8(64)
 387 016c 8093 7C00 		sts 124,r24
 388               	.LBE20:
 389               	.LBE19:
 390               	.LM84:
 391 0170 8091 7A00 		lds r24,122
 392 0174 8064      		ori r24,lo8(64)
 393 0176 8093 7A00 		sts 122,r24
 394               	.LM85:
 395 017a 8091 7800 		lds r24,120
 396               	.LM86:
 397 017e 8091 7800 		lds r24,120
 398 0182 10E0      		ldi r17,lo8(0)
 399               	.L25:
 400               	.LBB21:
 401               	.LM87:
 402 0184 80E0      		ldi r24,lo8(0)
 403 0186 90E0      		ldi r25,hi8(0)
 404 0188 612F      		mov r22,r17
 405 018a 0E94 0000 		call setDAC
 406 018e 1F5F      		subi r17,lo8(-(1))
 407               	.LM88:
 408 0190 1830      		cpi r17,lo8(8)
 409 0192 01F4      		brne .L25
 410               	.LBE21:
 411               	.LM89:
 412 0194 5A98      		cbi 43-32,2
 413               	.LM90:
 414 0196 5A9A      		sbi 43-32,2
 415               	.LM91:
 416 0198 0E94 0000 		call separMult
 417               	.L26:
 418 019c 00C0      		rjmp .L26
 419               	.LFE16:
 421               	.global	__vector_9
 423               	__vector_9:
 424               	.LFB17:
 425               	.LM92:
 426 019e 1F92      		push __zero_reg__
 427 01a0 0F92      		push r0
 428 01a2 0FB6      		in r0,__SREG__
 429 01a4 0F92      		push r0
 430 01a6 1124      		clr __zero_reg__
 431 01a8 2F93      		push r18
 432 01aa 3F93      		push r19
 433 01ac 4F93      		push r20
 434 01ae 5F93      		push r21
 435 01b0 6F93      		push r22
 436 01b2 7F93      		push r23
 437 01b4 8F93      		push r24
 438 01b6 9F93      		push r25
 439 01b8 AF93      		push r26
 440 01ba BF93      		push r27
 441 01bc EF93      		push r30
 442 01be FF93      		push r31
 443               	/* prologue: Signal */
 444               	/* frame size = 0 */
 445               	.LM93:
 446 01c0 2091 0000 		lds r18,ctr
 447 01c4 3091 0000 		lds r19,(ctr)+1
 448 01c8 8091 0000 		lds r24,time_step
 449 01cc 9091 0000 		lds r25,(time_step)+1
 450 01d0 8217      		cp r24,r18
 451 01d2 9307      		cpc r25,r19
 452 01d4 04F0      		brlt .+2
 453 01d6 00C0      		rjmp .L31
 454               	.LM94:
 455 01d8 6091 0000 		lds r22,MD
 456 01dc 6623      		tst r22
 457 01de 01F0      		breq .+2
 458 01e0 00C0      		rjmp .L32
 459               	.LM95:
 460 01e2 2091 0000 		lds r18,event_cnt
 461 01e6 3091 0000 		lds r19,(event_cnt)+1
 462 01ea 2130      		cpi r18,1
 463 01ec 3105      		cpc r19,__zero_reg__
 464 01ee 01F4      		brne .L33
 465               	.LM96:
 466 01f0 9091 7800 		lds r25,120
 467 01f4 9093 0000 		sts ADCL_,r25
 468               	.LM97:
 469 01f8 8091 7900 		lds r24,121
 470 01fc 8093 0000 		sts ADCH_,r24
 471               	.LM98:
 472 0200 9093 C600 		sts 198,r25
 473 0204 00C0      		rjmp .L34
 474               	.L33:
 475               	.LM99:
 476 0206 2230      		cpi r18,2
 477 0208 3105      		cpc r19,__zero_reg__
 478 020a 01F4      		brne .L35
 479               	.LM100:
 480 020c 8091 0000 		lds r24,ADCH_
 481 0210 8093 C600 		sts 198,r24
 482 0214 00C0      		rjmp .L34
 483               	.L35:
 484               	.LM101:
 485 0216 2115      		cp r18,__zero_reg__
 486 0218 3105      		cpc r19,__zero_reg__
 487 021a 01F4      		brne .L34
 488               	.LM102:
 489 021c 8FEF      		ldi r24,lo8(-1)
 490 021e 8093 C600 		sts 198,r24
 491               	.LM103:
 492 0222 8091 0000 		lds r24,x16
 493 0226 9091 0000 		lds r25,(x16)+1
 494 022a 6091 0000 		lds r22,chan
 495 022e 0E94 0000 		call setDAC
 496               	.LM104:
 497 0232 8091 0000 		lds r24,x16
 498 0236 9091 0000 		lds r25,(x16)+1
 499 023a 00C0      		rjmp .L102
 500               	.L34:
 501               	.LM105:
 502 023c 8091 0000 		lds r24,t1
 503 0240 90E0      		ldi r25,lo8(0)
 504 0242 2817      		cp r18,r24
 505 0244 3907      		cpc r19,r25
 506 0246 01F4      		brne .+2
 507 0248 00C0      		rjmp .L112
 508               	.L37:
 509               	.LM106:
 510 024a 8091 0000 		lds r24,dT
 511 024e 90E0      		ldi r25,lo8(0)
 512 0250 2817      		cp r18,r24
 513 0252 3907      		cpc r19,r25
 514 0254 01F4      		brne .+2
 515 0256 00C0      		rjmp .L111
 516               	.L38:
 517               	.LM107:
 518 0258 0196      		adiw r24,1
 519 025a 2817      		cp r18,r24
 520 025c 3907      		cpc r19,r25
 521 025e 01F4      		brne .+2
 522 0260 00C0      		rjmp .L108
 523               	.L39:
 524               	.LM108:
 525 0262 8091 0000 		lds r24,dTt2
 526 0266 90E0      		ldi r25,lo8(0)
 527 0268 2817      		cp r18,r24
 528 026a 3907      		cpc r19,r25
 529 026c 01F0      		breq .+2
 530 026e 00C0      		rjmp .L36
 531               	.LM109:
 532 0270 8091 C000 		lds r24,192
 533 0274 85FF      		sbrs r24,5
 534 0276 00C0      		rjmp .L40
 535               	.LM110:
 536 0278 8091 0000 		lds r24,_adc
 537 027c 8093 C600 		sts 198,r24
 538               	.L40:
 539               	.LM111:
 540 0280 1092 0000 		sts (accum)+1,__zero_reg__
 541 0284 1092 0000 		sts accum,__zero_reg__
 542               	.LM112:
 543 0288 1092 0000 		sts ADC_on,__zero_reg__
 544               	.LM113:
 545 028c 1092 0000 		sts accum_cnt,__zero_reg__
 546               	.LM114:
 547 0290 80E0      		ldi r24,lo8(0)
 548 0292 90E0      		ldi r25,hi8(0)
 549 0294 6091 0000 		lds r22,chan
 550               	.L114:
 551 0298 0E94 0000 		call setDAC
 552               	.L115:
 553               	.LM115:
 554 029c 80E0      		ldi r24,lo8(0)
 555 029e 90E0      		ldi r25,hi8(0)
 556               	.L102:
 557 02a0 62E0      		ldi r22,lo8(2)
 558               	.L103:
 559 02a2 0E94 0000 		call setDAC
 560               	.LM116:
 561 02a6 5A98      		cbi 43-32,2
 562               	.LM117:
 563 02a8 5A9A      		sbi 43-32,2
 564 02aa 00C0      		rjmp .L36
 565               	.L32:
 566               	.LM118:
 567 02ac 6130      		cpi r22,lo8(1)
 568 02ae 01F0      		breq .+2
 569 02b0 00C0      		rjmp .L41
 570               	.LBB22:
 571               	.LM119:
 572 02b2 8091 0000 		lds r24,i.1497
 573 02b6 9091 0000 		lds r25,(i.1497)+1
 574 02ba 0196      		adiw r24,1
 575 02bc 9093 0000 		sts (i.1497)+1,r25
 576 02c0 8093 0000 		sts i.1497,r24
 577               	.LM120:
 578 02c4 8091 0000 		lds r24,UDP_cnt
 579 02c8 8130      		cpi r24,lo8(1)
 580 02ca 01F0      		breq .L44
 581 02cc 8130      		cpi r24,lo8(1)
 582 02ce 00F0      		brlo .L43
 583 02d0 8230      		cpi r24,lo8(2)
 584 02d2 01F0      		breq .L45
 585 02d4 8330      		cpi r24,lo8(3)
 586 02d6 01F0      		breq .+2
 587 02d8 00C0      		rjmp .L42
 588 02da 00C0      		rjmp .L116
 589               	.L43:
 590               	.LM121:
 591 02dc 8091 7A00 		lds r24,122
 592 02e0 8064      		ori r24,lo8(64)
 593 02e2 8093 7A00 		sts 122,r24
 594               	.LM122:
 595 02e6 8FEF      		ldi r24,lo8(-1)
 596 02e8 00C0      		rjmp .L100
 597               	.L44:
 598               	.LM123:
 599 02ea 8091 0000 		lds r24,ADCL_
 600 02ee 8093 0000 		sts ADCL__,r24
 601               	.LM124:
 602 02f2 8091 0000 		lds r24,ADCH_
 603 02f6 8093 0000 		sts ADCH__,r24
 604               	.LM125:
 605 02fa 9091 7800 		lds r25,120
 606 02fe 9093 0000 		sts ADCL_,r25
 607               	.LM126:
 608 0302 8091 7900 		lds r24,121
 609 0306 8093 0000 		sts ADCH_,r24
 610               	.LM127:
 611 030a 9093 C600 		sts 198,r25
 612 030e 00C0      		rjmp .L42
 613               	.L45:
 614               	.LM128:
 615 0310 8091 0000 		lds r24,ADCH_
 616               	.L100:
 617 0314 8093 C600 		sts 198,r24
 618 0318 00C0      		rjmp .L42
 619               	.L116:
 620               	.LM129:
 621 031a 2091 0000 		lds r18,VAC16
 622 031e 3091 0000 		lds r19,(VAC16)+1
 623 0322 3093 0000 		sts (VAC16_H)+1,r19
 624 0326 2093 0000 		sts VAC16_H,r18
 625               	.LM130:
 626 032a 8091 0000 		lds r24,pos_phase
 627 032e 8823      		tst r24
 628 0330 01F0      		breq .L47
 629               	.LM131:
 630 0332 205E      		subi r18,lo8(-(32))
 631 0334 3F4F      		sbci r19,hi8(-(32))
 632 0336 3093 0000 		sts (VAC16)+1,r19
 633 033a 2093 0000 		sts VAC16,r18
 634               	.LM132:
 635 033e 8091 0000 		lds r24,y16
 636 0342 9091 0000 		lds r25,(y16)+1
 637 0346 2817      		cp r18,r24
 638 0348 3907      		cpc r19,r25
 639 034a 04F0      		brlt .L48
 640               	.LM133:
 641 034c 1092 0000 		sts pos_phase,__zero_reg__
 642 0350 00C0      		rjmp .L48
 643               	.L47:
 644               	.LM134:
 645 0352 C901      		movw r24,r18
 646 0354 8097      		sbiw r24,32
 647 0356 9093 0000 		sts (VAC16)+1,r25
 648 035a 8093 0000 		sts VAC16,r24
 649               	.LM135:
 650 035e 21E0      		ldi r18,lo8(1)
 651 0360 30E0      		ldi r19,hi8(1)
 652 0362 4091 0000 		lds r20,x16
 653 0366 5091 0000 		lds r21,(x16)+1
 654 036a 241B      		sub r18,r20
 655 036c 350B      		sbc r19,r21
 656 036e 8217      		cp r24,r18
 657 0370 9307      		cpc r25,r19
 658 0372 04F4      		brge .L48
 659               	.LM136:
 660 0374 6093 0000 		sts pos_phase,r22
 661               	.L48:
 662               	.LM137:
 663 0378 8091 0000 		lds r24,VAC16
 664 037c 9091 0000 		lds r25,(VAC16)+1
 665 0380 9C01      		movw r18,r24
 666 0382 A4E0      		ldi r26,4
 667 0384 3595      	1:	asr r19
 668 0386 2795      		ror r18
 669 0388 AA95      		dec r26
 670 038a 01F4      		brne 1b
 671 038c 2093 C600 		sts 198,r18
 672               	.LM138:
 673 0390 6091 0000 		lds r22,chan
 674 0394 0E94 0000 		call setDAC
 675               	.LM139:
 676 0398 5A98      		cbi 43-32,2
 677               	.LM140:
 678 039a 5A9A      		sbi 43-32,2
 679               	.L42:
 680               	.LM141:
 681 039c 8091 0000 		lds r24,UDP_cnt
 682 03a0 8F5F      		subi r24,lo8(-(1))
 683 03a2 8370      		andi r24,lo8(3)
 684 03a4 8093 0000 		sts UDP_cnt,r24
 685 03a8 00C0      		rjmp .L36
 686               	.L41:
 687               	.LBE22:
 688               	.LM142:
 689 03aa 6230      		cpi r22,lo8(2)
 690 03ac 01F0      		breq .+2
 691 03ae 00C0      		rjmp .L49
 692               	.LBB23:
 693               	.LM143:
 694 03b0 80E1      		ldi r24,lo8(16)
 695 03b2 8093 0000 		sts T,r24
 696               	.LM144:
 697 03b6 4091 0000 		lds r20,event_cnt
 698 03ba 5091 0000 		lds r21,(event_cnt)+1
 699 03be 4130      		cpi r20,1
 700 03c0 5105      		cpc r21,__zero_reg__
 701 03c2 01F4      		brne .L50
 702               	.LM145:
 703 03c4 8091 0000 		lds r24,PROGRAM_done
 704 03c8 8093 C600 		sts 198,r24
 705 03cc 00C0      		rjmp .L51
 706               	.L50:
 707               	.LM146:
 708 03ce 4230      		cpi r20,2
 709 03d0 5105      		cpc r21,__zero_reg__
 710 03d2 01F4      		brne .L52
 711               	.LM147:
 712 03d4 9091 7800 		lds r25,120
 713 03d8 9093 0000 		sts ADCL_,r25
 714               	.LM148:
 715 03dc 8091 7900 		lds r24,121
 716 03e0 8093 0000 		sts ADCH_,r24
 717               	.LM149:
 718 03e4 9093 C600 		sts 198,r25
 719 03e8 00C0      		rjmp .L53
 720               	.L52:
 721               	.LM150:
 722 03ea 4330      		cpi r20,3
 723 03ec 5105      		cpc r21,__zero_reg__
 724 03ee 01F4      		brne .L54
 725               	.LM151:
 726 03f0 8091 0000 		lds r24,ADCH_
 727 03f4 8093 C600 		sts 198,r24
 728               	.LM152:
 729 03f8 382F      		mov r19,r24
 730 03fa 20E0      		ldi r18,lo8(0)
 731 03fc 8091 0000 		lds r24,ADCL_
 732 0400 90E0      		ldi r25,lo8(0)
 733 0402 822B      		or r24,r18
 734 0404 932B      		or r25,r19
 735 0406 9093 0000 		sts (_adc)+1,r25
 736 040a 8093 0000 		sts _adc,r24
 737               	.LM153:
 738 040e 20E0      		ldi r18,lo8(512)
 739 0410 32E0      		ldi r19,hi8(512)
 740 0412 281B      		sub r18,r24
 741 0414 390B      		sbc r19,r25
 742 0416 3093 0000 		sts (adc_h.1503)+1,r19
 743 041a 2093 0000 		sts adc_h.1503,r18
 744               	.LM154:
 745 041e 8091 0000 		lds r24,t1
 746 0422 90E0      		ldi r25,lo8(0)
 747 0424 2817      		cp r18,r24
 748 0426 3907      		cpc r19,r25
 749 0428 01F0      		breq .+2
 750 042a 00C0      		rjmp .L51
 751               	.LM155:
 752 042c 81E0      		ldi r24,lo8(1)
 753 042e 8093 0000 		sts PROGRAM_done,r24
 754               	.LM156:
 755 0432 1092 0000 		sts (prog_val)+1,__zero_reg__
 756 0436 1092 0000 		sts prog_val,__zero_reg__
 757 043a 00C0      		rjmp .L55
 758               	.L54:
 759               	.LM157:
 760 043c 4115      		cp r20,__zero_reg__
 761 043e 5105      		cpc r21,__zero_reg__
 762 0440 01F4      		brne .L51
 763               	.LM158:
 764 0442 8FEF      		ldi r24,lo8(-1)
 765 0444 8093 C600 		sts 198,r24
 766               	.LM159:
 767 0448 2091 0000 		lds r18,prog_val
 768 044c 3091 0000 		lds r19,(prog_val)+1
 769 0450 205E      		subi r18,lo8(-(32))
 770 0452 3F4F      		sbci r19,hi8(-(32))
 771 0454 3093 0000 		sts (prog_val)+1,r19
 772 0458 2093 0000 		sts prog_val,r18
 773               	.LM160:
 774 045c 4091 0000 		lds r20,x16
 775 0460 5091 0000 		lds r21,(x16)+1
 776 0464 80E2      		ldi r24,lo8(32)
 777 0466 90E0      		ldi r25,hi8(32)
 778 0468 841B      		sub r24,r20
 779 046a 950B      		sbc r25,r21
 780 046c 2817      		cp r18,r24
 781 046e 3907      		cpc r19,r25
 782 0470 01F4      		brne .L56
 783               	.LM161:
 784 0472 1092 0000 		sts (prog_val)+1,__zero_reg__
 785 0476 1092 0000 		sts prog_val,__zero_reg__
 786 047a 00C0      		rjmp .L57
 787               	.L56:
 788               	.LM162:
 789 047c 8091 0000 		lds r24,t2
 790 0480 90E0      		ldi r25,lo8(0)
 791 0482 F4E0      		ldi r31,4
 792 0484 880F      	1:	lsl r24
 793 0486 991F      		rol r25
 794 0488 FA95      		dec r31
 795 048a 01F4      		brne 1b
 796 048c 8217      		cp r24,r18
 797 048e 9307      		cpc r25,r19
 798 0490 04F4      		brge .L57
 799               	.LM163:
 800 0492 8827      		clr r24
 801 0494 9927      		clr r25
 802 0496 841B      		sub r24,r20
 803 0498 950B      		sbc r25,r21
 804 049a 9093 0000 		sts (prog_val)+1,r25
 805 049e 8093 0000 		sts prog_val,r24
 806               	.L57:
 807               	.LM164:
 808 04a2 8091 0000 		lds r24,PROGRAM_done
 809 04a6 8823      		tst r24
 810 04a8 01F0      		breq .L58
 811               	.LM165:
 812 04aa 1092 0000 		sts (prog_val)+1,__zero_reg__
 813 04ae 1092 0000 		sts prog_val,__zero_reg__
 814               	.L58:
 815               	.LM166:
 816 04b2 8091 0000 		lds r24,prog_val
 817 04b6 9091 0000 		lds r25,(prog_val)+1
 818 04ba 00C0      		rjmp .L109
 819               	.L51:
 820               	.LM167:
 821 04bc 4730      		cpi r20,7
 822 04be 5105      		cpc r21,__zero_reg__
 823 04c0 01F0      		breq .L112
 824               	.L53:
 825               	.LM168:
 826 04c2 4930      		cpi r20,9
 827 04c4 5105      		cpc r21,__zero_reg__
 828 04c6 01F4      		brne .L55
 829               	.L111:
 830               	.LM169:
 831 04c8 8091 0000 		lds r24,y16
 832 04cc 9091 0000 		lds r25,(y16)+1
 833 04d0 00C0      		rjmp .L109
 834               	.L55:
 835               	.LM170:
 836 04d2 4A30      		cpi r20,10
 837 04d4 5105      		cpc r21,__zero_reg__
 838 04d6 01F4      		brne .+2
 839 04d8 00C0      		rjmp .L108
 840               	.L59:
 841               	.LM171:
 842 04da 4E30      		cpi r20,14
 843 04dc 5105      		cpc r21,__zero_reg__
 844 04de 01F0      		breq .+2
 845 04e0 00C0      		rjmp .L36
 846               	.LM172:
 847 04e2 1092 0000 		sts (accum)+1,__zero_reg__
 848 04e6 1092 0000 		sts accum,__zero_reg__
 849               	.LM173:
 850 04ea 1092 0000 		sts ADC_on,__zero_reg__
 851               	.LM174:
 852 04ee 1092 0000 		sts accum_cnt,__zero_reg__
 853               	.L112:
 854               	.LM175:
 855 04f2 80E0      		ldi r24,lo8(0)
 856 04f4 90E0      		ldi r25,hi8(0)
 857               	.L109:
 858 04f6 6091 0000 		lds r22,chan
 859 04fa 00C0      		rjmp .L103
 860               	.L49:
 861               	.LBE23:
 862               	.LM176:
 863 04fc 6530      		cpi r22,lo8(5)
 864 04fe 01F0      		breq .+2
 865 0500 00C0      		rjmp .L60
 866               	.LM177:
 867 0502 8091 0000 		lds r24,event_cnt
 868 0506 9091 0000 		lds r25,(event_cnt)+1
 869 050a 0097      		sbiw r24,0
 870 050c 01F0      		breq .L104
 871               	.L61:
 872               	.LM178:
 873 050e 8130      		cpi r24,1
 874 0510 9105      		cpc r25,__zero_reg__
 875 0512 01F4      		brne .L62
 876               	.LM179:
 877 0514 80E8      		ldi r24,lo8(1920)
 878 0516 97E0      		ldi r25,hi8(1920)
 879 0518 63E0      		ldi r22,lo8(3)
 880 051a 0E94 0000 		call setDAC
 881               	.LM180:
 882 051e 80E8      		ldi r24,lo8(1920)
 883 0520 97E0      		ldi r25,hi8(1920)
 884 0522 00C0      		rjmp .L102
 885               	.L62:
 886               	.LM181:
 887 0524 8230      		cpi r24,2
 888 0526 9105      		cpc r25,__zero_reg__
 889 0528 01F4      		brne .L63
 890               	.LM182:
 891 052a 80E0      		ldi r24,lo8(0)
 892 052c 90E0      		ldi r25,hi8(0)
 893 052e 63E0      		ldi r22,lo8(3)
 894 0530 00C0      		rjmp .L114
 895               	.L63:
 896               	.LM183:
 897 0532 8330      		cpi r24,3
 898 0534 9105      		cpc r25,__zero_reg__
 899 0536 01F4      		brne .L64
 900               	.LM184:
 901 0538 0E94 0000 		call gatherMult
 902 053c 00C0      		rjmp .L36
 903               	.L64:
 904               	.LM185:
 905 053e 8430      		cpi r24,4
 906 0540 9105      		cpc r25,__zero_reg__
 907 0542 01F4      		brne .L65
 908               	.LM186:
 909 0544 8091 0000 		lds r24,x16
 910 0548 9091 0000 		lds r25,(x16)+1
 911 054c 00C0      		rjmp .L110
 912               	.L65:
 913               	.LM187:
 914 054e 8530      		cpi r24,5
 915 0550 9105      		cpc r25,__zero_reg__
 916 0552 01F0      		breq .L113
 917               	.L66:
 918               	.LM188:
 919 0554 8630      		cpi r24,6
 920 0556 9105      		cpc r25,__zero_reg__
 921 0558 01F4      		brne .L67
 922               	.LM189:
 923 055a 8FEF      		ldi r24,lo8(-1)
 924 055c 8093 C600 		sts 198,r24
 925               	.L104:
 926               	.LM190:
 927 0560 0E94 0000 		call separMult
 928 0564 00C0      		rjmp .L36
 929               	.L67:
 930               	.LM191:
 931 0566 8730      		cpi r24,7
 932 0568 9105      		cpc r25,__zero_reg__
 933 056a 01F4      		brne .L68
 934               	.LM192:
 935 056c 8091 0000 		lds r24,y16
 936 0570 9091 0000 		lds r25,(y16)+1
 937 0574 63E0      		ldi r22,lo8(3)
 938 0576 00C0      		rjmp .L105
 939               	.L68:
 940               	.LM193:
 941 0578 8930      		cpi r24,9
 942 057a 9105      		cpc r25,__zero_reg__
 943 057c 01F4      		brne .+2
 944 057e 00C0      		rjmp .L106
 945               	.L69:
 946               	.LM194:
 947 0580 8A30      		cpi r24,10
 948 0582 9105      		cpc r25,__zero_reg__
 949 0584 01F4      		brne .L70
 950               	.LM195:
 951 0586 8091 0000 		lds r24,ADCH_
 952 058a 8093 C600 		sts 198,r24
 953               	.L113:
 954               	.LM196:
 955 058e 80E0      		ldi r24,lo8(0)
 956 0590 90E0      		ldi r25,hi8(0)
 957               	.L110:
 958 0592 63E0      		ldi r22,lo8(3)
 959 0594 00C0      		rjmp .L103
 960               	.L70:
 961               	.LM197:
 962 0596 8B30      		cpi r24,11
 963 0598 9105      		cpc r25,__zero_reg__
 964 059a 01F4      		brne .L71
 965               	.LM198:
 966 059c 8091 0000 		lds r24,y16
 967 05a0 9091 0000 		lds r25,(y16)+1
 968 05a4 62E0      		ldi r22,lo8(2)
 969 05a6 00C0      		rjmp .L105
 970               	.L71:
 971               	.LM199:
 972 05a8 8D30      		cpi r24,13
 973 05aa 9105      		cpc r25,__zero_reg__
 974 05ac 01F4      		brne .+2
 975 05ae 00C0      		rjmp .L106
 976               	.L72:
 977               	.LM200:
 978 05b0 0E97      		sbiw r24,14
 979 05b2 01F0      		breq .+2
 980 05b4 00C0      		rjmp .L36
 981               	.LM201:
 982 05b6 8091 0000 		lds r24,ADCH_
 983 05ba 8093 C600 		sts 198,r24
 984 05be 00C0      		rjmp .L115
 985               	.L60:
 986               	.LM202:
 987 05c0 6630      		cpi r22,lo8(6)
 988 05c2 01F0      		breq .+2
 989 05c4 00C0      		rjmp .L36
 990               	.LM203:
 991 05c6 8091 0000 		lds r24,event_cnt
 992 05ca 9091 0000 		lds r25,(event_cnt)+1
 993 05ce 0097      		sbiw r24,0
 994 05d0 01F4      		brne .L73
 995               	.LM204:
 996 05d2 8091 0000 		lds r24,z16
 997 05d6 9091 0000 		lds r25,(z16)+1
 998 05da 6091 0000 		lds r22,chan
 999 05de 0E94 0000 		call setDAC
 1000               	.LM205:
 1001 05e2 5A98      		cbi 43-32,2
 1002               	.LM206:
 1003 05e4 5A9A      		sbi 43-32,2
 1004               	.LM207:
 1005 05e6 8FEF      		ldi r24,lo8(-1)
 1006 05e8 00C0      		rjmp .L107
 1007               	.L73:
 1008               	.LM208:
 1009 05ea 8130      		cpi r24,1
 1010 05ec 9105      		cpc r25,__zero_reg__
 1011 05ee 01F4      		brne .+2
 1012 05f0 00C0      		rjmp .L112
 1013               	.L74:
 1014               	.LM209:
 1015 05f2 8330      		cpi r24,3
 1016 05f4 9105      		cpc r25,__zero_reg__
 1017 05f6 01F0      		breq .+2
 1018 05f8 00C0      		rjmp .L75
 1019               	.LM210:
 1020 05fa 4091 0000 		lds r20,an_cnt
 1021 05fe 5091 0000 		lds r21,(an_cnt)+1
 1022 0602 2091 0000 		lds r18,BIG_STAT_N
 1023 0606 822F      		mov r24,r18
 1024 0608 90E0      		ldi r25,lo8(0)
 1025 060a 4817      		cp r20,r24
 1026 060c 5907      		cpc r21,r25
 1027 060e 00F4      		brsh .L76
 1028               	.LM211:
 1029 0610 1092 0000 		sts STAT_V_step,__zero_reg__
 1030 0614 00C0      		rjmp .L77
 1031               	.L76:
 1032               	.LM212:
 1033 0616 822F      		mov r24,r18
 1034 0618 90E0      		ldi r25,lo8(0)
 1035 061a 9C01      		movw r18,r24
 1036 061c 220F      		lsl r18
 1037 061e 331F      		rol r19
 1038 0620 4217      		cp r20,r18
 1039 0622 5307      		cpc r21,r19
 1040 0624 00F4      		brsh .L78
 1041               	.LM213:
 1042 0626 81E0      		ldi r24,lo8(1)
 1043 0628 00C0      		rjmp .L101
 1044               	.L78:
 1045               	.LM214:
 1046 062a 280F      		add r18,r24
 1047 062c 391F      		adc r19,r25
 1048 062e 4217      		cp r20,r18
 1049 0630 5307      		cpc r21,r19
 1050 0632 00F4      		brsh .L79
 1051               	.LM215:
 1052 0634 82E0      		ldi r24,lo8(2)
 1053 0636 00C0      		rjmp .L101
 1054               	.L79:
 1055               	.LM216:
 1056 0638 9C01      		movw r18,r24
 1057 063a 220F      		lsl r18
 1058 063c 331F      		rol r19
 1059 063e 220F      		lsl r18
 1060 0640 331F      		rol r19
 1061 0642 4217      		cp r20,r18
 1062 0644 5307      		cpc r21,r19
 1063 0646 00F4      		brsh .L80
 1064               	.LM217:
 1065 0648 83E0      		ldi r24,lo8(3)
 1066 064a 00C0      		rjmp .L101
 1067               	.L80:
 1068               	.LM218:
 1069 064c 280F      		add r18,r24
 1070 064e 391F      		adc r19,r25
 1071 0650 4217      		cp r20,r18
 1072 0652 5307      		cpc r21,r19
 1073 0654 00F4      		brsh .L77
 1074               	.LM219:
 1075 0656 84E0      		ldi r24,lo8(4)
 1076               	.L101:
 1077 0658 8093 0000 		sts STAT_V_step,r24
 1078               	.L77:
 1079               	.LM220:
 1080 065c 2091 0000 		lds r18,STAT_V_step
 1081 0660 2093 C600 		sts 198,r18
 1082               	.LM221:
 1083 0664 30E0      		ldi r19,lo8(0)
 1084 0666 2095      		com r18
 1085 0668 3095      		com r19
 1086 066a 80E0      		ldi r24,lo8(0)
 1087 066c 8093 0000 		sts x16_grad,r24
 1088 0670 2093 0000 		sts x16_grad+1,r18
 1089               	.LM222:
 1090 0674 922F      		mov r25,r18
 1091 0676 6091 0000 		lds r22,chan
 1092 067a 0E94 0000 		call setDAC
 1093               	.LM223:
 1094 067e 5A98      		cbi 43-32,2
 1095               	.LM224:
 1096 0680 5A9A      		sbi 43-32,2
 1097               	.LM225:
 1098 0682 4091 0000 		lds r20,an_cnt_fast
 1099 0686 5091 0000 		lds r21,(an_cnt_fast)+1
 1100 068a 8091 0000 		lds r24,STAT_N
 1101 068e 90E0      		ldi r25,lo8(0)
 1102 0690 4817      		cp r20,r24
 1103 0692 5907      		cpc r21,r25
 1104 0694 00F4      		brsh .L81
 1105               	.LM226:
 1106 0696 1092 0000 		sts STAT_dt_step,__zero_reg__
 1107 069a 00C0      		rjmp .L82
 1108               	.L81:
 1109               	.LM227:
 1110 069c 9C01      		movw r18,r24
 1111 069e 220F      		lsl r18
 1112 06a0 331F      		rol r19
 1113 06a2 4217      		cp r20,r18
 1114 06a4 5307      		cpc r21,r19
 1115 06a6 00F4      		brsh .L83
 1116               	.LM228:
 1117 06a8 81E0      		ldi r24,lo8(1)
 1118 06aa 8093 0000 		sts STAT_dt_step,r24
 1119 06ae 80E0      		ldi r24,lo8(0)
 1120 06b0 90E0      		ldi r25,hi8(0)
 1121               	.LVL15:
 1122               	.L84:
 1123               	.LBB24:
 1124               	.LM229:
 1125 06b2 5A98      		cbi 43-32,2
 1126               	.LM230:
 1127 06b4 5A9A      		sbi 43-32,2
 1128               	.LM231:
 1129 06b6 0196      		adiw r24,1
 1130 06b8 8832      		cpi r24,40
 1131 06ba 9105      		cpc r25,__zero_reg__
 1132 06bc 01F4      		brne .L84
 1133 06be 00C0      		rjmp .L82
 1134               	.LVL16:
 1135               	.L83:
 1136               	.LBE24:
 1137               	.LM232:
 1138 06c0 280F      		add r18,r24
 1139 06c2 391F      		adc r19,r25
 1140 06c4 4217      		cp r20,r18
 1141 06c6 5307      		cpc r21,r19
 1142 06c8 00F4      		brsh .L85
 1143               	.LM233:
 1144 06ca 82E0      		ldi r24,lo8(2)
 1145 06cc 8093 0000 		sts STAT_dt_step,r24
 1146 06d0 80E0      		ldi r24,lo8(0)
 1147 06d2 90E0      		ldi r25,hi8(0)
 1148               	.LVL17:
 1149               	.L86:
 1150               	.LBB25:
 1151               	.LM234:
 1152 06d4 5A98      		cbi 43-32,2
 1153               	.LM235:
 1154 06d6 5A9A      		sbi 43-32,2
 1155               	.LM236:
 1156 06d8 0196      		adiw r24,1
 1157 06da 803A      		cpi r24,160
 1158 06dc 9105      		cpc r25,__zero_reg__
 1159 06de 01F4      		brne .L86
 1160 06e0 00C0      		rjmp .L82
 1161               	.LVL18:
 1162               	.L85:
 1163               	.LBE25:
 1164               	.LM237:
 1165 06e2 880F      		lsl r24
 1166 06e4 991F      		rol r25
 1167 06e6 880F      		lsl r24
 1168 06e8 991F      		rol r25
 1169 06ea 4817      		cp r20,r24
 1170 06ec 5907      		cpc r21,r25
 1171 06ee 00F4      		brsh .L87
 1172               	.LM238:
 1173 06f0 83E0      		ldi r24,lo8(3)
 1174 06f2 8093 0000 		sts STAT_dt_step,r24
 1175 06f6 80E0      		ldi r24,lo8(0)
 1176 06f8 90E0      		ldi r25,hi8(0)
 1177               	.LVL19:
 1178               	.L88:
 1179               	.LBB26:
 1180               	.LM239:
 1181 06fa 5A98      		cbi 43-32,2
 1182               	.LM240:
 1183 06fc 5A9A      		sbi 43-32,2
 1184               	.LM241:
 1185 06fe 0196      		adiw r24,1
 1186 0700 22E0      		ldi r18,hi8(640)
 1187 0702 8038      		cpi r24,lo8(640)
 1188 0704 9207      		cpc r25,r18
 1189 0706 01F4      		brne .L88
 1190 0708 00C0      		rjmp .L82
 1191               	.LVL20:
 1192               	.L87:
 1193               	.LBE26:
 1194               	.LM242:
 1195 070a 8091 0000 		lds r24,BIG_STAT_N
 1196 070e 90E0      		ldi r25,lo8(0)
 1197 0710 4817      		cp r20,r24
 1198 0712 5907      		cpc r21,r25
 1199 0714 00F4      		brsh .L82
 1200               	.LM243:
 1201 0716 84E0      		ldi r24,lo8(4)
 1202 0718 8093 0000 		sts STAT_dt_step,r24
 1203 071c 80E0      		ldi r24,lo8(0)
 1204 071e 90E0      		ldi r25,hi8(0)
 1205               	.LVL21:
 1206               	.L89:
 1207               	.LBB27:
 1208               	.LM244:
 1209 0720 5A98      		cbi 43-32,2
 1210               	.LM245:
 1211 0722 5A9A      		sbi 43-32,2
 1212               	.LM246:
 1213 0724 0196      		adiw r24,1
 1214 0726 2AE0      		ldi r18,hi8(2560)
 1215 0728 8030      		cpi r24,lo8(2560)
 1216 072a 9207      		cpc r25,r18
 1217 072c 01F4      		brne .L89
 1218               	.LVL22:
 1219               	.L82:
 1220               	.LBE27:
 1221               	.LM247:
 1222 072e 8091 0000 		lds r24,chan
 1223               	.LVL23:
 1224 0732 0E94 0000 		call resetDAC
 1225               	.LM248:
 1226 0736 5A98      		cbi 43-32,2
 1227               	.LM249:
 1228 0738 5A9A      		sbi 43-32,2
 1229               	.LM250:
 1230 073a 8091 0000 		lds r24,an_cnt
 1231 073e 9091 0000 		lds r25,(an_cnt)+1
 1232 0742 0196      		adiw r24,1
 1233 0744 9093 0000 		sts (an_cnt)+1,r25
 1234 0748 8093 0000 		sts an_cnt,r24
 1235               	.LM251:
 1236 074c 2091 0000 		lds r18,BIG_STAT_N
 1237 0750 45E0      		ldi r20,lo8(5)
 1238 0752 249F      		mul r18,r20
 1239 0754 9001      		movw r18,r0
 1240 0756 1124      		clr r1
 1241 0758 2817      		cp r18,r24
 1242 075a 3907      		cpc r19,r25
 1243 075c 00F4      		brsh .L90
 1244 075e 1092 0000 		sts (an_cnt)+1,__zero_reg__
 1245 0762 1092 0000 		sts an_cnt,__zero_reg__
 1246               	.L90:
 1247               	.LM252:
 1248 0766 6091 0000 		lds r22,BIG_STAT_N
 1249 076a 8091 0000 		lds r24,an_cnt
 1250 076e 9091 0000 		lds r25,(an_cnt)+1
 1251 0772 70E0      		ldi r23,lo8(0)
 1252 0774 0E94 0000 		call __udivmodhi4
 1253 0778 9093 0000 		sts (an_cnt_fast)+1,r25
 1254 077c 8093 0000 		sts an_cnt_fast,r24
 1255 0780 00C0      		rjmp .L36
 1256               	.L75:
 1257               	.LM253:
 1258 0782 8430      		cpi r24,4
 1259 0784 9105      		cpc r25,__zero_reg__
 1260 0786 01F4      		brne .L91
 1261               	.LM254:
 1262 0788 8091 0000 		lds r24,STAT_dt_step
 1263 078c 8093 C600 		sts 198,r24
 1264 0790 00C0      		rjmp .L112
 1265               	.L91:
 1266               	.LM255:
 1267 0792 8630      		cpi r24,6
 1268 0794 9105      		cpc r25,__zero_reg__
 1269 0796 01F4      		brne .L92
 1270               	.LM256:
 1271 0798 8091 0000 		lds r24,y16
 1272 079c 9091 0000 		lds r25,(y16)+1
 1273 07a0 6091 0000 		lds r22,chan
 1274               	.L105:
 1275 07a4 0E94 0000 		call setDAC
 1276               	.LM257:
 1277 07a8 5A98      		cbi 43-32,2
 1278               	.LM258:
 1279 07aa 5A9A      		sbi 43-32,2
 1280               	.L108:
 1281               	.LM259:
 1282 07ac 8091 7A00 		lds r24,122
 1283 07b0 8064      		ori r24,lo8(64)
 1284 07b2 8093 7A00 		sts 122,r24
 1285 07b6 00C0      		rjmp .L36
 1286               	.L92:
 1287               	.LM260:
 1288 07b8 8730      		cpi r24,7
 1289 07ba 9105      		cpc r25,__zero_reg__
 1290 07bc 01F4      		brne .L93
 1291               	.LM261:
 1292 07be 80E0      		ldi r24,lo8(0)
 1293 07c0 90E0      		ldi r25,hi8(0)
 1294 07c2 6091 0000 		lds r22,chan
 1295 07c6 0E94 0000 		call setDAC
 1296               	.LM262:
 1297 07ca 5A98      		cbi 43-32,2
 1298               	.LM263:
 1299 07cc 5A9A      		sbi 43-32,2
 1300               	.L106:
 1301               	.LM264:
 1302 07ce 9091 7800 		lds r25,120
 1303 07d2 9093 0000 		sts ADCL_,r25
 1304               	.LM265:
 1305 07d6 8091 7900 		lds r24,121
 1306 07da 8093 0000 		sts ADCH_,r24
 1307               	.LM266:
 1308 07de 9093 C600 		sts 198,r25
 1309 07e2 00C0      		rjmp .L36
 1310               	.L93:
 1311               	.LM267:
 1312 07e4 0897      		sbiw r24,8
 1313 07e6 01F4      		brne .L36
 1314               	.LM268:
 1315 07e8 8091 0000 		lds r24,ADCH_
 1316               	.L107:
 1317 07ec 8093 C600 		sts 198,r24
 1318               	.L36:
 1319               	.LM269:
 1320 07f0 1092 0000 		sts (ctr)+1,__zero_reg__
 1321 07f4 1092 0000 		sts ctr,__zero_reg__
 1322               	.LM270:
 1323 07f8 8091 0000 		lds r24,MD
 1324 07fc 2091 0000 		lds r18,event_cnt
 1325 0800 3091 0000 		lds r19,(event_cnt)+1
 1326 0804 8530      		cpi r24,lo8(5)
 1327 0806 01F0      		breq .L94
 1328               	.LM271:
 1329 0808 2F5F      		subi r18,lo8(-(1))
 1330 080a 3F4F      		sbci r19,hi8(-(1))
 1331 080c 3093 0000 		sts (event_cnt)+1,r19
 1332 0810 2093 0000 		sts event_cnt,r18
 1333               	.LM272:
 1334 0814 8091 0000 		lds r24,T
 1335 0818 90E0      		ldi r25,lo8(0)
 1336 081a 8217      		cp r24,r18
 1337 081c 9307      		cpc r25,r19
 1338 081e 04F4      		brge .L31
 1339               	.LM273:
 1340 0820 1092 0000 		sts (event_cnt)+1,__zero_reg__
 1341 0824 1092 0000 		sts event_cnt,__zero_reg__
 1342 0828 00C0      		rjmp .L31
 1343               	.L94:
 1344               	.LM274:
 1345 082a 2E31      		cpi r18,30
 1346 082c 3105      		cpc r19,__zero_reg__
 1347 082e 04F4      		brge .L31
 1348               	.LM275:
 1349 0830 2F5F      		subi r18,lo8(-(1))
 1350 0832 3F4F      		sbci r19,hi8(-(1))
 1351 0834 3093 0000 		sts (event_cnt)+1,r19
 1352 0838 2093 0000 		sts event_cnt,r18
 1353               	.L31:
 1354               	.LM276:
 1355 083c 8091 0000 		lds r24,ctr
 1356 0840 9091 0000 		lds r25,(ctr)+1
 1357 0844 0196      		adiw r24,1
 1358 0846 9093 0000 		sts (ctr)+1,r25
 1359 084a 8093 0000 		sts ctr,r24
 1360               	/* epilogue start */
 1361               	.LM277:
 1362 084e FF91      		pop r31
 1363 0850 EF91      		pop r30
 1364 0852 BF91      		pop r27
 1365 0854 AF91      		pop r26
 1366 0856 9F91      		pop r25
 1367 0858 8F91      		pop r24
 1368 085a 7F91      		pop r23
 1369 085c 6F91      		pop r22
 1370 085e 5F91      		pop r21
 1371 0860 4F91      		pop r20
 1372 0862 3F91      		pop r19
 1373 0864 2F91      		pop r18
 1374 0866 0F90      		pop r0
 1375 0868 0FBE      		out __SREG__,r0
 1376 086a 0F90      		pop r0
 1377 086c 1F90      		pop __zero_reg__
 1378 086e 1895      		reti
 1379               	.LFE17:
 1381               	.global	__vector_18
 1383               	__vector_18:
 1384               	.LFB18:
 1385               	.LM278:
 1386 0870 1F92      		push __zero_reg__
 1387 0872 0F92      		push r0
 1388 0874 0FB6      		in r0,__SREG__
 1389 0876 0F92      		push r0
 1390 0878 1124      		clr __zero_reg__
 1391 087a 2F93      		push r18
 1392 087c 3F93      		push r19
 1393 087e 4F93      		push r20
 1394 0880 5F93      		push r21
 1395 0882 6F93      		push r22
 1396 0884 7F93      		push r23
 1397 0886 8F93      		push r24
 1398 0888 9F93      		push r25
 1399 088a AF93      		push r26
 1400 088c BF93      		push r27
 1401 088e EF93      		push r30
 1402 0890 FF93      		push r31
 1403               	/* prologue: Signal */
 1404               	/* frame size = 0 */
 1405               	.LM279:
 1406 0892 8091 0000 		lds r24,ptr
 1407 0896 8430      		cpi r24,lo8(4)
 1408 0898 01F4      		brne .+2
 1409 089a 00C0      		rjmp .L123
 1410 089c 8530      		cpi r24,lo8(5)
 1411 089e 00F4      		brsh .L129
 1412 08a0 8130      		cpi r24,lo8(1)
 1413 08a2 01F0      		breq .L120
 1414 08a4 8130      		cpi r24,lo8(1)
 1415 08a6 00F0      		brlo .L119
 1416 08a8 8230      		cpi r24,lo8(2)
 1417 08aa 01F4      		brne .+2
 1418 08ac 00C0      		rjmp .L121
 1419 08ae 8330      		cpi r24,lo8(3)
 1420 08b0 01F0      		breq .+2
 1421 08b2 00C0      		rjmp .L118
 1422 08b4 00C0      		rjmp .L135
 1423               	.L129:
 1424 08b6 8730      		cpi r24,lo8(7)
 1425 08b8 01F4      		brne .+2
 1426 08ba 00C0      		rjmp .L126
 1427 08bc 8830      		cpi r24,lo8(8)
 1428 08be 00F4      		brsh .L130
 1429 08c0 8530      		cpi r24,lo8(5)
 1430 08c2 01F4      		brne .+2
 1431 08c4 00C0      		rjmp .L124
 1432 08c6 8630      		cpi r24,lo8(6)
 1433 08c8 01F0      		breq .+2
 1434 08ca 00C0      		rjmp .L118
 1435 08cc 00C0      		rjmp .L136
 1436               	.L130:
 1437 08ce 8830      		cpi r24,lo8(8)
 1438 08d0 01F4      		brne .+2
 1439 08d2 00C0      		rjmp .L127
 1440 08d4 8930      		cpi r24,lo8(9)
 1441 08d6 01F0      		breq .+2
 1442 08d8 00C0      		rjmp .L118
 1443 08da 00C0      		rjmp .L137
 1444               	.L119:
 1445               	.LM280:
 1446 08dc 8091 C600 		lds r24,198
 1447 08e0 8F3F      		cpi r24,lo8(-1)
 1448 08e2 01F0      		breq .L131
 1449               	.LM281:
 1450 08e4 1092 0000 		sts sync,__zero_reg__
 1451               	.LM282:
 1452 08e8 83E0      		ldi r24,lo8(3)
 1453 08ea 8093 0000 		sts ptr,r24
 1454 08ee 00C0      		rjmp .L118
 1455               	.L131:
 1456               	.LM283:
 1457 08f0 81E0      		ldi r24,lo8(1)
 1458 08f2 8093 0000 		sts sync,r24
 1459 08f6 00C0      		rjmp .L118
 1460               	.L120:
 1461               	.LM284:
 1462 08f8 2091 C600 		lds r18,198
 1463 08fc 2093 0000 		sts MD,r18
 1464               	.LM285:
 1465 0900 2130      		cpi r18,lo8(1)
 1466 0902 01F4      		brne .L132
 1467               	.LM286:
 1468 0904 84E0      		ldi r24,lo8(4)
 1469 0906 90E0      		ldi r25,hi8(4)
 1470 0908 9093 0000 		sts (time_step)+1,r25
 1471 090c 8093 0000 		sts time_step,r24
 1472 0910 00C0      		rjmp .L118
 1473               	.L132:
 1474               	.LM287:
 1475 0912 86E0      		ldi r24,lo8(6)
 1476 0914 90E0      		ldi r25,hi8(6)
 1477 0916 9093 0000 		sts (time_step)+1,r25
 1478 091a 8093 0000 		sts time_step,r24
 1479               	.LM288:
 1480 091e 2230      		cpi r18,lo8(2)
 1481 0920 01F0      		breq .+2
 1482 0922 00C0      		rjmp .L118
 1483               	.LM289:
 1484 0924 1092 0000 		sts PROGRAM_done,__zero_reg__
 1485               	.LM290:
 1486 0928 1092 0000 		sts (prog_val)+1,__zero_reg__
 1487 092c 1092 0000 		sts prog_val,__zero_reg__
 1488 0930 00C0      		rjmp .L118
 1489               	.L121:
 1490               	.LM291:
 1491 0932 8091 C600 		lds r24,198
 1492 0936 90E0      		ldi r25,lo8(0)
 1493 0938 34E0      		ldi r19,4
 1494 093a 880F      	1:	lsl r24
 1495 093c 991F      		rol r25
 1496 093e 3A95      		dec r19
 1497 0940 01F4      		brne 1b
 1498 0942 9093 0000 		sts (x16)+1,r25
 1499 0946 8093 0000 		sts x16,r24
 1500 094a 00C0      		rjmp .L118
 1501               	.L135:
 1502               	.LM292:
 1503 094c 8091 C600 		lds r24,198
 1504 0950 90E0      		ldi r25,lo8(0)
 1505 0952 24E0      		ldi r18,4
 1506 0954 880F      	1:	lsl r24
 1507 0956 991F      		rol r25
 1508 0958 2A95      		dec r18
 1509 095a 01F4      		brne 1b
 1510 095c 9093 0000 		sts (y16)+1,r25
 1511 0960 8093 0000 		sts y16,r24
 1512 0964 00C0      		rjmp .L118
 1513               	.L123:
 1514               	.LM293:
 1515 0966 8091 C600 		lds r24,198
 1516 096a 90E0      		ldi r25,lo8(0)
 1517 096c B4E0      		ldi r27,4
 1518 096e 880F      	1:	lsl r24
 1519 0970 991F      		rol r25
 1520 0972 BA95      		dec r27
 1521 0974 01F4      		brne 1b
 1522 0976 9093 0000 		sts (z16)+1,r25
 1523 097a 8093 0000 		sts z16,r24
 1524 097e 00C0      		rjmp .L118
 1525               	.L124:
 1526               	.LM294:
 1527 0980 8091 C600 		lds r24,198
 1528 0984 8093 0000 		sts t2,r24
 1529 0988 00C0      		rjmp .L118
 1530               	.L136:
 1531               	.LM295:
 1532 098a 8091 C600 		lds r24,198
 1533 098e 8093 0000 		sts dT,r24
 1534 0992 00C0      		rjmp .L118
 1535               	.L126:
 1536               	.LM296:
 1537 0994 8091 C600 		lds r24,198
 1538 0998 8093 0000 		sts T,r24
 1539 099c 00C0      		rjmp .L118
 1540               	.L127:
 1541               	.LM297:
 1542 099e 8091 C600 		lds r24,198
 1543 09a2 8093 0000 		sts chan,r24
 1544 09a6 00C0      		rjmp .L118
 1545               	.L137:
 1546               	.LM298:
 1547 09a8 8091 C600 		lds r24,198
 1548 09ac E091 0000 		lds r30,chan
 1549 09b0 F0E0      		ldi r31,lo8(0)
 1550 09b2 E050      		subi r30,lo8(-(reverted))
 1551 09b4 F040      		sbci r31,hi8(-(reverted))
 1552 09b6 8083      		st Z,r24
 1553               	.LM299:
 1554 09b8 1092 0000 		sts (event_cnt)+1,__zero_reg__
 1555 09bc 1092 0000 		sts event_cnt,__zero_reg__
 1556               	.LM300:
 1557 09c0 8091 0000 		lds r24,MD
 1558 09c4 8330      		cpi r24,lo8(3)
 1559 09c6 01F4      		brne .L133
 1560               	.LM301:
 1561 09c8 0E94 0000 		call gatherMult
 1562 09cc 00C0      		rjmp .L118
 1563               	.L133:
 1564               	.LM302:
 1565 09ce 8430      		cpi r24,lo8(4)
 1566 09d0 01F4      		brne .L118
 1567               	.LM303:
 1568 09d2 0E94 0000 		call separMult
 1569               	.L118:
 1570               	.LM304:
 1571 09d6 8091 0000 		lds r24,t2
 1572 09da 9091 0000 		lds r25,dT
 1573 09de 890F      		add r24,r25
 1574 09e0 8093 0000 		sts dTt2,r24
 1575               	.LM305:
 1576 09e4 8091 0000 		lds r24,ptr
 1577 09e8 8F5F      		subi r24,lo8(-(1))
 1578 09ea 6AE0      		ldi r22,lo8(10)
 1579 09ec 0E94 0000 		call __udivmodqi4
 1580 09f0 9093 0000 		sts ptr,r25
 1581               	/* epilogue start */
 1582               	.LM306:
 1583 09f4 FF91      		pop r31
 1584 09f6 EF91      		pop r30
 1585 09f8 BF91      		pop r27
 1586 09fa AF91      		pop r26
 1587 09fc 9F91      		pop r25
 1588 09fe 8F91      		pop r24
 1589 0a00 7F91      		pop r23
 1590 0a02 6F91      		pop r22
 1591 0a04 5F91      		pop r21
 1592 0a06 4F91      		pop r20
 1593 0a08 3F91      		pop r19
 1594 0a0a 2F91      		pop r18
 1595 0a0c 0F90      		pop r0
 1596 0a0e 0FBE      		out __SREG__,r0
 1597 0a10 0F90      		pop r0
 1598 0a12 1F90      		pop __zero_reg__
 1599 0a14 1895      		reti
 1600               	.LFE18:
 1602               	.global	MD
 1603               	.global	MD
 1604               		.section .bss
 1607               	MD:
 1608 0000 00        		.skip 1,0
 1609               	.global	STAT_N
 1610               		.data
 1613               	STAT_N:
 1614 0000 0E        		.byte	14
 1615               	.global	STAT_CYCLE
 1618               	STAT_CYCLE:
 1619 0001 05        		.byte	5
 1620               	.global	chan_addrs
 1623               	chan_addrs:
 1624 0002 00        		.byte	0
 1625 0003 01        		.byte	1
 1626 0004 02        		.byte	2
 1627 0005 03        		.byte	3
 1628 0006 07        		.byte	7
 1629 0007 06        		.byte	6
 1630 0008 05        		.byte	5
 1631 0009 04        		.byte	4
 1632               	.global	VAC16
 1633               	.global	VAC16
 1634               		.section .bss
 1637               	VAC16:
 1638 0001 0000      		.skip 2,0
 1639               	.global	VAC16_H
 1640               	.global	VAC16_H
 1643               	VAC16_H:
 1644 0003 0000      		.skip 2,0
 1645               	.global	VAC16_HH
 1646               	.global	VAC16_HH
 1649               	VAC16_HH:
 1650 0005 0000      		.skip 2,0
 1651               	.global	prog_val
 1652               	.global	prog_val
 1655               	prog_val:
 1656 0007 0000      		.skip 2,0
 1657               	.global	x16
 1658               	.global	x16
 1661               	x16:
 1662 0009 0000      		.skip 2,0
 1663               	.global	y16
 1664               	.global	y16
 1667               	y16:
 1668 000b 0000      		.skip 2,0
 1669               	.global	z16
 1670               	.global	z16
 1673               	z16:
 1674 000d 0000      		.skip 2,0
 1675               	.global	sync
 1676               	.global	sync
 1679               	sync:
 1680 000f 00        		.skip 1,0
 1681               	.global	t1
 1682               		.data
 1685               	t1:
 1686 000a 02        		.byte	2
 1687               	.global	t2
 1690               	t2:
 1691 000b 02        		.byte	2
 1692               	.global	dTt2
 1695               	dTt2:
 1696 000c 0A        		.byte	10
 1697               	.global	pos_phase
 1700               	pos_phase:
 1701 000d 01        		.byte	1
 1702               	.global	STAT_dt_step
 1703               	.global	STAT_dt_step
 1704               		.section .bss
 1707               	STAT_dt_step:
 1708 0010 00        		.skip 1,0
 1709               	.global	STAT_V_step
 1710               	.global	STAT_V_step
 1713               	STAT_V_step:
 1714 0011 00        		.skip 1,0
 1715               	.global	ptr
 1716               	.global	ptr
 1719               	ptr:
 1720 0012 00        		.skip 1,0
 1721               	.global	PROGRAM_done
 1722               	.global	PROGRAM_done
 1725               	PROGRAM_done:
 1726 0013 00        		.skip 1,0
 1727               	.global	chan
 1728               	.global	chan
 1731               	chan:
 1732 0014 00        		.skip 1,0
 1733               	.global	an_cnt
 1734               	.global	an_cnt
 1737               	an_cnt:
 1738 0015 0000      		.skip 2,0
 1739               	.global	an_cnt_fast
 1740               	.global	an_cnt_fast
 1743               	an_cnt_fast:
 1744 0017 0000      		.skip 2,0
 1745               	.global	reverted
 1746               	.global	reverted
 1749               	reverted:
 1750 0019 0000 0000 		.skip 8,0
 1750      0000 0000 
 1751               	.global	time_step
 1752               		.data
 1755               	time_step:
 1756 000e 0600      		.word	6
 1757               	.global	eventN
 1760               	eventN:
 1761 0010 6400      		.word	100
 1762               		.lcomm adc_h.1503,2
 1763               		.lcomm i.1497,2
 1764               		.comm BIG_STAT_N,1,1
 1765               		.comm x16_grad,2,1
 1766               		.comm dT,1,1
 1767               		.comm T,1,1
 1768               		.comm send8,1,1
 1769               		.comm UDP_cnt,1,1
 1770               		.comm c,1,1
 1771               		.comm ADC_on,1,1
 1772               		.comm _adc,2,1
 1773               		.comm ctr,2,1
 1774               		.comm accum,2,1
 1775               		.comm event_cnt,2,1
 1776               		.comm ADC_cnt,2,1
 1777               		.comm ADCH_,1,1
 1778               		.comm ADCL_,1,1
 1779               		.comm ADCH__,1,1
 1780               		.comm ADCL__,1,1
 1781               		.comm accum_cnt,1,1
 1902               	.Letext0:
DEFINED SYMBOLS
                            *ABS*:00000000 main.c
C:\Users\DrPepper\AppData\Local\Temp/ccHScrCy.s:2      *ABS*:0000003f __SREG__
C:\Users\DrPepper\AppData\Local\Temp/ccHScrCy.s:3      *ABS*:0000003e __SP_H__
C:\Users\DrPepper\AppData\Local\Temp/ccHScrCy.s:4      *ABS*:0000003d __SP_L__
C:\Users\DrPepper\AppData\Local\Temp/ccHScrCy.s:5      *ABS*:00000034 __CCP__
C:\Users\DrPepper\AppData\Local\Temp/ccHScrCy.s:6      *ABS*:00000000 __tmp_reg__
C:\Users\DrPepper\AppData\Local\Temp/ccHScrCy.s:7      *ABS*:00000001 __zero_reg__
C:\Users\DrPepper\AppData\Local\Temp/ccHScrCy.s:18     .text:00000000 ADC_Init
C:\Users\DrPepper\AppData\Local\Temp/ccHScrCy.s:42     .text:00000016 timer_init
C:\Users\DrPepper\AppData\Local\Temp/ccHScrCy.s:67     .text:0000002e uart_init
C:\Users\DrPepper\AppData\Local\Temp/ccHScrCy.s:92     .text:00000044 SPI_MasterInit
C:\Users\DrPepper\AppData\Local\Temp/ccHScrCy.s:110    .text:0000004e gatherMult
C:\Users\DrPepper\AppData\Local\Temp/ccHScrCy.s:138    .text:00000060 separMult
C:\Users\DrPepper\AppData\Local\Temp/ccHScrCy.s:166    .text:00000072 SPI_WriteByte
C:\Users\DrPepper\AppData\Local\Temp/ccHScrCy.s:186    .text:0000007c resetDAC
C:\Users\DrPepper\AppData\Local\Temp/ccHScrCy.s:1623   .data:00000002 chan_addrs
C:\Users\DrPepper\AppData\Local\Temp/ccHScrCy.s:221    .text:000000a0 setDAC
                            *COM*:00000001 send8
C:\Users\DrPepper\AppData\Local\Temp/ccHScrCy.s:279    .text:000000ea set_reverser
C:\Users\DrPepper\AppData\Local\Temp/ccHScrCy.s:292    .text:000000ec main
C:\Users\DrPepper\AppData\Local\Temp/ccHScrCy.s:1618   .data:00000001 STAT_CYCLE
C:\Users\DrPepper\AppData\Local\Temp/ccHScrCy.s:1613   .data:00000000 STAT_N
                            *COM*:00000001 BIG_STAT_N
C:\Users\DrPepper\AppData\Local\Temp/ccHScrCy.s:423    .text:0000019e __vector_9
                            *COM*:00000002 ctr
C:\Users\DrPepper\AppData\Local\Temp/ccHScrCy.s:1755   .data:0000000e time_step
C:\Users\DrPepper\AppData\Local\Temp/ccHScrCy.s:1607   .bss:00000000 MD
                            *COM*:00000002 event_cnt
                            *COM*:00000001 ADCL_
                            *COM*:00000001 ADCH_
C:\Users\DrPepper\AppData\Local\Temp/ccHScrCy.s:1661   .bss:00000009 x16
C:\Users\DrPepper\AppData\Local\Temp/ccHScrCy.s:1731   .bss:00000014 chan
C:\Users\DrPepper\AppData\Local\Temp/ccHScrCy.s:1685   .data:0000000a t1
                            *COM*:00000001 dT
C:\Users\DrPepper\AppData\Local\Temp/ccHScrCy.s:1695   .data:0000000c dTt2
                            *COM*:00000002 _adc
                            *COM*:00000002 accum
                            *COM*:00000001 ADC_on
                            *COM*:00000001 accum_cnt
C:\Users\DrPepper\AppData\Local\Temp/ccHScrCy.s:1762   .bss:00000023 i.1497
                            *COM*:00000001 UDP_cnt
                            *COM*:00000001 ADCL__
                            *COM*:00000001 ADCH__
C:\Users\DrPepper\AppData\Local\Temp/ccHScrCy.s:1637   .bss:00000001 VAC16
C:\Users\DrPepper\AppData\Local\Temp/ccHScrCy.s:1643   .bss:00000003 VAC16_H
C:\Users\DrPepper\AppData\Local\Temp/ccHScrCy.s:1700   .data:0000000d pos_phase
C:\Users\DrPepper\AppData\Local\Temp/ccHScrCy.s:1667   .bss:0000000b y16
                            *COM*:00000001 T
C:\Users\DrPepper\AppData\Local\Temp/ccHScrCy.s:1725   .bss:00000013 PROGRAM_done
                             .bss:00000021 adc_h.1503
C:\Users\DrPepper\AppData\Local\Temp/ccHScrCy.s:1655   .bss:00000007 prog_val
C:\Users\DrPepper\AppData\Local\Temp/ccHScrCy.s:1690   .data:0000000b t2
C:\Users\DrPepper\AppData\Local\Temp/ccHScrCy.s:1673   .bss:0000000d z16
C:\Users\DrPepper\AppData\Local\Temp/ccHScrCy.s:1737   .bss:00000015 an_cnt
C:\Users\DrPepper\AppData\Local\Temp/ccHScrCy.s:1713   .bss:00000011 STAT_V_step
                            *COM*:00000002 x16_grad
C:\Users\DrPepper\AppData\Local\Temp/ccHScrCy.s:1743   .bss:00000017 an_cnt_fast
C:\Users\DrPepper\AppData\Local\Temp/ccHScrCy.s:1707   .bss:00000010 STAT_dt_step
C:\Users\DrPepper\AppData\Local\Temp/ccHScrCy.s:1383   .text:00000870 __vector_18
C:\Users\DrPepper\AppData\Local\Temp/ccHScrCy.s:1719   .bss:00000012 ptr
C:\Users\DrPepper\AppData\Local\Temp/ccHScrCy.s:1679   .bss:0000000f sync
C:\Users\DrPepper\AppData\Local\Temp/ccHScrCy.s:1749   .bss:00000019 reverted
C:\Users\DrPepper\AppData\Local\Temp/ccHScrCy.s:1649   .bss:00000005 VAC16_HH
C:\Users\DrPepper\AppData\Local\Temp/ccHScrCy.s:1760   .data:00000010 eventN
                            *COM*:00000001 c
                            *COM*:00000002 ADC_cnt

UNDEFINED SYMBOLS
__udivmodhi4
__udivmodqi4
__do_copy_data
__do_clear_bss
