   1               		.file	"main.c"
   2               	__SREG__ = 0x3f
   3               	__SP_H__ = 0x3e
   4               	__SP_L__ = 0x3d
   5               	__CCP__  = 0x34
   6               	__tmp_reg__ = 0
   7               	__zero_reg__ = 1
  15               	.Ltext0:
  16               	.global	ADC_Init
  18               	ADC_Init:
  19               	.LFB6:
  20               	.LM1:
  21               	/* prologue: function */
  22               	/* frame size = 0 */
  23               	.LM2:
  24 0000 EAE7      		ldi r30,lo8(122)
  25 0002 F0E0      		ldi r31,hi8(122)
  26 0004 8081      		ld r24,Z
  27 0006 8368      		ori r24,lo8(-125)
  28 0008 8083      		st Z,r24
  29               	.LM3:
  30 000a ECE7      		ldi r30,lo8(124)
  31 000c F0E0      		ldi r31,hi8(124)
  32 000e 8081      		ld r24,Z
  33 0010 8064      		ori r24,lo8(64)
  34 0012 8083      		st Z,r24
  35               	/* epilogue start */
  36               	.LM4:
  37 0014 0895      		ret
  38               	.LFE6:
  40               	.global	timer_init
  42               	timer_init:
  43               	.LFB7:
  44               	.LM5:
  45               	/* prologue: function */
  46               	/* frame size = 0 */
  47               	.LM6:
  48 0016 1092 B000 		sts 176,__zero_reg__
  49               	.LM7:
  50 001a E1EB      		ldi r30,lo8(177)
  51 001c F0E0      		ldi r31,hi8(177)
  52 001e 1082      		st Z,__zero_reg__
  53               	.LM8:
  54 0020 8081      		ld r24,Z
  55 0022 8260      		ori r24,lo8(2)
  56 0024 8083      		st Z,r24
  57               	.LM9:
  58 0026 81E0      		ldi r24,lo8(1)
  59 0028 8093 7000 		sts 112,r24
  60               	/* epilogue start */
  61               	.LM10:
  62 002c 0895      		ret
  63               	.LFE7:
  65               	.global	uart_init
  67               	uart_init:
  68               	.LFB8:
  69               	.LM11:
  70               	.LVL0:
  71               	/* prologue: function */
  72               	/* frame size = 0 */
  73               	.LM12:
  74 002e 9093 C500 		sts 197,r25
  75               	.LVL1:
  76               	.LM13:
  77 0032 8093 C400 		sts 196,r24
  78               	.LM14:
  79 0036 88E9      		ldi r24,lo8(-104)
  80               	.LVL2:
  81 0038 8093 C100 		sts 193,r24
  82               	.LM15:
  83 003c 8EE0      		ldi r24,lo8(14)
  84 003e 8093 C200 		sts 194,r24
  85               	/* epilogue start */
  86               	.LM16:
  87 0042 0895      		ret
  88               	.LFE8:
  90               	.global	SPI_MasterInit
  92               	SPI_MasterInit:
  93               	.LFB9:
  94               	.LM17:
  95               	/* prologue: function */
  96               	/* frame size = 0 */
  97               	.LM18:
  98 0044 8CE2      		ldi r24,lo8(44)
  99 0046 84B9      		out 36-32,r24
 100               	.LM19:
 101 0048 88E5      		ldi r24,lo8(88)
 102 004a 8CBD      		out 76-32,r24
 103               	/* epilogue start */
 104               	.LM20:
 105 004c 0895      		ret
 106               	.LFE9:
 108               	.global	gatherMult
 110               	gatherMult:
 111               	.LFB12:
 112               	.LM21:
 113               	/* prologue: function */
 114               	/* frame size = 0 */
 115               	.LM22:
 116 004e 5E98      		cbi 43-32,6
 117               	.LM23:
 118 0050 5F98      		cbi 43-32,7
 119               	.LM24:
 120 0052 5D98      		cbi 43-32,5
 121               	.LM25:
 122 0054 4498      		cbi 40-32,4
 123               	.LM26:
 124 0056 419A      		sbi 40-32,1
 125               	.LM27:
 126 0058 2A9A      		sbi 37-32,2
 127               	.LM28:
 128 005a 299A      		sbi 37-32,1
 129               	.LM29:
 130 005c 289A      		sbi 37-32,0
 131               	/* epilogue start */
 132               	.LM30:
 133 005e 0895      		ret
 134               	.LFE12:
 136               	.global	separMult
 138               	separMult:
 139               	.LFB13:
 140               	.LM31:
 141               	/* prologue: function */
 142               	/* frame size = 0 */
 143               	.LM32:
 144 0060 2998      		cbi 37-32,1
 145               	.LM33:
 146 0062 2A98      		cbi 37-32,2
 147               	.LM34:
 148 0064 4198      		cbi 40-32,1
 149               	.LM35:
 150 0066 449A      		sbi 40-32,4
 151               	.LM36:
 152 0068 5E9A      		sbi 43-32,6
 153               	.LM37:
 154 006a 5F9A      		sbi 43-32,7
 155               	.LM38:
 156 006c 289A      		sbi 37-32,0
 157               	.LM39:
 158 006e 5D9A      		sbi 43-32,5
 159               	/* epilogue start */
 160               	.LM40:
 161 0070 0895      		ret
 162               	.LFE13:
 164               	.global	SPI_WriteByte
 166               	SPI_WriteByte:
 167               	.LFB14:
 168               	.LM41:
 169               	.LVL3:
 170               	/* prologue: function */
 171               	/* frame size = 0 */
 172               	.LM42:
 173 0072 8EBD      		out 78-32,r24
 174               	.L14:
 175               	.LM43:
 176 0074 0DB4      		in __tmp_reg__,77-32
 177 0076 07FE      		sbrs __tmp_reg__,7
 178 0078 00C0      		rjmp .L14
 179               	/* epilogue start */
 180               	.LM44:
 181 007a 0895      		ret
 182               	.LFE14:
 184               	.global	prepareResetDAC
 186               	prepareResetDAC:
 187               	.LFB11:
 188               	.LM45:
 189               	.LVL4:
 190               	/* prologue: function */
 191               	/* frame size = 0 */
 192               	.LM46:
 193 007c 5B98      		cbi 43-32,3
 194               	.LM47:
 195 007e E82F      		mov r30,r24
 196 0080 FF27      		clr r31
 197 0082 E7FD      		sbrc r30,7
 198 0084 F095      		com r31
 199               	.LVL5:
 200 0086 E050      		subi r30,lo8(-(chan_addrs))
 201 0088 F040      		sbci r31,hi8(-(chan_addrs))
 202               	.LVL6:
 203 008a 8081      		ld r24,Z
 204 008c 8860      		ori r24,lo8(8)
 205 008e 90E0      		ldi r25,lo8(0)
 206 0090 0E94 0000 		call SPI_WriteByte
 207               	.LVL7:
 208               	.LM48:
 209 0094 80E0      		ldi r24,lo8(0)
 210 0096 90E0      		ldi r25,hi8(0)
 211 0098 0E94 0000 		call SPI_WriteByte
 212               	.LM49:
 213 009c 5B9A      		sbi 43-32,3
 214               	/* epilogue start */
 215               	.LM50:
 216 009e 0895      		ret
 217               	.LFE11:
 219               	.global	prepareSetDAC
 221               	prepareSetDAC:
 222               	.LFB10:
 223               	.LM51:
 224               	.LVL8:
 225 00a0 0F93      		push r16
 226 00a2 1F93      		push r17
 227               	/* prologue: function */
 228               	/* frame size = 0 */
 229 00a4 E62F      		mov r30,r22
 230               	.LM52:
 231 00a6 0027      		clr r16
 232 00a8 1127      		clr r17
 233 00aa 081B      		sub r16,r24
 234 00ac 190B      		sbc r17,r25
 235               	.LVL9:
 236               	.LM53:
 237 00ae 0050      		subi r16,lo8(-(2048))
 238 00b0 184F      		sbci r17,hi8(-(2048))
 239               	.LM54:
 240 00b2 5B98      		cbi 43-32,3
 241               	.LM55:
 242 00b4 812F      		mov r24,r17
 243 00b6 9927      		clr r25
 244 00b8 87FD      		sbrc r24,7
 245 00ba 9A95      		dec r25
 246 00bc 8F70      		andi r24,lo8(15)
 247 00be FF27      		clr r31
 248 00c0 E7FD      		sbrc r30,7
 249 00c2 F095      		com r31
 250               	.LVL10:
 251 00c4 E050      		subi r30,lo8(-(chan_addrs))
 252 00c6 F040      		sbci r31,hi8(-(chan_addrs))
 253               	.LVL11:
 254 00c8 2081      		ld r18,Z
 255 00ca 822B      		or r24,r18
 256 00cc 8093 0000 		sts send8,r24
 257               	.LM56:
 258 00d0 90E0      		ldi r25,lo8(0)
 259 00d2 0E94 0000 		call SPI_WriteByte
 260               	.LVL12:
 261               	.LM57:
 262 00d6 0093 0000 		sts send8,r16
 263               	.LM58:
 264 00da 802F      		mov r24,r16
 265 00dc 90E0      		ldi r25,lo8(0)
 266 00de 0E94 0000 		call SPI_WriteByte
 267               	.LM59:
 268 00e2 5B9A      		sbi 43-32,3
 269               	/* epilogue start */
 270               	.LM60:
 271 00e4 1F91      		pop r17
 272 00e6 0F91      		pop r16
 273               	.LVL13:
 274 00e8 0895      		ret
 275               	.LFE10:
 277               	.global	set_reverser
 279               	set_reverser:
 280               	.LFB15:
 281               	.LM61:
 282               	.LVL14:
 283               	/* prologue: function */
 284               	/* frame size = 0 */
 285               	/* epilogue start */
 286               	.LM62:
 287 00ea 0895      		ret
 288               	.LFE15:
 290               	.global	setDAC
 292               	setDAC:
 293               	.LFB16:
 294               	.LM63:
 295               	/* prologue: function */
 296               	/* frame size = 0 */
 297               	.LM64:
 298 00ec 5A98      		cbi 43-32,2
 299               	.LM65:
 300 00ee 5A9A      		sbi 43-32,2
 301               	/* epilogue start */
 302               	.LM66:
 303 00f0 0895      		ret
 304               	.LFE16:
 306               	.global	main
 308               	main:
 309               	.LFB17:
 310               	.LM67:
 311 00f2 1F93      		push r17
 312               	/* prologue: function */
 313               	/* frame size = 0 */
 314               	.LM68:
 315 00f4 8091 0000 		lds r24,STAT_CYCLE
 316 00f8 9091 0000 		lds r25,STAT_N
 317 00fc 899F      		mul r24,r25
 318 00fe 802D      		mov r24,r0
 319 0100 1124      		clr r1
 320 0102 8093 0000 		sts BIG_STAT_N,r24
 321 0106 E0E0      		ldi r30,lo8(chan_addrs)
 322 0108 F0E0      		ldi r31,hi8(chan_addrs)
 323               	.L26:
 324               	.LBB70:
 325               	.LM69:
 326 010a 8081      		ld r24,Z
 327 010c 8295      		swap r24
 328 010e 807F      		andi r24,lo8(-16)
 329 0110 8193      		st Z+,r24
 330               	.LM70:
 331 0112 80E0      		ldi r24,hi8(chan_addrs+8)
 332 0114 E030      		cpi r30,lo8(chan_addrs+8)
 333 0116 F807      		cpc r31,r24
 334 0118 01F4      		brne .L26
 335               	.LBE70:
 336               	.LM71:
 337 011a 88B1      		in r24,40-32
 338 011c 88B9      		out 40-32,r24
 339               	.LM72:
 340 011e 8EE1      		ldi r24,lo8(30)
 341 0120 87B9      		out 39-32,r24
 342               	.LM73:
 343 0122 8EEF      		ldi r24,lo8(-2)
 344 0124 8AB9      		out 42-32,r24
 345               	.LM74:
 346 0126 8FE1      		ldi r24,lo8(31)
 347 0128 84B9      		out 36-32,r24
 348               	.LM75:
 349               	/* #APP */
 350               	 ;  278 "main.c" 1
 351 012a 7894      		sei
 352               	 ;  0 "" 2
 353               	/* #NOAPP */
 354               	.LBB71:
 355               	.LBB72:
 356               	.LM76:
 357 012c 8CE2      		ldi r24,lo8(44)
 358 012e 84B9      		out 36-32,r24
 359               	.LM77:
 360 0130 88E5      		ldi r24,lo8(88)
 361 0132 8CBD      		out 76-32,r24
 362               	.LBE72:
 363               	.LBE71:
 364               	.LBB73:
 365               	.LBB74:
 366               	.LM78:
 367 0134 1092 B000 		sts 176,__zero_reg__
 368               	.LM79:
 369 0138 1092 B100 		sts 177,__zero_reg__
 370               	.LM80:
 371 013c 8091 B100 		lds r24,177
 372 0140 8260      		ori r24,lo8(2)
 373 0142 8093 B100 		sts 177,r24
 374               	.LM81:
 375 0146 81E0      		ldi r24,lo8(1)
 376 0148 8093 7000 		sts 112,r24
 377               	.LBE74:
 378               	.LBE73:
 379               	.LBB75:
 380               	.LBB76:
 381               	.LM82:
 382 014c 1092 C500 		sts 197,__zero_reg__
 383               	.LM83:
 384 0150 83E3      		ldi r24,lo8(51)
 385 0152 8093 C400 		sts 196,r24
 386               	.LM84:
 387 0156 88E9      		ldi r24,lo8(-104)
 388 0158 8093 C100 		sts 193,r24
 389               	.LM85:
 390 015c 8EE0      		ldi r24,lo8(14)
 391 015e 8093 C200 		sts 194,r24
 392               	.LBE76:
 393               	.LBE75:
 394               	.LBB77:
 395               	.LBB78:
 396               	.LM86:
 397 0162 8091 7A00 		lds r24,122
 398 0166 8368      		ori r24,lo8(-125)
 399 0168 8093 7A00 		sts 122,r24
 400               	.LM87:
 401 016c 8091 7C00 		lds r24,124
 402 0170 8064      		ori r24,lo8(64)
 403 0172 8093 7C00 		sts 124,r24
 404               	.LBE78:
 405               	.LBE77:
 406               	.LM88:
 407 0176 8091 7A00 		lds r24,122
 408 017a 8064      		ori r24,lo8(64)
 409 017c 8093 7A00 		sts 122,r24
 410               	.LM89:
 411 0180 8091 7800 		lds r24,120
 412               	.LM90:
 413 0184 8091 7800 		lds r24,120
 414 0188 10E0      		ldi r17,lo8(0)
 415               	.L27:
 416               	.LBB79:
 417               	.LM91:
 418 018a 80E0      		ldi r24,lo8(0)
 419 018c 90E0      		ldi r25,hi8(0)
 420 018e 612F      		mov r22,r17
 421 0190 0E94 0000 		call prepareSetDAC
 422 0194 1F5F      		subi r17,lo8(-(1))
 423               	.LM92:
 424 0196 1830      		cpi r17,lo8(8)
 425 0198 01F4      		brne .L27
 426               	.LBE79:
 427               	.LBB80:
 428               	.LBB81:
 429               	.LM93:
 430 019a 5A98      		cbi 43-32,2
 431               	.LM94:
 432 019c 5A9A      		sbi 43-32,2
 433               	.LBE81:
 434               	.LBE80:
 435               	.LM95:
 436 019e 0E94 0000 		call separMult
 437               	.L28:
 438 01a2 00C0      		rjmp .L28
 439               	.LFE17:
 441               	.global	__vector_9
 443               	__vector_9:
 444               	.LFB18:
 445               	.LM96:
 446 01a4 1F92      		push __zero_reg__
 447 01a6 0F92      		push r0
 448 01a8 0FB6      		in r0,__SREG__
 449 01aa 0F92      		push r0
 450 01ac 1124      		clr __zero_reg__
 451 01ae 2F93      		push r18
 452 01b0 3F93      		push r19
 453 01b2 4F93      		push r20
 454 01b4 5F93      		push r21
 455 01b6 6F93      		push r22
 456 01b8 7F93      		push r23
 457 01ba 8F93      		push r24
 458 01bc 9F93      		push r25
 459 01be AF93      		push r26
 460 01c0 BF93      		push r27
 461 01c2 EF93      		push r30
 462 01c4 FF93      		push r31
 463               	/* prologue: Signal */
 464               	/* frame size = 0 */
 465               	.LM97:
 466 01c6 2091 0000 		lds r18,ctr
 467 01ca 3091 0000 		lds r19,(ctr)+1
 468 01ce 8091 0000 		lds r24,time_step
 469 01d2 9091 0000 		lds r25,(time_step)+1
 470 01d6 8217      		cp r24,r18
 471 01d8 9307      		cpc r25,r19
 472 01da 04F0      		brlt .+2
 473 01dc 00C0      		rjmp .L33
 474               	.LM98:
 475 01de 6091 0000 		lds r22,MD
 476 01e2 6623      		tst r22
 477 01e4 01F0      		breq .+2
 478 01e6 00C0      		rjmp .L34
 479               	.LM99:
 480 01e8 2091 0000 		lds r18,event_cnt
 481 01ec 3091 0000 		lds r19,(event_cnt)+1
 482 01f0 2130      		cpi r18,1
 483 01f2 3105      		cpc r19,__zero_reg__
 484 01f4 01F4      		brne .L35
 485               	.LM100:
 486 01f6 9091 7800 		lds r25,120
 487 01fa 9093 0000 		sts ADCL_,r25
 488               	.LM101:
 489 01fe 8091 7900 		lds r24,121
 490 0202 8093 0000 		sts ADCH_,r24
 491               	.LM102:
 492 0206 9093 C600 		sts 198,r25
 493 020a 00C0      		rjmp .L36
 494               	.L35:
 495               	.LM103:
 496 020c 2230      		cpi r18,2
 497 020e 3105      		cpc r19,__zero_reg__
 498 0210 01F4      		brne .L37
 499               	.LM104:
 500 0212 8091 0000 		lds r24,ADCH_
 501 0216 8093 C600 		sts 198,r24
 502 021a 00C0      		rjmp .L36
 503               	.L37:
 504               	.LM105:
 505 021c 2115      		cp r18,__zero_reg__
 506 021e 3105      		cpc r19,__zero_reg__
 507 0220 01F4      		brne .L36
 508               	.LM106:
 509 0222 8FEF      		ldi r24,lo8(-1)
 510 0224 00C0      		rjmp .L115
 511               	.L36:
 512               	.LM107:
 513 0226 8091 0000 		lds r24,t1
 514 022a 90E0      		ldi r25,lo8(0)
 515 022c 2817      		cp r18,r24
 516 022e 3907      		cpc r19,r25
 517 0230 01F4      		brne .+2
 518 0232 00C0      		rjmp .L38
 519               	.LM108:
 520 0234 8091 0000 		lds r24,dT
 521 0238 90E0      		ldi r25,lo8(0)
 522 023a 2817      		cp r18,r24
 523 023c 3907      		cpc r19,r25
 524 023e 01F4      		brne .+2
 525 0240 00C0      		rjmp .L38
 526               	.LM109:
 527 0242 0196      		adiw r24,1
 528 0244 2817      		cp r18,r24
 529 0246 3907      		cpc r19,r25
 530 0248 01F4      		brne .+2
 531 024a 00C0      		rjmp .L110
 532               	.L39:
 533               	.LM110:
 534 024c 8091 0000 		lds r24,dTt2
 535 0250 90E0      		ldi r25,lo8(0)
 536 0252 2817      		cp r18,r24
 537 0254 3907      		cpc r19,r25
 538 0256 01F0      		breq .+2
 539 0258 00C0      		rjmp .L38
 540               	.LM111:
 541 025a 8091 C000 		lds r24,192
 542 025e 85FF      		sbrs r24,5
 543 0260 00C0      		rjmp .L40
 544               	.LM112:
 545 0262 8091 0000 		lds r24,_adc
 546 0266 8093 C600 		sts 198,r24
 547               	.L40:
 548               	.LM113:
 549 026a 1092 0000 		sts (accum)+1,__zero_reg__
 550 026e 1092 0000 		sts accum,__zero_reg__
 551               	.LM114:
 552 0272 1092 0000 		sts ADC_on,__zero_reg__
 553               	.LM115:
 554 0276 1092 0000 		sts accum_cnt,__zero_reg__
 555 027a 00C0      		rjmp .L38
 556               	.L34:
 557               	.LM116:
 558 027c 6130      		cpi r22,lo8(1)
 559 027e 01F0      		breq .+2
 560 0280 00C0      		rjmp .L41
 561               	.LBB82:
 562               	.LM117:
 563 0282 8091 0000 		lds r24,i.1506
 564 0286 9091 0000 		lds r25,(i.1506)+1
 565 028a 0196      		adiw r24,1
 566 028c 9093 0000 		sts (i.1506)+1,r25
 567 0290 8093 0000 		sts i.1506,r24
 568               	.LM118:
 569 0294 8091 0000 		lds r24,UDP_cnt
 570 0298 8230      		cpi r24,lo8(2)
 571 029a 01F0      		breq .L45
 572 029c 8330      		cpi r24,lo8(3)
 573 029e 00F4      		brsh .L48
 574 02a0 8823      		tst r24
 575 02a2 01F0      		breq .L43
 576 02a4 8130      		cpi r24,lo8(1)
 577 02a6 01F0      		breq .+2
 578 02a8 00C0      		rjmp .L42
 579 02aa 00C0      		rjmp .L116
 580               	.L48:
 581 02ac 8330      		cpi r24,lo8(3)
 582 02ae 01F0      		breq .L46
 583 02b0 8430      		cpi r24,lo8(4)
 584 02b2 01F0      		breq .+2
 585 02b4 00C0      		rjmp .L42
 586 02b6 00C0      		rjmp .L47
 587               	.L43:
 588               	.LM119:
 589 02b8 8091 7A00 		lds r24,122
 590 02bc 8064      		ori r24,lo8(64)
 591 02be 8093 7A00 		sts 122,r24
 592               	.LM120:
 593 02c2 8FEF      		ldi r24,lo8(-1)
 594 02c4 00C0      		rjmp .L102
 595               	.L116:
 596               	.LM121:
 597 02c6 8091 0000 		lds r24,ADCL_
 598 02ca 8093 0000 		sts ADCL__,r24
 599               	.LM122:
 600 02ce 8091 0000 		lds r24,ADCH_
 601 02d2 8093 0000 		sts ADCH__,r24
 602               	.LM123:
 603 02d6 9091 7800 		lds r25,120
 604 02da 9093 0000 		sts ADCL_,r25
 605               	.LM124:
 606 02de 8091 7900 		lds r24,121
 607 02e2 8093 0000 		sts ADCH_,r24
 608               	.LM125:
 609 02e6 9093 C600 		sts 198,r25
 610 02ea 00C0      		rjmp .L42
 611               	.L45:
 612               	.LM126:
 613 02ec 8091 0000 		lds r24,ADCH_
 614               	.L102:
 615 02f0 8093 C600 		sts 198,r24
 616 02f4 00C0      		rjmp .L42
 617               	.L46:
 618               	.LM127:
 619 02f6 2091 0000 		lds r18,VAC16
 620 02fa 3091 0000 		lds r19,(VAC16)+1
 621 02fe 3093 0000 		sts (VAC16_H)+1,r19
 622 0302 2093 0000 		sts VAC16_H,r18
 623               	.LM128:
 624 0306 8091 0000 		lds r24,pos_phase
 625 030a 8823      		tst r24
 626 030c 01F0      		breq .L49
 627               	.LM129:
 628 030e 205E      		subi r18,lo8(-(32))
 629 0310 3F4F      		sbci r19,hi8(-(32))
 630 0312 3093 0000 		sts (VAC16)+1,r19
 631 0316 2093 0000 		sts VAC16,r18
 632               	.LM130:
 633 031a 8091 0000 		lds r24,ref16
 634 031e 9091 0000 		lds r25,(ref16)+1
 635 0322 2817      		cp r18,r24
 636 0324 3907      		cpc r19,r25
 637 0326 04F0      		brlt .L50
 638               	.LM131:
 639 0328 1092 0000 		sts pos_phase,__zero_reg__
 640 032c 00C0      		rjmp .L50
 641               	.L49:
 642               	.LM132:
 643 032e C901      		movw r24,r18
 644 0330 8097      		sbiw r24,32
 645 0332 9093 0000 		sts (VAC16)+1,r25
 646 0336 8093 0000 		sts VAC16,r24
 647               	.LM133:
 648 033a 21E0      		ldi r18,lo8(1)
 649 033c 30E0      		ldi r19,hi8(1)
 650 033e 4091 0000 		lds r20,x16
 651 0342 5091 0000 		lds r21,(x16)+1
 652 0346 241B      		sub r18,r20
 653 0348 350B      		sbc r19,r21
 654 034a 8217      		cp r24,r18
 655 034c 9307      		cpc r25,r19
 656 034e 04F4      		brge .L50
 657               	.LM134:
 658 0350 6093 0000 		sts pos_phase,r22
 659               	.L50:
 660               	.LM135:
 661 0354 8091 0000 		lds r24,VAC16
 662 0358 9091 0000 		lds r25,(VAC16)+1
 663 035c 9C01      		movw r18,r24
 664 035e B4E0      		ldi r27,4
 665 0360 3595      	1:	asr r19
 666 0362 2795      		ror r18
 667 0364 BA95      		dec r27
 668 0366 01F4      		brne 1b
 669 0368 2093 C600 		sts 198,r18
 670               	.LM136:
 671 036c 6091 0000 		lds r22,chan
 672 0370 0E94 0000 		call prepareSetDAC
 673               	.LBB83:
 674               	.LBB84:
 675               	.LM137:
 676 0374 5A98      		cbi 43-32,2
 677               	.LM138:
 678 0376 5A9A      		sbi 43-32,2
 679               	.L47:
 680               	.LBE84:
 681               	.LBE83:
 682               	.LM139:
 683 0378 1092 C600 		sts 198,__zero_reg__
 684               	.L42:
 685               	.LM140:
 686 037c 8091 0000 		lds r24,UDP_cnt
 687 0380 8F5F      		subi r24,lo8(-(1))
 688 0382 65E0      		ldi r22,lo8(5)
 689 0384 0E94 0000 		call __udivmodqi4
 690 0388 9093 0000 		sts UDP_cnt,r25
 691 038c 00C0      		rjmp .L38
 692               	.L41:
 693               	.LBE82:
 694               	.LM141:
 695 038e 6230      		cpi r22,lo8(2)
 696 0390 01F0      		breq .+2
 697 0392 00C0      		rjmp .L51
 698               	.LBB85:
 699               	.LM142:
 700 0394 80E1      		ldi r24,lo8(16)
 701 0396 8093 0000 		sts T,r24
 702               	.LM143:
 703 039a 4091 0000 		lds r20,event_cnt
 704 039e 5091 0000 		lds r21,(event_cnt)+1
 705 03a2 4130      		cpi r20,1
 706 03a4 5105      		cpc r21,__zero_reg__
 707 03a6 01F4      		brne .L52
 708               	.LM144:
 709 03a8 8091 0000 		lds r24,PROGRAM_done
 710 03ac 8093 C600 		sts 198,r24
 711 03b0 00C0      		rjmp .L53
 712               	.L52:
 713               	.LM145:
 714 03b2 4230      		cpi r20,2
 715 03b4 5105      		cpc r21,__zero_reg__
 716 03b6 01F4      		brne .L54
 717               	.LM146:
 718 03b8 9091 7800 		lds r25,120
 719 03bc 9093 0000 		sts ADCL_,r25
 720               	.LM147:
 721 03c0 8091 7900 		lds r24,121
 722 03c4 8093 0000 		sts ADCH_,r24
 723               	.LM148:
 724 03c8 9093 C600 		sts 198,r25
 725 03cc 00C0      		rjmp .L55
 726               	.L54:
 727               	.LM149:
 728 03ce 4330      		cpi r20,3
 729 03d0 5105      		cpc r21,__zero_reg__
 730 03d2 01F4      		brne .L56
 731               	.LM150:
 732 03d4 8091 0000 		lds r24,ADCH_
 733 03d8 8093 C600 		sts 198,r24
 734               	.LM151:
 735 03dc 382F      		mov r19,r24
 736 03de 20E0      		ldi r18,lo8(0)
 737 03e0 8091 0000 		lds r24,ADCL_
 738 03e4 90E0      		ldi r25,lo8(0)
 739 03e6 822B      		or r24,r18
 740 03e8 932B      		or r25,r19
 741 03ea 9093 0000 		sts (_adc)+1,r25
 742 03ee 8093 0000 		sts _adc,r24
 743               	.LM152:
 744 03f2 20E0      		ldi r18,lo8(512)
 745 03f4 32E0      		ldi r19,hi8(512)
 746 03f6 281B      		sub r18,r24
 747 03f8 390B      		sbc r19,r25
 748 03fa 3093 0000 		sts (adc_h.1513)+1,r19
 749 03fe 2093 0000 		sts adc_h.1513,r18
 750               	.LM153:
 751 0402 8091 0000 		lds r24,t1
 752 0406 90E0      		ldi r25,lo8(0)
 753 0408 2817      		cp r18,r24
 754 040a 3907      		cpc r19,r25
 755 040c 01F0      		breq .+2
 756 040e 00C0      		rjmp .L53
 757               	.LM154:
 758 0410 81E0      		ldi r24,lo8(1)
 759 0412 8093 0000 		sts PROGRAM_done,r24
 760               	.LM155:
 761 0416 1092 0000 		sts (prog_val)+1,__zero_reg__
 762 041a 1092 0000 		sts prog_val,__zero_reg__
 763 041e 00C0      		rjmp .L57
 764               	.L56:
 765               	.LM156:
 766 0420 4115      		cp r20,__zero_reg__
 767 0422 5105      		cpc r21,__zero_reg__
 768 0424 01F4      		brne .L53
 769               	.LM157:
 770 0426 8FEF      		ldi r24,lo8(-1)
 771 0428 8093 C600 		sts 198,r24
 772               	.LM158:
 773 042c 2091 0000 		lds r18,prog_val
 774 0430 3091 0000 		lds r19,(prog_val)+1
 775 0434 205E      		subi r18,lo8(-(32))
 776 0436 3F4F      		sbci r19,hi8(-(32))
 777 0438 3093 0000 		sts (prog_val)+1,r19
 778 043c 2093 0000 		sts prog_val,r18
 779               	.LM159:
 780 0440 4091 0000 		lds r20,x16
 781 0444 5091 0000 		lds r21,(x16)+1
 782 0448 80E2      		ldi r24,lo8(32)
 783 044a 90E0      		ldi r25,hi8(32)
 784 044c 841B      		sub r24,r20
 785 044e 950B      		sbc r25,r21
 786 0450 2817      		cp r18,r24
 787 0452 3907      		cpc r19,r25
 788 0454 01F4      		brne .L58
 789               	.LM160:
 790 0456 1092 0000 		sts (prog_val)+1,__zero_reg__
 791 045a 1092 0000 		sts prog_val,__zero_reg__
 792 045e 00C0      		rjmp .L59
 793               	.L58:
 794               	.LM161:
 795 0460 8091 0000 		lds r24,t2
 796 0464 90E0      		ldi r25,lo8(0)
 797 0466 A4E0      		ldi r26,4
 798 0468 880F      	1:	lsl r24
 799 046a 991F      		rol r25
 800 046c AA95      		dec r26
 801 046e 01F4      		brne 1b
 802 0470 8217      		cp r24,r18
 803 0472 9307      		cpc r25,r19
 804 0474 04F4      		brge .L59
 805               	.LM162:
 806 0476 8827      		clr r24
 807 0478 9927      		clr r25
 808 047a 841B      		sub r24,r20
 809 047c 950B      		sbc r25,r21
 810 047e 9093 0000 		sts (prog_val)+1,r25
 811 0482 8093 0000 		sts prog_val,r24
 812               	.L59:
 813               	.LM163:
 814 0486 8091 0000 		lds r24,PROGRAM_done
 815 048a 8823      		tst r24
 816 048c 01F0      		breq .L60
 817               	.LM164:
 818 048e 1092 0000 		sts (prog_val)+1,__zero_reg__
 819 0492 1092 0000 		sts prog_val,__zero_reg__
 820               	.L60:
 821               	.LM165:
 822 0496 8091 0000 		lds r24,prog_val
 823 049a 9091 0000 		lds r25,(prog_val)+1
 824 049e 00C0      		rjmp .L104
 825               	.L53:
 826               	.LM166:
 827 04a0 4730      		cpi r20,7
 828 04a2 5105      		cpc r21,__zero_reg__
 829 04a4 01F4      		brne .+2
 830 04a6 00C0      		rjmp .L114
 831               	.L55:
 832               	.LM167:
 833 04a8 4930      		cpi r20,9
 834 04aa 5105      		cpc r21,__zero_reg__
 835 04ac 01F4      		brne .L57
 836               	.LM168:
 837 04ae 8091 0000 		lds r24,ref16
 838 04b2 9091 0000 		lds r25,(ref16)+1
 839 04b6 00C0      		rjmp .L104
 840               	.L57:
 841               	.LM169:
 842 04b8 4A30      		cpi r20,10
 843 04ba 5105      		cpc r21,__zero_reg__
 844 04bc 01F4      		brne .+2
 845 04be 00C0      		rjmp .L110
 846               	.L61:
 847               	.LM170:
 848 04c0 4E30      		cpi r20,14
 849 04c2 5105      		cpc r21,__zero_reg__
 850 04c4 01F0      		breq .+2
 851 04c6 00C0      		rjmp .L38
 852               	.LM171:
 853 04c8 1092 0000 		sts (accum)+1,__zero_reg__
 854 04cc 1092 0000 		sts accum,__zero_reg__
 855               	.LM172:
 856 04d0 1092 0000 		sts ADC_on,__zero_reg__
 857               	.LM173:
 858 04d4 1092 0000 		sts accum_cnt,__zero_reg__
 859 04d8 00C0      		rjmp .L114
 860               	.L51:
 861               	.LBE85:
 862               	.LM174:
 863 04da 6530      		cpi r22,lo8(5)
 864 04dc 01F0      		breq .+2
 865 04de 00C0      		rjmp .L62
 866               	.LM175:
 867 04e0 8091 0000 		lds r24,event_cnt
 868 04e4 9091 0000 		lds r25,(event_cnt)+1
 869 04e8 8130      		cpi r24,1
 870 04ea 9105      		cpc r25,__zero_reg__
 871 04ec 01F0      		breq .L105
 872               	.L63:
 873               	.LM176:
 874 04ee 8230      		cpi r24,2
 875 04f0 9105      		cpc r25,__zero_reg__
 876 04f2 01F4      		brne .L64
 877               	.LM177:
 878 04f4 8091 0000 		lds r24,reset16
 879 04f8 9091 0000 		lds r25,(reset16)+1
 880 04fc 63E0      		ldi r22,lo8(3)
 881 04fe 0E94 0000 		call prepareSetDAC
 882               	.LM178:
 883 0502 8091 0000 		lds r24,reset16
 884 0506 9091 0000 		lds r25,(reset16)+1
 885 050a 00C0      		rjmp .L112
 886               	.L64:
 887               	.LM179:
 888 050c 8330      		cpi r24,3
 889 050e 9105      		cpc r25,__zero_reg__
 890 0510 01F4      		brne .L65
 891               	.LM180:
 892 0512 80E0      		ldi r24,lo8(0)
 893 0514 90E0      		ldi r25,hi8(0)
 894 0516 63E0      		ldi r22,lo8(3)
 895 0518 0E94 0000 		call prepareSetDAC
 896               	.LM181:
 897 051c 80E0      		ldi r24,lo8(0)
 898 051e 90E0      		ldi r25,hi8(0)
 899               	.L112:
 900 0520 62E0      		ldi r22,lo8(2)
 901 0522 00C0      		rjmp .L106
 902               	.L65:
 903               	.LM182:
 904 0524 8430      		cpi r24,4
 905 0526 9105      		cpc r25,__zero_reg__
 906 0528 01F4      		brne .L66
 907               	.LM183:
 908 052a 0E94 0000 		call gatherMult
 909 052e 00C0      		rjmp .L38
 910               	.L66:
 911               	.LM184:
 912 0530 8530      		cpi r24,5
 913 0532 9105      		cpc r25,__zero_reg__
 914 0534 01F4      		brne .L67
 915               	.LM185:
 916 0536 8091 0000 		lds r24,x16
 917 053a 9091 0000 		lds r25,(x16)+1
 918 053e 00C0      		rjmp .L111
 919               	.L67:
 920               	.LM186:
 921 0540 8630      		cpi r24,6
 922 0542 9105      		cpc r25,__zero_reg__
 923 0544 01F4      		brne .L68
 924               	.L113:
 925               	.LM187:
 926 0546 80E0      		ldi r24,lo8(0)
 927 0548 90E0      		ldi r25,hi8(0)
 928               	.L111:
 929 054a 63E0      		ldi r22,lo8(3)
 930 054c 00C0      		rjmp .L106
 931               	.L68:
 932               	.LM188:
 933 054e 8730      		cpi r24,7
 934 0550 9105      		cpc r25,__zero_reg__
 935 0552 01F4      		brne .L69
 936               	.LM189:
 937 0554 8FEF      		ldi r24,lo8(-1)
 938 0556 8093 C600 		sts 198,r24
 939               	.L105:
 940               	.LM190:
 941 055a 0E94 0000 		call separMult
 942 055e 00C0      		rjmp .L38
 943               	.L69:
 944               	.LM191:
 945 0560 8830      		cpi r24,8
 946 0562 9105      		cpc r25,__zero_reg__
 947 0564 01F4      		brne .L70
 948               	.LM192:
 949 0566 8091 0000 		lds r24,ref16
 950 056a 9091 0000 		lds r25,(ref16)+1
 951 056e 63E0      		ldi r22,lo8(3)
 952 0570 00C0      		rjmp .L108
 953               	.L70:
 954               	.LM193:
 955 0572 8930      		cpi r24,9
 956 0574 9105      		cpc r25,__zero_reg__
 957 0576 01F4      		brne .+2
 958 0578 00C0      		rjmp .L109
 959               	.L71:
 960               	.LM194:
 961 057a 8A30      		cpi r24,10
 962 057c 9105      		cpc r25,__zero_reg__
 963 057e 01F4      		brne .L72
 964               	.LM195:
 965 0580 8091 0000 		lds r24,ADCH_
 966 0584 8093 C600 		sts 198,r24
 967 0588 00C0      		rjmp .L113
 968               	.L72:
 969               	.LM196:
 970 058a 8B30      		cpi r24,11
 971 058c 9105      		cpc r25,__zero_reg__
 972 058e 01F4      		brne .L73
 973               	.LM197:
 974 0590 8091 0000 		lds r24,ref16
 975 0594 9091 0000 		lds r25,(ref16)+1
 976 0598 62E0      		ldi r22,lo8(2)
 977 059a 00C0      		rjmp .L108
 978               	.L73:
 979               	.LM198:
 980 059c 8C30      		cpi r24,12
 981 059e 9105      		cpc r25,__zero_reg__
 982 05a0 01F4      		brne .+2
 983 05a2 00C0      		rjmp .L109
 984               	.L74:
 985               	.LM199:
 986 05a4 0D97      		sbiw r24,13
 987 05a6 01F0      		breq .+2
 988 05a8 00C0      		rjmp .L38
 989               	.LM200:
 990 05aa 8091 0000 		lds r24,ADCH_
 991 05ae 8093 C600 		sts 198,r24
 992               	.LM201:
 993 05b2 80E0      		ldi r24,lo8(0)
 994 05b4 90E0      		ldi r25,hi8(0)
 995 05b6 62E0      		ldi r22,lo8(2)
 996 05b8 0E94 0000 		call prepareSetDAC
 997               	.LBB86:
 998               	.LBB87:
 999               	.LM202:
 1000 05bc 5A98      		cbi 43-32,2
 1001               	.LM203:
 1002 05be 5A9A      		sbi 43-32,2
 1003               	.LBE87:
 1004               	.LBE86:
 1005               	.LM204:
 1006 05c0 1092 0000 		sts (event_cnt)+1,__zero_reg__
 1007 05c4 1092 0000 		sts event_cnt,__zero_reg__
 1008 05c8 00C0      		rjmp .L38
 1009               	.L62:
 1010               	.LM205:
 1011 05ca 6630      		cpi r22,lo8(6)
 1012 05cc 01F0      		breq .+2
 1013 05ce 00C0      		rjmp .L38
 1014               	.LM206:
 1015 05d0 8091 0000 		lds r24,event_cnt
 1016 05d4 9091 0000 		lds r25,(event_cnt)+1
 1017 05d8 0097      		sbiw r24,0
 1018 05da 01F4      		brne .L75
 1019               	.LM207:
 1020 05dc 8091 0000 		lds r24,reset16
 1021 05e0 9091 0000 		lds r25,(reset16)+1
 1022 05e4 6091 0000 		lds r22,chan
 1023 05e8 0E94 0000 		call prepareSetDAC
 1024               	.LBB88:
 1025               	.LBB89:
 1026               	.LM208:
 1027 05ec 5A98      		cbi 43-32,2
 1028               	.LM209:
 1029 05ee 5A9A      		sbi 43-32,2
 1030               	.LBE89:
 1031               	.LBE88:
 1032               	.LM210:
 1033 05f0 8FEF      		ldi r24,lo8(-1)
 1034 05f2 00C0      		rjmp .L107
 1035               	.L75:
 1036               	.LM211:
 1037 05f4 8130      		cpi r24,1
 1038 05f6 9105      		cpc r25,__zero_reg__
 1039 05f8 01F4      		brne .L76
 1040               	.L114:
 1041               	.LM212:
 1042 05fa 80E0      		ldi r24,lo8(0)
 1043 05fc 90E0      		ldi r25,hi8(0)
 1044               	.L104:
 1045 05fe 6091 0000 		lds r22,chan
 1046               	.L106:
 1047 0602 0E94 0000 		call prepareSetDAC
 1048               	.LBB90:
 1049               	.LBB91:
 1050               	.LM213:
 1051 0606 5A98      		cbi 43-32,2
 1052               	.LM214:
 1053 0608 5A9A      		sbi 43-32,2
 1054 060a 00C0      		rjmp .L38
 1055               	.L76:
 1056               	.LBE91:
 1057               	.LBE90:
 1058               	.LM215:
 1059 060c 8330      		cpi r24,3
 1060 060e 9105      		cpc r25,__zero_reg__
 1061 0610 01F0      		breq .+2
 1062 0612 00C0      		rjmp .L77
 1063               	.LM216:
 1064 0614 4091 0000 		lds r20,an_cnt
 1065 0618 5091 0000 		lds r21,(an_cnt)+1
 1066 061c 2091 0000 		lds r18,BIG_STAT_N
 1067 0620 822F      		mov r24,r18
 1068 0622 90E0      		ldi r25,lo8(0)
 1069 0624 4817      		cp r20,r24
 1070 0626 5907      		cpc r21,r25
 1071 0628 00F4      		brsh .L78
 1072               	.LM217:
 1073 062a 1092 0000 		sts STAT_V_step,__zero_reg__
 1074 062e 00C0      		rjmp .L79
 1075               	.L78:
 1076               	.LM218:
 1077 0630 822F      		mov r24,r18
 1078 0632 90E0      		ldi r25,lo8(0)
 1079 0634 9C01      		movw r18,r24
 1080 0636 220F      		lsl r18
 1081 0638 331F      		rol r19
 1082 063a 4217      		cp r20,r18
 1083 063c 5307      		cpc r21,r19
 1084 063e 00F4      		brsh .L80
 1085               	.LM219:
 1086 0640 81E0      		ldi r24,lo8(1)
 1087 0642 00C0      		rjmp .L103
 1088               	.L80:
 1089               	.LM220:
 1090 0644 280F      		add r18,r24
 1091 0646 391F      		adc r19,r25
 1092 0648 4217      		cp r20,r18
 1093 064a 5307      		cpc r21,r19
 1094 064c 00F4      		brsh .L81
 1095               	.LM221:
 1096 064e 82E0      		ldi r24,lo8(2)
 1097 0650 00C0      		rjmp .L103
 1098               	.L81:
 1099               	.LM222:
 1100 0652 9C01      		movw r18,r24
 1101 0654 220F      		lsl r18
 1102 0656 331F      		rol r19
 1103 0658 220F      		lsl r18
 1104 065a 331F      		rol r19
 1105 065c 4217      		cp r20,r18
 1106 065e 5307      		cpc r21,r19
 1107 0660 00F4      		brsh .L82
 1108               	.LM223:
 1109 0662 83E0      		ldi r24,lo8(3)
 1110 0664 00C0      		rjmp .L103
 1111               	.L82:
 1112               	.LM224:
 1113 0666 280F      		add r18,r24
 1114 0668 391F      		adc r19,r25
 1115 066a 4217      		cp r20,r18
 1116 066c 5307      		cpc r21,r19
 1117 066e 00F4      		brsh .L79
 1118               	.LM225:
 1119 0670 84E0      		ldi r24,lo8(4)
 1120               	.L103:
 1121 0672 8093 0000 		sts STAT_V_step,r24
 1122               	.L79:
 1123               	.LM226:
 1124 0676 8091 0000 		lds r24,STAT_V_step
 1125 067a 8093 C600 		sts 198,r24
 1126               	.LM227:
 1127 067e 90E0      		ldi r25,lo8(0)
 1128 0680 8095      		com r24
 1129 0682 9095      		com r25
 1130 0684 9695      		lsr r25
 1131 0686 982F      		mov r25,r24
 1132 0688 8827      		clr r24
 1133 068a 9795      		ror r25
 1134 068c 8795      		ror r24
 1135 068e 9093 0000 		sts (x16_grad)+1,r25
 1136 0692 8093 0000 		sts x16_grad,r24
 1137               	.LM228:
 1138 0696 6091 0000 		lds r22,chan
 1139 069a 0E94 0000 		call prepareSetDAC
 1140               	.LBB92:
 1141               	.LBB93:
 1142               	.LM229:
 1143 069e 5A98      		cbi 43-32,2
 1144               	.LM230:
 1145 06a0 5A9A      		sbi 43-32,2
 1146               	.LBE93:
 1147               	.LBE92:
 1148               	.LM231:
 1149 06a2 4091 0000 		lds r20,an_cnt_fast
 1150 06a6 5091 0000 		lds r21,(an_cnt_fast)+1
 1151 06aa 8091 0000 		lds r24,STAT_N
 1152 06ae 90E0      		ldi r25,lo8(0)
 1153 06b0 4817      		cp r20,r24
 1154 06b2 5907      		cpc r21,r25
 1155 06b4 00F4      		brsh .L83
 1156               	.LM232:
 1157 06b6 1092 0000 		sts STAT_dt_step,__zero_reg__
 1158 06ba 00C0      		rjmp .L84
 1159               	.L83:
 1160               	.LM233:
 1161 06bc 9C01      		movw r18,r24
 1162 06be 220F      		lsl r18
 1163 06c0 331F      		rol r19
 1164 06c2 4217      		cp r20,r18
 1165 06c4 5307      		cpc r21,r19
 1166 06c6 00F4      		brsh .L85
 1167               	.LM234:
 1168 06c8 81E0      		ldi r24,lo8(1)
 1169 06ca 8093 0000 		sts STAT_dt_step,r24
 1170 06ce 80E0      		ldi r24,lo8(0)
 1171 06d0 90E0      		ldi r25,hi8(0)
 1172               	.LVL15:
 1173               	.L86:
 1174               	.LBB94:
 1175               	.LBB95:
 1176               	.LBB96:
 1177               	.LM235:
 1178 06d2 5A98      		cbi 43-32,2
 1179               	.LM236:
 1180 06d4 5A9A      		sbi 43-32,2
 1181               	.LBE96:
 1182               	.LBE95:
 1183               	.LM237:
 1184 06d6 0196      		adiw r24,1
 1185 06d8 8832      		cpi r24,40
 1186 06da 9105      		cpc r25,__zero_reg__
 1187 06dc 01F4      		brne .L86
 1188 06de 00C0      		rjmp .L84
 1189               	.LVL16:
 1190               	.L85:
 1191               	.LBE94:
 1192               	.LM238:
 1193 06e0 280F      		add r18,r24
 1194 06e2 391F      		adc r19,r25
 1195 06e4 4217      		cp r20,r18
 1196 06e6 5307      		cpc r21,r19
 1197 06e8 00F4      		brsh .L87
 1198               	.LM239:
 1199 06ea 82E0      		ldi r24,lo8(2)
 1200 06ec 8093 0000 		sts STAT_dt_step,r24
 1201 06f0 80E0      		ldi r24,lo8(0)
 1202 06f2 90E0      		ldi r25,hi8(0)
 1203               	.LVL17:
 1204               	.L88:
 1205               	.LBB97:
 1206               	.LBB98:
 1207               	.LBB99:
 1208               	.LM240:
 1209 06f4 5A98      		cbi 43-32,2
 1210               	.LM241:
 1211 06f6 5A9A      		sbi 43-32,2
 1212               	.LBE99:
 1213               	.LBE98:
 1214               	.LM242:
 1215 06f8 0196      		adiw r24,1
 1216 06fa 803A      		cpi r24,160
 1217 06fc 9105      		cpc r25,__zero_reg__
 1218 06fe 01F4      		brne .L88
 1219 0700 00C0      		rjmp .L84
 1220               	.LVL18:
 1221               	.L87:
 1222               	.LBE97:
 1223               	.LM243:
 1224 0702 880F      		lsl r24
 1225 0704 991F      		rol r25
 1226 0706 880F      		lsl r24
 1227 0708 991F      		rol r25
 1228 070a 4817      		cp r20,r24
 1229 070c 5907      		cpc r21,r25
 1230 070e 00F4      		brsh .L89
 1231               	.LM244:
 1232 0710 83E0      		ldi r24,lo8(3)
 1233 0712 8093 0000 		sts STAT_dt_step,r24
 1234 0716 80E0      		ldi r24,lo8(0)
 1235 0718 90E0      		ldi r25,hi8(0)
 1236               	.LVL19:
 1237               	.L90:
 1238               	.LBB100:
 1239               	.LBB101:
 1240               	.LBB102:
 1241               	.LM245:
 1242 071a 5A98      		cbi 43-32,2
 1243               	.LM246:
 1244 071c 5A9A      		sbi 43-32,2
 1245               	.LBE102:
 1246               	.LBE101:
 1247               	.LM247:
 1248 071e 0196      		adiw r24,1
 1249 0720 22E0      		ldi r18,hi8(640)
 1250 0722 8038      		cpi r24,lo8(640)
 1251 0724 9207      		cpc r25,r18
 1252 0726 01F4      		brne .L90
 1253 0728 00C0      		rjmp .L84
 1254               	.LVL20:
 1255               	.L89:
 1256               	.LBE100:
 1257               	.LM248:
 1258 072a 8091 0000 		lds r24,BIG_STAT_N
 1259 072e 90E0      		ldi r25,lo8(0)
 1260 0730 4817      		cp r20,r24
 1261 0732 5907      		cpc r21,r25
 1262 0734 00F4      		brsh .L84
 1263               	.LM249:
 1264 0736 84E0      		ldi r24,lo8(4)
 1265 0738 8093 0000 		sts STAT_dt_step,r24
 1266 073c 80E0      		ldi r24,lo8(0)
 1267 073e 90E0      		ldi r25,hi8(0)
 1268               	.LVL21:
 1269               	.L91:
 1270               	.LBB103:
 1271               	.LBB104:
 1272               	.LBB105:
 1273               	.LM250:
 1274 0740 5A98      		cbi 43-32,2
 1275               	.LM251:
 1276 0742 5A9A      		sbi 43-32,2
 1277               	.LBE105:
 1278               	.LBE104:
 1279               	.LM252:
 1280 0744 0196      		adiw r24,1
 1281 0746 2AE0      		ldi r18,hi8(2560)
 1282 0748 8030      		cpi r24,lo8(2560)
 1283 074a 9207      		cpc r25,r18
 1284 074c 01F4      		brne .L91
 1285               	.LVL22:
 1286               	.L84:
 1287               	.LBE103:
 1288               	.LM253:
 1289 074e 8091 0000 		lds r24,chan
 1290               	.LVL23:
 1291 0752 0E94 0000 		call prepareResetDAC
 1292               	.LBB106:
 1293               	.LBB107:
 1294               	.LM254:
 1295 0756 5A98      		cbi 43-32,2
 1296               	.LM255:
 1297 0758 5A9A      		sbi 43-32,2
 1298               	.LBE107:
 1299               	.LBE106:
 1300               	.LM256:
 1301 075a 8091 0000 		lds r24,an_cnt
 1302 075e 9091 0000 		lds r25,(an_cnt)+1
 1303 0762 0196      		adiw r24,1
 1304 0764 9093 0000 		sts (an_cnt)+1,r25
 1305 0768 8093 0000 		sts an_cnt,r24
 1306               	.LM257:
 1307 076c 2091 0000 		lds r18,BIG_STAT_N
 1308 0770 45E0      		ldi r20,lo8(5)
 1309 0772 249F      		mul r18,r20
 1310 0774 9001      		movw r18,r0
 1311 0776 1124      		clr r1
 1312 0778 2817      		cp r18,r24
 1313 077a 3907      		cpc r19,r25
 1314 077c 00F4      		brsh .L92
 1315 077e 1092 0000 		sts (an_cnt)+1,__zero_reg__
 1316 0782 1092 0000 		sts an_cnt,__zero_reg__
 1317               	.L92:
 1318               	.LM258:
 1319 0786 6091 0000 		lds r22,BIG_STAT_N
 1320 078a 8091 0000 		lds r24,an_cnt
 1321 078e 9091 0000 		lds r25,(an_cnt)+1
 1322 0792 70E0      		ldi r23,lo8(0)
 1323 0794 0E94 0000 		call __udivmodhi4
 1324 0798 9093 0000 		sts (an_cnt_fast)+1,r25
 1325 079c 8093 0000 		sts an_cnt_fast,r24
 1326 07a0 00C0      		rjmp .L38
 1327               	.L77:
 1328               	.LM259:
 1329 07a2 8430      		cpi r24,4
 1330 07a4 9105      		cpc r25,__zero_reg__
 1331 07a6 01F4      		brne .L93
 1332               	.LM260:
 1333 07a8 8091 0000 		lds r24,STAT_dt_step
 1334               	.L115:
 1335 07ac 8093 C600 		sts 198,r24
 1336 07b0 00C0      		rjmp .L114
 1337               	.L93:
 1338               	.LM261:
 1339 07b2 8630      		cpi r24,6
 1340 07b4 9105      		cpc r25,__zero_reg__
 1341 07b6 01F4      		brne .L94
 1342               	.LM262:
 1343 07b8 8091 0000 		lds r24,ref16
 1344 07bc 9091 0000 		lds r25,(ref16)+1
 1345 07c0 6091 0000 		lds r22,chan
 1346               	.L108:
 1347 07c4 0E94 0000 		call prepareSetDAC
 1348               	.LBB108:
 1349               	.LBB109:
 1350               	.LM263:
 1351 07c8 5A98      		cbi 43-32,2
 1352               	.LM264:
 1353 07ca 5A9A      		sbi 43-32,2
 1354               	.L110:
 1355               	.LBE109:
 1356               	.LBE108:
 1357               	.LM265:
 1358 07cc 8091 7A00 		lds r24,122
 1359 07d0 8064      		ori r24,lo8(64)
 1360 07d2 8093 7A00 		sts 122,r24
 1361 07d6 00C0      		rjmp .L38
 1362               	.L94:
 1363               	.LM266:
 1364 07d8 8730      		cpi r24,7
 1365 07da 9105      		cpc r25,__zero_reg__
 1366 07dc 01F4      		brne .L95
 1367               	.LM267:
 1368 07de 80E0      		ldi r24,lo8(0)
 1369 07e0 90E0      		ldi r25,hi8(0)
 1370 07e2 6091 0000 		lds r22,chan
 1371 07e6 0E94 0000 		call prepareSetDAC
 1372               	.LBB110:
 1373               	.LBB111:
 1374               	.LM268:
 1375 07ea 5A98      		cbi 43-32,2
 1376               	.LM269:
 1377 07ec 5A9A      		sbi 43-32,2
 1378               	.L109:
 1379               	.LBE111:
 1380               	.LBE110:
 1381               	.LM270:
 1382 07ee 9091 7800 		lds r25,120
 1383 07f2 9093 0000 		sts ADCL_,r25
 1384               	.LM271:
 1385 07f6 8091 7900 		lds r24,121
 1386 07fa 8093 0000 		sts ADCH_,r24
 1387               	.LM272:
 1388 07fe 9093 C600 		sts 198,r25
 1389 0802 00C0      		rjmp .L38
 1390               	.L95:
 1391               	.LM273:
 1392 0804 0897      		sbiw r24,8
 1393 0806 01F4      		brne .L38
 1394               	.LM274:
 1395 0808 8091 0000 		lds r24,ADCH_
 1396               	.L107:
 1397 080c 8093 C600 		sts 198,r24
 1398               	.L38:
 1399               	.LM275:
 1400 0810 1092 0000 		sts (ctr)+1,__zero_reg__
 1401 0814 1092 0000 		sts ctr,__zero_reg__
 1402               	.LM276:
 1403 0818 8091 0000 		lds r24,MD
 1404 081c 2091 0000 		lds r18,event_cnt
 1405 0820 3091 0000 		lds r19,(event_cnt)+1
 1406 0824 8530      		cpi r24,lo8(5)
 1407 0826 01F0      		breq .L96
 1408               	.LM277:
 1409 0828 2F5F      		subi r18,lo8(-(1))
 1410 082a 3F4F      		sbci r19,hi8(-(1))
 1411 082c 3093 0000 		sts (event_cnt)+1,r19
 1412 0830 2093 0000 		sts event_cnt,r18
 1413               	.LM278:
 1414 0834 8091 0000 		lds r24,T
 1415 0838 90E0      		ldi r25,lo8(0)
 1416 083a 8217      		cp r24,r18
 1417 083c 9307      		cpc r25,r19
 1418 083e 04F4      		brge .L33
 1419               	.LM279:
 1420 0840 1092 0000 		sts (event_cnt)+1,__zero_reg__
 1421 0844 1092 0000 		sts event_cnt,__zero_reg__
 1422 0848 00C0      		rjmp .L33
 1423               	.L96:
 1424               	.LM280:
 1425 084a 2031      		cpi r18,16
 1426 084c 3105      		cpc r19,__zero_reg__
 1427 084e 04F4      		brge .L33
 1428               	.LM281:
 1429 0850 2F5F      		subi r18,lo8(-(1))
 1430 0852 3F4F      		sbci r19,hi8(-(1))
 1431 0854 3093 0000 		sts (event_cnt)+1,r19
 1432 0858 2093 0000 		sts event_cnt,r18
 1433               	.L33:
 1434               	.LM282:
 1435 085c 8091 0000 		lds r24,ctr
 1436 0860 9091 0000 		lds r25,(ctr)+1
 1437 0864 0196      		adiw r24,1
 1438 0866 9093 0000 		sts (ctr)+1,r25
 1439 086a 8093 0000 		sts ctr,r24
 1440               	/* epilogue start */
 1441               	.LM283:
 1442 086e FF91      		pop r31
 1443 0870 EF91      		pop r30
 1444 0872 BF91      		pop r27
 1445 0874 AF91      		pop r26
 1446 0876 9F91      		pop r25
 1447 0878 8F91      		pop r24
 1448 087a 7F91      		pop r23
 1449 087c 6F91      		pop r22
 1450 087e 5F91      		pop r21
 1451 0880 4F91      		pop r20
 1452 0882 3F91      		pop r19
 1453 0884 2F91      		pop r18
 1454 0886 0F90      		pop r0
 1455 0888 0FBE      		out __SREG__,r0
 1456 088a 0F90      		pop r0
 1457 088c 1F90      		pop __zero_reg__
 1458 088e 1895      		reti
 1459               	.LFE18:
 1461               	.global	__vector_18
 1463               	__vector_18:
 1464               	.LFB19:
 1465               	.LM284:
 1466 0890 1F92      		push __zero_reg__
 1467 0892 0F92      		push r0
 1468 0894 0FB6      		in r0,__SREG__
 1469 0896 0F92      		push r0
 1470 0898 1124      		clr __zero_reg__
 1471 089a 2F93      		push r18
 1472 089c 3F93      		push r19
 1473 089e 4F93      		push r20
 1474 08a0 5F93      		push r21
 1475 08a2 6F93      		push r22
 1476 08a4 7F93      		push r23
 1477 08a6 8F93      		push r24
 1478 08a8 9F93      		push r25
 1479 08aa AF93      		push r26
 1480 08ac BF93      		push r27
 1481 08ae EF93      		push r30
 1482 08b0 FF93      		push r31
 1483               	/* prologue: Signal */
 1484               	/* frame size = 0 */
 1485               	.LM285:
 1486 08b2 8091 0000 		lds r24,ptr
 1487 08b6 8430      		cpi r24,lo8(4)
 1488 08b8 01F4      		brne .+2
 1489 08ba 00C0      		rjmp .L123
 1490 08bc 8530      		cpi r24,lo8(5)
 1491 08be 00F4      		brsh .L129
 1492 08c0 8130      		cpi r24,lo8(1)
 1493 08c2 01F0      		breq .L120
 1494 08c4 8130      		cpi r24,lo8(1)
 1495 08c6 00F0      		brlo .L119
 1496 08c8 8230      		cpi r24,lo8(2)
 1497 08ca 01F4      		brne .+2
 1498 08cc 00C0      		rjmp .L121
 1499 08ce 8330      		cpi r24,lo8(3)
 1500 08d0 01F0      		breq .+2
 1501 08d2 00C0      		rjmp .L118
 1502 08d4 00C0      		rjmp .L136
 1503               	.L129:
 1504 08d6 8730      		cpi r24,lo8(7)
 1505 08d8 01F4      		brne .+2
 1506 08da 00C0      		rjmp .L126
 1507 08dc 8830      		cpi r24,lo8(8)
 1508 08de 00F4      		brsh .L130
 1509 08e0 8530      		cpi r24,lo8(5)
 1510 08e2 01F4      		brne .+2
 1511 08e4 00C0      		rjmp .L124
 1512 08e6 8630      		cpi r24,lo8(6)
 1513 08e8 01F0      		breq .+2
 1514 08ea 00C0      		rjmp .L118
 1515 08ec 00C0      		rjmp .L137
 1516               	.L130:
 1517 08ee 8830      		cpi r24,lo8(8)
 1518 08f0 01F4      		brne .+2
 1519 08f2 00C0      		rjmp .L127
 1520 08f4 8930      		cpi r24,lo8(9)
 1521 08f6 01F0      		breq .+2
 1522 08f8 00C0      		rjmp .L118
 1523 08fa 00C0      		rjmp .L138
 1524               	.L119:
 1525               	.LM286:
 1526 08fc 8091 C600 		lds r24,198
 1527 0900 8F3F      		cpi r24,lo8(-1)
 1528 0902 01F0      		breq .L131
 1529               	.LM287:
 1530 0904 1092 0000 		sts sync,__zero_reg__
 1531               	.LM288:
 1532 0908 83E0      		ldi r24,lo8(3)
 1533 090a 8093 0000 		sts ptr,r24
 1534 090e 00C0      		rjmp .L118
 1535               	.L131:
 1536               	.LM289:
 1537 0910 81E0      		ldi r24,lo8(1)
 1538 0912 8093 0000 		sts sync,r24
 1539 0916 00C0      		rjmp .L118
 1540               	.L120:
 1541               	.LM290:
 1542 0918 2091 C600 		lds r18,198
 1543 091c 2093 0000 		sts MD,r18
 1544               	.LM291:
 1545 0920 2130      		cpi r18,lo8(1)
 1546 0922 01F4      		brne .L132
 1547               	.LM292:
 1548 0924 84E0      		ldi r24,lo8(4)
 1549 0926 90E0      		ldi r25,hi8(4)
 1550 0928 9093 0000 		sts (time_step)+1,r25
 1551 092c 8093 0000 		sts time_step,r24
 1552 0930 00C0      		rjmp .L118
 1553               	.L132:
 1554               	.LM293:
 1555 0932 86E0      		ldi r24,lo8(6)
 1556 0934 90E0      		ldi r25,hi8(6)
 1557 0936 9093 0000 		sts (time_step)+1,r25
 1558 093a 8093 0000 		sts time_step,r24
 1559               	.LM294:
 1560 093e 2230      		cpi r18,lo8(2)
 1561 0940 01F0      		breq .+2
 1562 0942 00C0      		rjmp .L118
 1563               	.LM295:
 1564 0944 1092 0000 		sts PROGRAM_done,__zero_reg__
 1565               	.LM296:
 1566 0948 1092 0000 		sts (prog_val)+1,__zero_reg__
 1567 094c 1092 0000 		sts prog_val,__zero_reg__
 1568 0950 00C0      		rjmp .L118
 1569               	.L121:
 1570               	.LM297:
 1571 0952 8091 C600 		lds r24,198
 1572 0956 90E0      		ldi r25,lo8(0)
 1573 0958 9093 0000 		sts (x16_simple)+1,r25
 1574 095c 8093 0000 		sts x16_simple,r24
 1575               	.LM298:
 1576 0960 44E0      		ldi r20,4
 1577 0962 880F      	1:	lsl r24
 1578 0964 991F      		rol r25
 1579 0966 4A95      		dec r20
 1580 0968 01F4      		brne 1b
 1581 096a 9093 0000 		sts (x16)+1,r25
 1582 096e 8093 0000 		sts x16,r24
 1583 0972 00C0      		rjmp .L118
 1584               	.L136:
 1585               	.LM299:
 1586 0974 8091 C600 		lds r24,198
 1587 0978 90E0      		ldi r25,lo8(0)
 1588 097a 34E0      		ldi r19,4
 1589 097c 880F      	1:	lsl r24
 1590 097e 991F      		rol r25
 1591 0980 3A95      		dec r19
 1592 0982 01F4      		brne 1b
 1593 0984 9093 0000 		sts (ref16)+1,r25
 1594 0988 8093 0000 		sts ref16,r24
 1595 098c 00C0      		rjmp .L118
 1596               	.L123:
 1597               	.LM300:
 1598 098e 8091 0000 		lds r24,MD
 1599 0992 8230      		cpi r24,lo8(2)
 1600 0994 01F4      		brne .L133
 1601               	.LM301:
 1602 0996 8091 C600 		lds r24,198
 1603 099a 8093 0000 		sts t1,r24
 1604 099e 00C0      		rjmp .L118
 1605               	.L133:
 1606               	.LM302:
 1607 09a0 8091 C600 		lds r24,198
 1608 09a4 90E0      		ldi r25,lo8(0)
 1609 09a6 24E0      		ldi r18,4
 1610 09a8 880F      	1:	lsl r24
 1611 09aa 991F      		rol r25
 1612 09ac 2A95      		dec r18
 1613 09ae 01F4      		brne 1b
 1614 09b0 9093 0000 		sts (reset16)+1,r25
 1615 09b4 8093 0000 		sts reset16,r24
 1616 09b8 00C0      		rjmp .L118
 1617               	.L124:
 1618               	.LM303:
 1619 09ba 8091 C600 		lds r24,198
 1620 09be 8093 0000 		sts t2,r24
 1621 09c2 00C0      		rjmp .L118
 1622               	.L137:
 1623               	.LM304:
 1624 09c4 8091 C600 		lds r24,198
 1625 09c8 8093 0000 		sts dT,r24
 1626 09cc 00C0      		rjmp .L118
 1627               	.L126:
 1628               	.LM305:
 1629 09ce 8091 C600 		lds r24,198
 1630 09d2 8093 0000 		sts T,r24
 1631 09d6 00C0      		rjmp .L118
 1632               	.L127:
 1633               	.LM306:
 1634 09d8 8091 C600 		lds r24,198
 1635 09dc 8093 0000 		sts chan,r24
 1636 09e0 00C0      		rjmp .L118
 1637               	.L138:
 1638               	.LM307:
 1639 09e2 8091 C600 		lds r24,198
 1640 09e6 E091 0000 		lds r30,chan
 1641 09ea F0E0      		ldi r31,lo8(0)
 1642 09ec E050      		subi r30,lo8(-(reverted))
 1643 09ee F040      		sbci r31,hi8(-(reverted))
 1644 09f0 8083      		st Z,r24
 1645               	.LM308:
 1646 09f2 8091 0000 		lds r24,MD
 1647 09f6 8330      		cpi r24,lo8(3)
 1648 09f8 01F4      		brne .L134
 1649               	.LM309:
 1650 09fa 0E94 0000 		call gatherMult
 1651 09fe 00C0      		rjmp .L118
 1652               	.L134:
 1653               	.LM310:
 1654 0a00 8430      		cpi r24,lo8(4)
 1655 0a02 01F4      		brne .L118
 1656               	.LM311:
 1657 0a04 0E94 0000 		call separMult
 1658               	.L118:
 1659               	.LM312:
 1660 0a08 8091 0000 		lds r24,t2
 1661 0a0c 9091 0000 		lds r25,dT
 1662 0a10 890F      		add r24,r25
 1663 0a12 8093 0000 		sts dTt2,r24
 1664               	.LM313:
 1665 0a16 8091 0000 		lds r24,ptr
 1666 0a1a 8F5F      		subi r24,lo8(-(1))
 1667 0a1c 6AE0      		ldi r22,lo8(10)
 1668 0a1e 0E94 0000 		call __udivmodqi4
 1669 0a22 9093 0000 		sts ptr,r25
 1670               	/* epilogue start */
 1671               	.LM314:
 1672 0a26 FF91      		pop r31
 1673 0a28 EF91      		pop r30
 1674 0a2a BF91      		pop r27
 1675 0a2c AF91      		pop r26
 1676 0a2e 9F91      		pop r25
 1677 0a30 8F91      		pop r24
 1678 0a32 7F91      		pop r23
 1679 0a34 6F91      		pop r22
 1680 0a36 5F91      		pop r21
 1681 0a38 4F91      		pop r20
 1682 0a3a 3F91      		pop r19
 1683 0a3c 2F91      		pop r18
 1684 0a3e 0F90      		pop r0
 1685 0a40 0FBE      		out __SREG__,r0
 1686 0a42 0F90      		pop r0
 1687 0a44 1F90      		pop __zero_reg__
 1688 0a46 1895      		reti
 1689               	.LFE19:
 1691               	.global	MD
 1692               	.global	MD
 1693               		.section .bss
 1696               	MD:
 1697 0000 00        		.skip 1,0
 1698               	.global	STAT_N
 1699               		.data
 1702               	STAT_N:
 1703 0000 0E        		.byte	14
 1704               	.global	STAT_CYCLE
 1707               	STAT_CYCLE:
 1708 0001 05        		.byte	5
 1709               	.global	chan_addrs
 1712               	chan_addrs:
 1713 0002 00        		.byte	0
 1714 0003 01        		.byte	1
 1715 0004 02        		.byte	2
 1716 0005 03        		.byte	3
 1717 0006 07        		.byte	7
 1718 0007 06        		.byte	6
 1719 0008 05        		.byte	5
 1720 0009 04        		.byte	4
 1721               	.global	VAC16
 1722               	.global	VAC16
 1723               		.section .bss
 1726               	VAC16:
 1727 0001 0000      		.skip 2,0
 1728               	.global	VAC16_H
 1729               	.global	VAC16_H
 1732               	VAC16_H:
 1733 0003 0000      		.skip 2,0
 1734               	.global	VAC16_HH
 1735               	.global	VAC16_HH
 1738               	VAC16_HH:
 1739 0005 0000      		.skip 2,0
 1740               	.global	prog_val
 1741               	.global	prog_val
 1744               	prog_val:
 1745 0007 0000      		.skip 2,0
 1746               	.global	x16
 1747               	.global	x16
 1750               	x16:
 1751 0009 0000      		.skip 2,0
 1752               	.global	ref16
 1753               	.global	ref16
 1756               	ref16:
 1757 000b 0000      		.skip 2,0
 1758               	.global	reset16
 1759               	.global	reset16
 1762               	reset16:
 1763 000d 0000      		.skip 2,0
 1764               	.global	sync
 1765               	.global	sync
 1768               	sync:
 1769 000f 00        		.skip 1,0
 1770               	.global	t1
 1771               		.data
 1774               	t1:
 1775 000a 02        		.byte	2
 1776               	.global	t2
 1779               	t2:
 1780 000b 02        		.byte	2
 1781               	.global	dTt2
 1784               	dTt2:
 1785 000c 0A        		.byte	10
 1786               	.global	pos_phase
 1789               	pos_phase:
 1790 000d 01        		.byte	1
 1791               	.global	STAT_dt_step
 1792               	.global	STAT_dt_step
 1793               		.section .bss
 1796               	STAT_dt_step:
 1797 0010 00        		.skip 1,0
 1798               	.global	STAT_V_step
 1799               	.global	STAT_V_step
 1802               	STAT_V_step:
 1803 0011 00        		.skip 1,0
 1804               	.global	ptr
 1805               	.global	ptr
 1808               	ptr:
 1809 0012 00        		.skip 1,0
 1810               	.global	PROGRAM_done
 1811               	.global	PROGRAM_done
 1814               	PROGRAM_done:
 1815 0013 00        		.skip 1,0
 1816               	.global	chan
 1817               	.global	chan
 1820               	chan:
 1821 0014 00        		.skip 1,0
 1822               	.global	an_cnt
 1823               	.global	an_cnt
 1826               	an_cnt:
 1827 0015 0000      		.skip 2,0
 1828               	.global	an_cnt_fast
 1829               	.global	an_cnt_fast
 1832               	an_cnt_fast:
 1833 0017 0000      		.skip 2,0
 1834               	.global	reverted
 1835               	.global	reverted
 1838               	reverted:
 1839 0019 0000 0000 		.skip 8,0
 1839      0000 0000 
 1840               	.global	time_step
 1841               		.data
 1844               	time_step:
 1845 000e 0600      		.word	6
 1846               	.global	eventN
 1849               	eventN:
 1850 0010 6400      		.word	100
 1851               		.lcomm adc_h.1513,2
 1852               		.lcomm i.1506,2
 1853               		.comm BIG_STAT_N,1,1
 1854               		.comm x16_grad,2,1
 1855               		.comm x16_simple,2,1
 1856               		.comm dT,1,1
 1857               		.comm T,1,1
 1858               		.comm send8,1,1
 1859               		.comm UDP_cnt,1,1
 1860               		.comm c,1,1
 1861               		.comm ADC_on,1,1
 1862               		.comm _adc,2,1
 1863               		.comm ctr,2,1
 1864               		.comm accum,2,1
 1865               		.comm event_cnt,2,1
 1866               		.comm ADC_cnt,2,1
 1867               		.comm ADCH_,1,1
 1868               		.comm ADCL_,1,1
 1869               		.comm ADCH__,1,1
 1870               		.comm ADCL__,1,1
 1871               		.comm accum_cnt,1,1
 2000               	.Letext0:
DEFINED SYMBOLS
                            *ABS*:00000000 main.c
C:\Users\DrPepper\AppData\Local\Temp/cce5y0el.s:2      *ABS*:0000003f __SREG__
C:\Users\DrPepper\AppData\Local\Temp/cce5y0el.s:3      *ABS*:0000003e __SP_H__
C:\Users\DrPepper\AppData\Local\Temp/cce5y0el.s:4      *ABS*:0000003d __SP_L__
C:\Users\DrPepper\AppData\Local\Temp/cce5y0el.s:5      *ABS*:00000034 __CCP__
C:\Users\DrPepper\AppData\Local\Temp/cce5y0el.s:6      *ABS*:00000000 __tmp_reg__
C:\Users\DrPepper\AppData\Local\Temp/cce5y0el.s:7      *ABS*:00000001 __zero_reg__
C:\Users\DrPepper\AppData\Local\Temp/cce5y0el.s:18     .text:00000000 ADC_Init
C:\Users\DrPepper\AppData\Local\Temp/cce5y0el.s:42     .text:00000016 timer_init
C:\Users\DrPepper\AppData\Local\Temp/cce5y0el.s:67     .text:0000002e uart_init
C:\Users\DrPepper\AppData\Local\Temp/cce5y0el.s:92     .text:00000044 SPI_MasterInit
C:\Users\DrPepper\AppData\Local\Temp/cce5y0el.s:110    .text:0000004e gatherMult
C:\Users\DrPepper\AppData\Local\Temp/cce5y0el.s:138    .text:00000060 separMult
C:\Users\DrPepper\AppData\Local\Temp/cce5y0el.s:166    .text:00000072 SPI_WriteByte
C:\Users\DrPepper\AppData\Local\Temp/cce5y0el.s:186    .text:0000007c prepareResetDAC
C:\Users\DrPepper\AppData\Local\Temp/cce5y0el.s:1712   .data:00000002 chan_addrs
C:\Users\DrPepper\AppData\Local\Temp/cce5y0el.s:221    .text:000000a0 prepareSetDAC
                            *COM*:00000001 send8
C:\Users\DrPepper\AppData\Local\Temp/cce5y0el.s:279    .text:000000ea set_reverser
C:\Users\DrPepper\AppData\Local\Temp/cce5y0el.s:292    .text:000000ec setDAC
C:\Users\DrPepper\AppData\Local\Temp/cce5y0el.s:308    .text:000000f2 main
C:\Users\DrPepper\AppData\Local\Temp/cce5y0el.s:1707   .data:00000001 STAT_CYCLE
C:\Users\DrPepper\AppData\Local\Temp/cce5y0el.s:1702   .data:00000000 STAT_N
                            *COM*:00000001 BIG_STAT_N
C:\Users\DrPepper\AppData\Local\Temp/cce5y0el.s:443    .text:000001a4 __vector_9
                            *COM*:00000002 ctr
C:\Users\DrPepper\AppData\Local\Temp/cce5y0el.s:1844   .data:0000000e time_step
C:\Users\DrPepper\AppData\Local\Temp/cce5y0el.s:1696   .bss:00000000 MD
                            *COM*:00000002 event_cnt
                            *COM*:00000001 ADCL_
                            *COM*:00000001 ADCH_
C:\Users\DrPepper\AppData\Local\Temp/cce5y0el.s:1774   .data:0000000a t1
                            *COM*:00000001 dT
C:\Users\DrPepper\AppData\Local\Temp/cce5y0el.s:1784   .data:0000000c dTt2
                            *COM*:00000002 _adc
                            *COM*:00000002 accum
                            *COM*:00000001 ADC_on
                            *COM*:00000001 accum_cnt
C:\Users\DrPepper\AppData\Local\Temp/cce5y0el.s:1851   .bss:00000023 i.1506
                            *COM*:00000001 UDP_cnt
                            *COM*:00000001 ADCL__
                            *COM*:00000001 ADCH__
C:\Users\DrPepper\AppData\Local\Temp/cce5y0el.s:1726   .bss:00000001 VAC16
C:\Users\DrPepper\AppData\Local\Temp/cce5y0el.s:1732   .bss:00000003 VAC16_H
C:\Users\DrPepper\AppData\Local\Temp/cce5y0el.s:1789   .data:0000000d pos_phase
C:\Users\DrPepper\AppData\Local\Temp/cce5y0el.s:1756   .bss:0000000b ref16
C:\Users\DrPepper\AppData\Local\Temp/cce5y0el.s:1750   .bss:00000009 x16
C:\Users\DrPepper\AppData\Local\Temp/cce5y0el.s:1820   .bss:00000014 chan
                            *COM*:00000001 T
C:\Users\DrPepper\AppData\Local\Temp/cce5y0el.s:1814   .bss:00000013 PROGRAM_done
                             .bss:00000021 adc_h.1513
C:\Users\DrPepper\AppData\Local\Temp/cce5y0el.s:1744   .bss:00000007 prog_val
C:\Users\DrPepper\AppData\Local\Temp/cce5y0el.s:1779   .data:0000000b t2
C:\Users\DrPepper\AppData\Local\Temp/cce5y0el.s:1762   .bss:0000000d reset16
C:\Users\DrPepper\AppData\Local\Temp/cce5y0el.s:1826   .bss:00000015 an_cnt
C:\Users\DrPepper\AppData\Local\Temp/cce5y0el.s:1802   .bss:00000011 STAT_V_step
                            *COM*:00000002 x16_grad
C:\Users\DrPepper\AppData\Local\Temp/cce5y0el.s:1832   .bss:00000017 an_cnt_fast
C:\Users\DrPepper\AppData\Local\Temp/cce5y0el.s:1796   .bss:00000010 STAT_dt_step
C:\Users\DrPepper\AppData\Local\Temp/cce5y0el.s:1463   .text:00000890 __vector_18
C:\Users\DrPepper\AppData\Local\Temp/cce5y0el.s:1808   .bss:00000012 ptr
C:\Users\DrPepper\AppData\Local\Temp/cce5y0el.s:1768   .bss:0000000f sync
                            *COM*:00000002 x16_simple
C:\Users\DrPepper\AppData\Local\Temp/cce5y0el.s:1838   .bss:00000019 reverted
C:\Users\DrPepper\AppData\Local\Temp/cce5y0el.s:1738   .bss:00000005 VAC16_HH
C:\Users\DrPepper\AppData\Local\Temp/cce5y0el.s:1849   .data:00000010 eventN
                            *COM*:00000001 c
                            *COM*:00000002 ADC_cnt

UNDEFINED SYMBOLS
__udivmodqi4
__udivmodhi4
__do_copy_data
__do_clear_bss
