   1               		.file	"main.c"
   2               	__SREG__ = 0x3f
   3               	__SP_H__ = 0x3e
   4               	__SP_L__ = 0x3d
   5               	__CCP__  = 0x34
   6               	__tmp_reg__ = 0
   7               	__zero_reg__ = 1
  15               	.Ltext0:
  16               	.global	ADC_Init
  18               	ADC_Init:
  19               	.LFB6:
  20               	.LM1:
  21               	/* prologue: function */
  22               	/* frame size = 0 */
  23               	.LM2:
  24 0000 EAE7      		ldi r30,lo8(122)
  25 0002 F0E0      		ldi r31,hi8(122)
  26 0004 8081      		ld r24,Z
  27 0006 8368      		ori r24,lo8(-125)
  28 0008 8083      		st Z,r24
  29               	.LM3:
  30 000a ECE7      		ldi r30,lo8(124)
  31 000c F0E0      		ldi r31,hi8(124)
  32 000e 8081      		ld r24,Z
  33 0010 8064      		ori r24,lo8(64)
  34 0012 8083      		st Z,r24
  35               	/* epilogue start */
  36               	.LM4:
  37 0014 0895      		ret
  38               	.LFE6:
  40               	.global	timer_init
  42               	timer_init:
  43               	.LFB7:
  44               	.LM5:
  45               	/* prologue: function */
  46               	/* frame size = 0 */
  47               	.LM6:
  48 0016 1092 B000 		sts 176,__zero_reg__
  49               	.LM7:
  50 001a E1EB      		ldi r30,lo8(177)
  51 001c F0E0      		ldi r31,hi8(177)
  52 001e 1082      		st Z,__zero_reg__
  53               	.LM8:
  54 0020 8081      		ld r24,Z
  55 0022 8260      		ori r24,lo8(2)
  56 0024 8083      		st Z,r24
  57               	.LM9:
  58 0026 81E0      		ldi r24,lo8(1)
  59 0028 8093 7000 		sts 112,r24
  60               	/* epilogue start */
  61               	.LM10:
  62 002c 0895      		ret
  63               	.LFE7:
  65               	.global	uart_init
  67               	uart_init:
  68               	.LFB8:
  69               	.LM11:
  70               	.LVL0:
  71               	/* prologue: function */
  72               	/* frame size = 0 */
  73               	.LM12:
  74 002e 9093 C500 		sts 197,r25
  75               	.LVL1:
  76               	.LM13:
  77 0032 8093 C400 		sts 196,r24
  78               	.LM14:
  79 0036 88E9      		ldi r24,lo8(-104)
  80               	.LVL2:
  81 0038 8093 C100 		sts 193,r24
  82               	.LM15:
  83 003c 8EE0      		ldi r24,lo8(14)
  84 003e 8093 C200 		sts 194,r24
  85               	/* epilogue start */
  86               	.LM16:
  87 0042 0895      		ret
  88               	.LFE8:
  90               	.global	SPI_MasterInit
  92               	SPI_MasterInit:
  93               	.LFB9:
  94               	.LM17:
  95               	/* prologue: function */
  96               	/* frame size = 0 */
  97               	.LM18:
  98 0044 8CE2      		ldi r24,lo8(44)
  99 0046 84B9      		out 36-32,r24
 100               	.LM19:
 101 0048 88E5      		ldi r24,lo8(88)
 102 004a 8CBD      		out 76-32,r24
 103               	/* epilogue start */
 104               	.LM20:
 105 004c 0895      		ret
 106               	.LFE9:
 108               	.global	gatherMult
 110               	gatherMult:
 111               	.LFB12:
 112               	.LM21:
 113               	/* prologue: function */
 114               	/* frame size = 0 */
 115               	.LM22:
 116 004e 5E98      		cbi 43-32,6
 117               	.LM23:
 118 0050 5F98      		cbi 43-32,7
 119               	.LM24:
 120 0052 5D98      		cbi 43-32,5
 121               	.LM25:
 122 0054 4498      		cbi 40-32,4
 123               	.LM26:
 124 0056 419A      		sbi 40-32,1
 125               	.LM27:
 126 0058 2A9A      		sbi 37-32,2
 127               	.LM28:
 128 005a 299A      		sbi 37-32,1
 129               	.LM29:
 130 005c 289A      		sbi 37-32,0
 131               	/* epilogue start */
 132               	.LM30:
 133 005e 0895      		ret
 134               	.LFE12:
 136               	.global	separMult
 138               	separMult:
 139               	.LFB13:
 140               	.LM31:
 141               	/* prologue: function */
 142               	/* frame size = 0 */
 143               	.LM32:
 144 0060 2998      		cbi 37-32,1
 145               	.LM33:
 146 0062 2A98      		cbi 37-32,2
 147               	.LM34:
 148 0064 4198      		cbi 40-32,1
 149               	.LM35:
 150 0066 449A      		sbi 40-32,4
 151               	.LM36:
 152 0068 5E9A      		sbi 43-32,6
 153               	.LM37:
 154 006a 5F9A      		sbi 43-32,7
 155               	.LM38:
 156 006c 289A      		sbi 37-32,0
 157               	.LM39:
 158 006e 5D9A      		sbi 43-32,5
 159               	/* epilogue start */
 160               	.LM40:
 161 0070 0895      		ret
 162               	.LFE13:
 164               	.global	SPI_WriteByte
 166               	SPI_WriteByte:
 167               	.LFB14:
 168               	.LM41:
 169               	.LVL3:
 170               	/* prologue: function */
 171               	/* frame size = 0 */
 172               	.LM42:
 173 0072 8EBD      		out 78-32,r24
 174               	.L14:
 175               	.LM43:
 176 0074 0DB4      		in __tmp_reg__,77-32
 177 0076 07FE      		sbrs __tmp_reg__,7
 178 0078 00C0      		rjmp .L14
 179               	/* epilogue start */
 180               	.LM44:
 181 007a 0895      		ret
 182               	.LFE14:
 184               	.global	prepareResetDAC
 186               	prepareResetDAC:
 187               	.LFB11:
 188               	.LM45:
 189               	.LVL4:
 190 007c 0F93      		push r16
 191 007e 1F93      		push r17
 192 0080 CF93      		push r28
 193 0082 DF93      		push r29
 194               	/* prologue: function */
 195               	/* frame size = 0 */
 196               	.LM46:
 197 0084 9BB1      		in r25,43-32
 198 0086 282F      		mov r18,r24
 199 0088 2595      		asr r18
 200 008a 2595      		asr r18
 201 008c 2595      		asr r18
 202 008e C22F      		mov r28,r18
 203 0090 DD27      		clr r29
 204 0092 C7FD      		sbrc r28,7
 205 0094 D095      		com r29
 206 0096 C050      		subi r28,lo8(-(SYNC_PINS))
 207 0098 D040      		sbci r29,hi8(-(SYNC_PINS))
 208 009a 01E0      		ldi r16,lo8(1)
 209 009c 10E0      		ldi r17,hi8(1)
 210 009e 9801      		movw r18,r16
 211 00a0 0880      		ld r0,Y
 212 00a2 00C0      		rjmp 2f
 213 00a4 220F      	1:	lsl r18
 214 00a6 331F      		rol r19
 215 00a8 0A94      	2:	dec r0
 216 00aa 02F4      		brpl 1b
 217 00ac 2095      		com r18
 218 00ae 2923      		and r18,r25
 219 00b0 2BB9      		out 43-32,r18
 220               	.LM47:
 221 00b2 68E0      		ldi r22,lo8(8)
 222 00b4 0E94 0000 		call __divmodqi4
 223               	.LVL5:
 224 00b8 E92F      		mov r30,r25
 225 00ba FF27      		clr r31
 226 00bc E7FD      		sbrc r30,7
 227 00be F095      		com r31
 228 00c0 E050      		subi r30,lo8(-(chan_addrs))
 229 00c2 F040      		sbci r31,hi8(-(chan_addrs))
 230 00c4 8081      		ld r24,Z
 231 00c6 8860      		ori r24,lo8(8)
 232 00c8 90E0      		ldi r25,lo8(0)
 233 00ca 0E94 0000 		call SPI_WriteByte
 234               	.LM48:
 235 00ce 80E0      		ldi r24,lo8(0)
 236 00d0 90E0      		ldi r25,hi8(0)
 237 00d2 0E94 0000 		call SPI_WriteByte
 238               	.LM49:
 239 00d6 8BB1      		in r24,43-32
 240 00d8 0880      		ld r0,Y
 241 00da 00C0      		rjmp 2f
 242 00dc 000F      	1:	lsl r16
 243 00de 111F      		rol r17
 244 00e0 0A94      	2:	dec r0
 245 00e2 02F4      		brpl 1b
 246 00e4 802B      		or r24,r16
 247 00e6 8BB9      		out 43-32,r24
 248               	/* epilogue start */
 249               	.LM50:
 250 00e8 DF91      		pop r29
 251 00ea CF91      		pop r28
 252 00ec 1F91      		pop r17
 253 00ee 0F91      		pop r16
 254 00f0 0895      		ret
 255               	.LFE11:
 257               	.global	prepareSetDAC
 259               	prepareSetDAC:
 260               	.LFB10:
 261               	.LM51:
 262               	.LVL6:
 263 00f2 CF92      		push r12
 264 00f4 DF92      		push r13
 265 00f6 EF92      		push r14
 266 00f8 FF92      		push r15
 267 00fa 0F93      		push r16
 268 00fc 1F93      		push r17
 269               	/* prologue: function */
 270               	/* frame size = 0 */
 271 00fe E62F      		mov r30,r22
 272               	.LM52:
 273 0100 0027      		clr r16
 274 0102 1127      		clr r17
 275 0104 081B      		sub r16,r24
 276 0106 190B      		sbc r17,r25
 277               	.LVL7:
 278               	.LM53:
 279 0108 0050      		subi r16,lo8(-(2048))
 280 010a 184F      		sbci r17,hi8(-(2048))
 281               	.LM54:
 282 010c 2BB1      		in r18,43-32
 283 010e 862F      		mov r24,r22
 284 0110 8695      		lsr r24
 285 0112 8695      		lsr r24
 286 0114 8695      		lsr r24
 287 0116 30E0      		ldi r19,lo8(SYNC_PINS)
 288 0118 C32E      		mov r12,r19
 289 011a 30E0      		ldi r19,hi8(SYNC_PINS)
 290 011c D32E      		mov r13,r19
 291 011e C80E      		add r12,r24
 292 0120 D11C      		adc r13,__zero_reg__
 293 0122 91E0      		ldi r25,lo8(1)
 294 0124 E92E      		mov r14,r25
 295 0126 F12C      		mov r15,__zero_reg__
 296 0128 C701      		movw r24,r14
 297 012a D601      		movw r26,r12
 298 012c 0C90      		ld r0,X
 299 012e 00C0      		rjmp 2f
 300 0130 880F      	1:	lsl r24
 301 0132 991F      		rol r25
 302 0134 0A94      	2:	dec r0
 303 0136 02F4      		brpl 1b
 304 0138 8095      		com r24
 305 013a 8223      		and r24,r18
 306 013c 8BB9      		out 43-32,r24
 307               	.LM55:
 308 013e 812F      		mov r24,r17
 309 0140 9927      		clr r25
 310 0142 87FD      		sbrc r24,7
 311 0144 9A95      		dec r25
 312 0146 8F70      		andi r24,lo8(15)
 313 0148 F0E0      		ldi r31,lo8(0)
 314               	.LVL8:
 315 014a E770      		andi r30,lo8(7)
 316 014c F070      		andi r31,hi8(7)
 317               	.LVL9:
 318 014e E050      		subi r30,lo8(-(chan_addrs))
 319 0150 F040      		sbci r31,hi8(-(chan_addrs))
 320               	.LVL10:
 321 0152 2081      		ld r18,Z
 322 0154 822B      		or r24,r18
 323 0156 8093 0000 		sts send8,r24
 324               	.LM56:
 325 015a 90E0      		ldi r25,lo8(0)
 326 015c 0E94 0000 		call SPI_WriteByte
 327               	.LVL11:
 328               	.LM57:
 329 0160 0093 0000 		sts send8,r16
 330               	.LM58:
 331 0164 802F      		mov r24,r16
 332 0166 90E0      		ldi r25,lo8(0)
 333 0168 0E94 0000 		call SPI_WriteByte
 334               	.LM59:
 335 016c 8BB1      		in r24,43-32
 336 016e F601      		movw r30,r12
 337 0170 0080      		ld r0,Z
 338 0172 00C0      		rjmp 2f
 339 0174 EE0C      	1:	lsl r14
 340 0176 FF1C      		rol r15
 341 0178 0A94      	2:	dec r0
 342 017a 02F4      		brpl 1b
 343 017c 8E29      		or r24,r14
 344 017e 8BB9      		out 43-32,r24
 345               	/* epilogue start */
 346               	.LM60:
 347 0180 1F91      		pop r17
 348 0182 0F91      		pop r16
 349               	.LVL12:
 350 0184 FF90      		pop r15
 351 0186 EF90      		pop r14
 352 0188 DF90      		pop r13
 353 018a CF90      		pop r12
 354 018c 0895      		ret
 355               	.LFE10:
 357               	.global	set_reverser
 359               	set_reverser:
 360               	.LFB15:
 361               	.LM61:
 362               	.LVL13:
 363               	/* prologue: function */
 364               	/* frame size = 0 */
 365               	/* epilogue start */
 366               	.LM62:
 367 018e 0895      		ret
 368               	.LFE15:
 370               	.global	setDAC
 372               	setDAC:
 373               	.LFB16:
 374               	.LM63:
 375               	/* prologue: function */
 376               	/* frame size = 0 */
 377               	.LM64:
 378 0190 5A98      		cbi 43-32,2
 379               	.LM65:
 380 0192 5A9A      		sbi 43-32,2
 381               	/* epilogue start */
 382               	.LM66:
 383 0194 0895      		ret
 384               	.LFE16:
 386               	.global	main
 388               	main:
 389               	.LFB17:
 390               	.LM67:
 391 0196 1F93      		push r17
 392               	/* prologue: function */
 393               	/* frame size = 0 */
 394               	.LM68:
 395 0198 8091 0000 		lds r24,STAT_CYCLE
 396 019c 9091 0000 		lds r25,STAT_N
 397 01a0 899F      		mul r24,r25
 398 01a2 802D      		mov r24,r0
 399 01a4 1124      		clr r1
 400 01a6 8093 0000 		sts BIG_STAT_N,r24
 401 01aa E0E0      		ldi r30,lo8(chan_addrs)
 402 01ac F0E0      		ldi r31,hi8(chan_addrs)
 403               	.L26:
 404               	.LBB72:
 405               	.LM69:
 406 01ae 8081      		ld r24,Z
 407 01b0 8295      		swap r24
 408 01b2 807F      		andi r24,lo8(-16)
 409 01b4 8193      		st Z+,r24
 410               	.LM70:
 411 01b6 80E0      		ldi r24,hi8(chan_addrs+8)
 412 01b8 E030      		cpi r30,lo8(chan_addrs+8)
 413 01ba F807      		cpc r31,r24
 414 01bc 01F4      		brne .L26
 415               	.LBE72:
 416               	.LM71:
 417 01be 88B1      		in r24,40-32
 418 01c0 88B9      		out 40-32,r24
 419               	.LM72:
 420 01c2 8EE1      		ldi r24,lo8(30)
 421 01c4 87B9      		out 39-32,r24
 422               	.LM73:
 423 01c6 8FEF      		ldi r24,lo8(-1)
 424 01c8 8AB9      		out 42-32,r24
 425               	.LM74:
 426 01ca 8FE1      		ldi r24,lo8(31)
 427 01cc 84B9      		out 36-32,r24
 428               	.LM75:
 429               	/* #APP */
 430               	 ;  274 "main.c" 1
 431 01ce 7894      		sei
 432               	 ;  0 "" 2
 433               	/* #NOAPP */
 434               	.LBB73:
 435               	.LBB74:
 436               	.LM76:
 437 01d0 8CE2      		ldi r24,lo8(44)
 438 01d2 84B9      		out 36-32,r24
 439               	.LM77:
 440 01d4 88E5      		ldi r24,lo8(88)
 441 01d6 8CBD      		out 76-32,r24
 442               	.LBE74:
 443               	.LBE73:
 444               	.LBB75:
 445               	.LBB76:
 446               	.LM78:
 447 01d8 1092 B000 		sts 176,__zero_reg__
 448               	.LM79:
 449 01dc 1092 B100 		sts 177,__zero_reg__
 450               	.LM80:
 451 01e0 8091 B100 		lds r24,177
 452 01e4 8260      		ori r24,lo8(2)
 453 01e6 8093 B100 		sts 177,r24
 454               	.LM81:
 455 01ea 81E0      		ldi r24,lo8(1)
 456 01ec 8093 7000 		sts 112,r24
 457               	.LBE76:
 458               	.LBE75:
 459               	.LBB77:
 460               	.LBB78:
 461               	.LM82:
 462 01f0 1092 C500 		sts 197,__zero_reg__
 463               	.LM83:
 464 01f4 83E3      		ldi r24,lo8(51)
 465 01f6 8093 C400 		sts 196,r24
 466               	.LM84:
 467 01fa 88E9      		ldi r24,lo8(-104)
 468 01fc 8093 C100 		sts 193,r24
 469               	.LM85:
 470 0200 8EE0      		ldi r24,lo8(14)
 471 0202 8093 C200 		sts 194,r24
 472               	.LBE78:
 473               	.LBE77:
 474               	.LBB79:
 475               	.LBB80:
 476               	.LM86:
 477 0206 8091 7A00 		lds r24,122
 478 020a 8368      		ori r24,lo8(-125)
 479 020c 8093 7A00 		sts 122,r24
 480               	.LM87:
 481 0210 8091 7C00 		lds r24,124
 482 0214 8064      		ori r24,lo8(64)
 483 0216 8093 7C00 		sts 124,r24
 484               	.LBE80:
 485               	.LBE79:
 486               	.LM88:
 487 021a 8091 7A00 		lds r24,122
 488 021e 8064      		ori r24,lo8(64)
 489 0220 8093 7A00 		sts 122,r24
 490               	.LM89:
 491 0224 8091 7800 		lds r24,120
 492               	.LM90:
 493 0228 8091 7800 		lds r24,120
 494 022c 10E0      		ldi r17,lo8(0)
 495               	.L27:
 496               	.LBB81:
 497               	.LM91:
 498 022e 80E0      		ldi r24,lo8(0)
 499 0230 90E0      		ldi r25,hi8(0)
 500 0232 612F      		mov r22,r17
 501 0234 0E94 0000 		call prepareSetDAC
 502 0238 1F5F      		subi r17,lo8(-(1))
 503               	.LM92:
 504 023a 1131      		cpi r17,lo8(17)
 505 023c 01F4      		brne .L27
 506               	.LBE81:
 507               	.LBB82:
 508               	.LBB83:
 509               	.LM93:
 510 023e 5A98      		cbi 43-32,2
 511               	.LM94:
 512 0240 5A9A      		sbi 43-32,2
 513               	.L28:
 514 0242 00C0      		rjmp .L28
 515               	.LBE83:
 516               	.LBE82:
 517               	.LFE17:
 519               	.global	__vector_9
 521               	__vector_9:
 522               	.LFB18:
 523               	.LM95:
 524 0244 1F92      		push __zero_reg__
 525 0246 0F92      		push r0
 526 0248 0FB6      		in r0,__SREG__
 527 024a 0F92      		push r0
 528 024c 1124      		clr __zero_reg__
 529 024e 2F93      		push r18
 530 0250 3F93      		push r19
 531 0252 4F93      		push r20
 532 0254 5F93      		push r21
 533 0256 6F93      		push r22
 534 0258 7F93      		push r23
 535 025a 8F93      		push r24
 536 025c 9F93      		push r25
 537 025e AF93      		push r26
 538 0260 BF93      		push r27
 539 0262 EF93      		push r30
 540 0264 FF93      		push r31
 541               	/* prologue: Signal */
 542               	/* frame size = 0 */
 543               	.LM96:
 544 0266 2091 0000 		lds r18,ctr
 545 026a 3091 0000 		lds r19,(ctr)+1
 546 026e 8091 0000 		lds r24,time_step
 547 0272 9091 0000 		lds r25,(time_step)+1
 548 0276 8217      		cp r24,r18
 549 0278 9307      		cpc r25,r19
 550 027a 04F0      		brlt .+2
 551 027c 00C0      		rjmp .L33
 552               	.LM97:
 553 027e 6091 0000 		lds r22,MD
 554 0282 6623      		tst r22
 555 0284 01F0      		breq .+2
 556 0286 00C0      		rjmp .L34
 557               	.LM98:
 558 0288 2091 0000 		lds r18,event_cnt
 559 028c 3091 0000 		lds r19,(event_cnt)+1
 560 0290 2130      		cpi r18,1
 561 0292 3105      		cpc r19,__zero_reg__
 562 0294 01F4      		brne .L35
 563               	.LM99:
 564 0296 9091 7800 		lds r25,120
 565 029a 9093 0000 		sts ADCL_,r25
 566               	.LM100:
 567 029e 8091 7900 		lds r24,121
 568 02a2 8093 0000 		sts ADCH_,r24
 569               	.LM101:
 570 02a6 9093 C600 		sts 198,r25
 571 02aa 00C0      		rjmp .L36
 572               	.L35:
 573               	.LM102:
 574 02ac 2230      		cpi r18,2
 575 02ae 3105      		cpc r19,__zero_reg__
 576 02b0 01F4      		brne .L37
 577               	.LM103:
 578 02b2 8091 0000 		lds r24,ADCH_
 579 02b6 8093 C600 		sts 198,r24
 580 02ba 00C0      		rjmp .L36
 581               	.L37:
 582               	.LM104:
 583 02bc 2115      		cp r18,__zero_reg__
 584 02be 3105      		cpc r19,__zero_reg__
 585 02c0 01F4      		brne .L36
 586               	.LM105:
 587 02c2 8FEF      		ldi r24,lo8(-1)
 588 02c4 00C0      		rjmp .L116
 589               	.L36:
 590               	.LM106:
 591 02c6 8091 0000 		lds r24,t1
 592 02ca 90E0      		ldi r25,lo8(0)
 593 02cc 2817      		cp r18,r24
 594 02ce 3907      		cpc r19,r25
 595 02d0 01F4      		brne .+2
 596 02d2 00C0      		rjmp .L38
 597               	.LM107:
 598 02d4 8091 0000 		lds r24,dT
 599 02d8 90E0      		ldi r25,lo8(0)
 600 02da 2817      		cp r18,r24
 601 02dc 3907      		cpc r19,r25
 602 02de 01F4      		brne .+2
 603 02e0 00C0      		rjmp .L38
 604               	.LM108:
 605 02e2 0196      		adiw r24,1
 606 02e4 2817      		cp r18,r24
 607 02e6 3907      		cpc r19,r25
 608 02e8 01F4      		brne .+2
 609 02ea 00C0      		rjmp .L109
 610               	.L39:
 611               	.LM109:
 612 02ec 8091 0000 		lds r24,dTt2
 613 02f0 90E0      		ldi r25,lo8(0)
 614 02f2 2817      		cp r18,r24
 615 02f4 3907      		cpc r19,r25
 616 02f6 01F0      		breq .+2
 617 02f8 00C0      		rjmp .L38
 618               	.LM110:
 619 02fa 8091 C000 		lds r24,192
 620 02fe 85FF      		sbrs r24,5
 621 0300 00C0      		rjmp .L38
 622               	.LM111:
 623 0302 8091 0000 		lds r24,_adc
 624 0306 00C0      		rjmp .L104
 625               	.L34:
 626               	.LM112:
 627 0308 6130      		cpi r22,lo8(1)
 628 030a 01F0      		breq .+2
 629 030c 00C0      		rjmp .L40
 630               	.LBB84:
 631               	.LM113:
 632 030e 8091 0000 		lds r24,i.1528
 633 0312 9091 0000 		lds r25,(i.1528)+1
 634 0316 0196      		adiw r24,1
 635 0318 9093 0000 		sts (i.1528)+1,r25
 636 031c 8093 0000 		sts i.1528,r24
 637               	.LM114:
 638 0320 8091 0000 		lds r24,UDP_cnt
 639 0324 8230      		cpi r24,lo8(2)
 640 0326 01F0      		breq .L44
 641 0328 8330      		cpi r24,lo8(3)
 642 032a 00F4      		brsh .L47
 643 032c 8823      		tst r24
 644 032e 01F0      		breq .L42
 645 0330 8130      		cpi r24,lo8(1)
 646 0332 01F0      		breq .+2
 647 0334 00C0      		rjmp .L41
 648 0336 00C0      		rjmp .L117
 649               	.L47:
 650 0338 8330      		cpi r24,lo8(3)
 651 033a 01F0      		breq .L45
 652 033c 8430      		cpi r24,lo8(4)
 653 033e 01F0      		breq .+2
 654 0340 00C0      		rjmp .L41
 655 0342 00C0      		rjmp .L46
 656               	.L42:
 657               	.LM115:
 658 0344 8091 7A00 		lds r24,122
 659 0348 8064      		ori r24,lo8(64)
 660 034a 8093 7A00 		sts 122,r24
 661               	.LM116:
 662 034e 8FEF      		ldi r24,lo8(-1)
 663 0350 00C0      		rjmp .L102
 664               	.L117:
 665               	.LM117:
 666 0352 8091 0000 		lds r24,ADCL_
 667 0356 8093 0000 		sts ADCL__,r24
 668               	.LM118:
 669 035a 8091 0000 		lds r24,ADCH_
 670 035e 8093 0000 		sts ADCH__,r24
 671               	.LM119:
 672 0362 9091 7800 		lds r25,120
 673 0366 9093 0000 		sts ADCL_,r25
 674               	.LM120:
 675 036a 8091 7900 		lds r24,121
 676 036e 8093 0000 		sts ADCH_,r24
 677               	.LM121:
 678 0372 9093 C600 		sts 198,r25
 679 0376 00C0      		rjmp .L41
 680               	.L44:
 681               	.LM122:
 682 0378 8091 0000 		lds r24,ADCH_
 683               	.L102:
 684 037c 8093 C600 		sts 198,r24
 685 0380 00C0      		rjmp .L41
 686               	.L45:
 687               	.LM123:
 688 0382 2091 0000 		lds r18,VAC16
 689 0386 3091 0000 		lds r19,(VAC16)+1
 690 038a 3093 0000 		sts (VAC16_H)+1,r19
 691 038e 2093 0000 		sts VAC16_H,r18
 692               	.LM124:
 693 0392 8091 0000 		lds r24,pos_phase
 694 0396 8823      		tst r24
 695 0398 01F0      		breq .L48
 696               	.LM125:
 697 039a 205E      		subi r18,lo8(-(32))
 698 039c 3F4F      		sbci r19,hi8(-(32))
 699 039e 3093 0000 		sts (VAC16)+1,r19
 700 03a2 2093 0000 		sts VAC16,r18
 701               	.LM126:
 702 03a6 8091 0000 		lds r24,ref16
 703 03aa 9091 0000 		lds r25,(ref16)+1
 704 03ae 2817      		cp r18,r24
 705 03b0 3907      		cpc r19,r25
 706 03b2 04F0      		brlt .L49
 707               	.LM127:
 708 03b4 1092 0000 		sts pos_phase,__zero_reg__
 709 03b8 00C0      		rjmp .L49
 710               	.L48:
 711               	.LM128:
 712 03ba C901      		movw r24,r18
 713 03bc 8097      		sbiw r24,32
 714 03be 9093 0000 		sts (VAC16)+1,r25
 715 03c2 8093 0000 		sts VAC16,r24
 716               	.LM129:
 717 03c6 21E0      		ldi r18,lo8(1)
 718 03c8 30E0      		ldi r19,hi8(1)
 719 03ca 4091 0000 		lds r20,x16
 720 03ce 5091 0000 		lds r21,(x16)+1
 721 03d2 241B      		sub r18,r20
 722 03d4 350B      		sbc r19,r21
 723 03d6 8217      		cp r24,r18
 724 03d8 9307      		cpc r25,r19
 725 03da 04F4      		brge .L49
 726               	.LM130:
 727 03dc 6093 0000 		sts pos_phase,r22
 728               	.L49:
 729               	.LM131:
 730 03e0 8091 0000 		lds r24,VAC16
 731 03e4 9091 0000 		lds r25,(VAC16)+1
 732 03e8 9C01      		movw r18,r24
 733 03ea 44E0      		ldi r20,4
 734 03ec 3595      	1:	asr r19
 735 03ee 2795      		ror r18
 736 03f0 4A95      		dec r20
 737 03f2 01F4      		brne 1b
 738 03f4 2093 C600 		sts 198,r18
 739               	.LM132:
 740 03f8 6091 0000 		lds r22,chan
 741 03fc 0E94 0000 		call prepareSetDAC
 742               	.LBB85:
 743               	.LBB86:
 744               	.LM133:
 745 0400 5A98      		cbi 43-32,2
 746               	.LM134:
 747 0402 5A9A      		sbi 43-32,2
 748               	.L46:
 749               	.LBE86:
 750               	.LBE85:
 751               	.LM135:
 752 0404 1092 C600 		sts 198,__zero_reg__
 753               	.L41:
 754               	.LM136:
 755 0408 8091 0000 		lds r24,UDP_cnt
 756 040c 8F5F      		subi r24,lo8(-(1))
 757 040e 65E0      		ldi r22,lo8(5)
 758 0410 0E94 0000 		call __udivmodqi4
 759 0414 9093 0000 		sts UDP_cnt,r25
 760 0418 00C0      		rjmp .L38
 761               	.L40:
 762               	.LBE84:
 763               	.LM137:
 764 041a 6230      		cpi r22,lo8(2)
 765 041c 01F0      		breq .+2
 766 041e 00C0      		rjmp .L50
 767               	.LBB87:
 768               	.LM138:
 769 0420 80E1      		ldi r24,lo8(16)
 770 0422 8093 0000 		sts T,r24
 771               	.LM139:
 772 0426 8091 0000 		lds r24,event_cnt
 773 042a 9091 0000 		lds r25,(event_cnt)+1
 774 042e 0097      		sbiw r24,0
 775 0430 01F0      		breq .+2
 776 0432 00C0      		rjmp .L51
 777               	.LM140:
 778 0434 8FEF      		ldi r24,lo8(-1)
 779 0436 8093 C600 		sts 198,r24
 780               	.LM141:
 781 043a 8091 0000 		lds r24,PROGRAM_done
 782 043e 8823      		tst r24
 783 0440 01F0      		breq .L52
 784               	.LM142:
 785 0442 1092 0000 		sts (proging_val)+1,__zero_reg__
 786 0446 1092 0000 		sts proging_val,__zero_reg__
 787               	.L52:
 788               	.LM143:
 789 044a 8091 0000 		lds r24,proging_val
 790 044e 9091 0000 		lds r25,(proging_val)+1
 791 0452 6091 0000 		lds r22,chan
 792 0456 0E94 0000 		call prepareSetDAC
 793               	.LBB88:
 794               	.LBB89:
 795               	.LM144:
 796 045a 5A98      		cbi 43-32,2
 797               	.LM145:
 798 045c 5A9A      		sbi 43-32,2
 799               	.LBE89:
 800               	.LBE88:
 801               	.LM146:
 802 045e 2091 0000 		lds r18,proging_val
 803 0462 3091 0000 		lds r19,(proging_val)+1
 804 0466 8091 0000 		lds r24,x16
 805 046a 9091 0000 		lds r25,(x16)+1
 806 046e 4427      		clr r20
 807 0470 5527      		clr r21
 808 0472 481B      		sub r20,r24
 809 0474 590B      		sbc r21,r25
 810 0476 2417      		cp r18,r20
 811 0478 3507      		cpc r19,r21
 812 047a 01F4      		brne .L53
 813               	.LM147:
 814 047c 1092 0000 		sts (proging_val)+1,__zero_reg__
 815 0480 1092 0000 		sts proging_val,__zero_reg__
 816 0484 00C0      		rjmp .L38
 817               	.L53:
 818               	.LM148:
 819 0486 8091 0000 		lds r24,t2
 820 048a 90E0      		ldi r25,lo8(0)
 821 048c B4E0      		ldi r27,4
 822 048e 880F      	1:	lsl r24
 823 0490 991F      		rol r25
 824 0492 BA95      		dec r27
 825 0494 01F4      		brne 1b
 826 0496 8217      		cp r24,r18
 827 0498 9307      		cpc r25,r19
 828 049a 04F4      		brge .L54
 829               	.LM149:
 830 049c 5093 0000 		sts (proging_val)+1,r21
 831 04a0 4093 0000 		sts proging_val,r20
 832 04a4 00C0      		rjmp .L38
 833               	.L54:
 834               	.LM150:
 835 04a6 205E      		subi r18,lo8(-(32))
 836 04a8 3F4F      		sbci r19,hi8(-(32))
 837 04aa 3093 0000 		sts (proging_val)+1,r19
 838 04ae 2093 0000 		sts proging_val,r18
 839 04b2 00C0      		rjmp .L38
 840               	.L51:
 841               	.LM151:
 842 04b4 8130      		cpi r24,1
 843 04b6 9105      		cpc r25,__zero_reg__
 844 04b8 01F4      		brne .L55
 845               	.LM152:
 846 04ba 8091 0000 		lds r24,PROGRAM_done
 847 04be 00C0      		rjmp .L104
 848               	.L55:
 849               	.LM153:
 850 04c0 8230      		cpi r24,2
 851 04c2 9105      		cpc r25,__zero_reg__
 852 04c4 01F4      		brne .+2
 853 04c6 00C0      		rjmp .L108
 854               	.L56:
 855               	.LM154:
 856 04c8 8330      		cpi r24,3
 857 04ca 9105      		cpc r25,__zero_reg__
 858 04cc 01F4      		brne .L57
 859               	.LM155:
 860 04ce 8091 0000 		lds r24,ADCH_
 861 04d2 8093 C600 		sts 198,r24
 862               	.LM156:
 863 04d6 382F      		mov r19,r24
 864 04d8 20E0      		ldi r18,lo8(0)
 865 04da 8091 0000 		lds r24,ADCL_
 866 04de 90E0      		ldi r25,lo8(0)
 867 04e0 822B      		or r24,r18
 868 04e2 932B      		or r25,r19
 869 04e4 9093 0000 		sts (_adc)+1,r25
 870 04e8 8093 0000 		sts _adc,r24
 871               	.LM157:
 872 04ec 40E0      		ldi r20,lo8(512)
 873 04ee 52E0      		ldi r21,hi8(512)
 874 04f0 481B      		sub r20,r24
 875 04f2 590B      		sbc r21,r25
 876 04f4 5093 0000 		sts (adc_h.1535)+1,r21
 877 04f8 4093 0000 		sts adc_h.1535,r20
 878               	.LM158:
 879 04fc 8091 0000 		lds r24,t1
 880 0500 282F      		mov r18,r24
 881 0502 30E0      		ldi r19,lo8(0)
 882 0504 C901      		movw r24,r18
 883 0506 0197      		sbiw r24,1
 884 0508 4817      		cp r20,r24
 885 050a 5907      		cpc r21,r25
 886 050c 00F4      		brsh .L58
 887               	.LM159:
 888 050e 8091 0000 		lds r24,x16
 889 0512 9091 0000 		lds r25,(x16)+1
 890 0516 9095      		com r25
 891 0518 8195      		neg r24
 892 051a 9F4F      		sbci r25,lo8(-1)
 893 051c 9093 0000 		sts (proging_val)+1,r25
 894 0520 8093 0000 		sts proging_val,r24
 895 0524 00C0      		rjmp .L38
 896               	.L58:
 897               	.LM160:
 898 0526 2E5F      		subi r18,lo8(-(2))
 899 0528 3F4F      		sbci r19,hi8(-(2))
 900 052a 4217      		cp r20,r18
 901 052c 5307      		cpc r21,r19
 902 052e 00F0      		brlo .+2
 903 0530 00C0      		rjmp .L38
 904               	.LM161:
 905 0532 81E0      		ldi r24,lo8(1)
 906 0534 8093 0000 		sts PROGRAM_done,r24
 907               	.LM162:
 908 0538 1092 0000 		sts (proging_val)+1,__zero_reg__
 909 053c 1092 0000 		sts proging_val,__zero_reg__
 910 0540 00C0      		rjmp .L115
 911               	.L57:
 912               	.LM163:
 913 0542 8730      		cpi r24,7
 914 0544 9105      		cpc r25,__zero_reg__
 915 0546 01F4      		brne .+2
 916 0548 00C0      		rjmp .L111
 917               	.L59:
 918               	.LM164:
 919 054a 8930      		cpi r24,9
 920 054c 9105      		cpc r25,__zero_reg__
 921 054e 01F4      		brne .L60
 922               	.L115:
 923               	.LM165:
 924 0550 8091 0000 		lds r24,ref16
 925 0554 9091 0000 		lds r25,(ref16)+1
 926 0558 00C0      		rjmp .L112
 927               	.L60:
 928               	.LM166:
 929 055a 8A30      		cpi r24,10
 930 055c 9105      		cpc r25,__zero_reg__
 931 055e 01F4      		brne .+2
 932 0560 00C0      		rjmp .L109
 933               	.L61:
 934               	.LM167:
 935 0562 0E97      		sbiw r24,14
 936 0564 01F0      		breq .+2
 937 0566 00C0      		rjmp .L38
 938 0568 00C0      		rjmp .L111
 939               	.L50:
 940               	.LBE87:
 941               	.LM168:
 942 056a 6530      		cpi r22,lo8(5)
 943 056c 01F0      		breq .+2
 944 056e 00C0      		rjmp .L62
 945               	.LM169:
 946 0570 8091 0000 		lds r24,event_cnt
 947 0574 9091 0000 		lds r25,(event_cnt)+1
 948 0578 8130      		cpi r24,1
 949 057a 9105      		cpc r25,__zero_reg__
 950 057c 01F0      		breq .L105
 951               	.L63:
 952               	.LM170:
 953 057e 8230      		cpi r24,2
 954 0580 9105      		cpc r25,__zero_reg__
 955 0582 01F4      		brne .L64
 956               	.LM171:
 957 0584 8091 0000 		lds r24,reset16
 958 0588 9091 0000 		lds r25,(reset16)+1
 959 058c 63E0      		ldi r22,lo8(3)
 960 058e 0E94 0000 		call prepareSetDAC
 961               	.LM172:
 962 0592 8091 0000 		lds r24,reset16
 963 0596 9091 0000 		lds r25,(reset16)+1
 964 059a 00C0      		rjmp .L113
 965               	.L64:
 966               	.LM173:
 967 059c 8330      		cpi r24,3
 968 059e 9105      		cpc r25,__zero_reg__
 969 05a0 01F4      		brne .L65
 970               	.LM174:
 971 05a2 80E0      		ldi r24,lo8(0)
 972 05a4 90E0      		ldi r25,hi8(0)
 973 05a6 63E0      		ldi r22,lo8(3)
 974 05a8 0E94 0000 		call prepareSetDAC
 975               	.LM175:
 976 05ac 80E0      		ldi r24,lo8(0)
 977 05ae 90E0      		ldi r25,hi8(0)
 978               	.L113:
 979 05b0 62E0      		ldi r22,lo8(2)
 980 05b2 00C0      		rjmp .L106
 981               	.L65:
 982               	.LM176:
 983 05b4 8430      		cpi r24,4
 984 05b6 9105      		cpc r25,__zero_reg__
 985 05b8 01F4      		brne .L66
 986               	.LM177:
 987 05ba 0E94 0000 		call gatherMult
 988 05be 00C0      		rjmp .L38
 989               	.L66:
 990               	.LM178:
 991 05c0 8530      		cpi r24,5
 992 05c2 9105      		cpc r25,__zero_reg__
 993 05c4 01F4      		brne .L67
 994               	.LM179:
 995 05c6 8091 0000 		lds r24,x16
 996 05ca 9091 0000 		lds r25,(x16)+1
 997 05ce 00C0      		rjmp .L110
 998               	.L67:
 999               	.LM180:
 1000 05d0 8630      		cpi r24,6
 1001 05d2 9105      		cpc r25,__zero_reg__
 1002 05d4 01F4      		brne .L68
 1003               	.L114:
 1004               	.LM181:
 1005 05d6 80E0      		ldi r24,lo8(0)
 1006 05d8 90E0      		ldi r25,hi8(0)
 1007               	.L110:
 1008 05da 63E0      		ldi r22,lo8(3)
 1009 05dc 00C0      		rjmp .L106
 1010               	.L68:
 1011               	.LM182:
 1012 05de 8730      		cpi r24,7
 1013 05e0 9105      		cpc r25,__zero_reg__
 1014 05e2 01F4      		brne .L69
 1015               	.LM183:
 1016 05e4 8FEF      		ldi r24,lo8(-1)
 1017 05e6 8093 C600 		sts 198,r24
 1018               	.L105:
 1019               	.LM184:
 1020 05ea 0E94 0000 		call separMult
 1021 05ee 00C0      		rjmp .L38
 1022               	.L69:
 1023               	.LM185:
 1024 05f0 8830      		cpi r24,8
 1025 05f2 9105      		cpc r25,__zero_reg__
 1026 05f4 01F4      		brne .L70
 1027               	.LM186:
 1028 05f6 8091 0000 		lds r24,ref16
 1029 05fa 9091 0000 		lds r25,(ref16)+1
 1030 05fe 63E0      		ldi r22,lo8(3)
 1031 0600 00C0      		rjmp .L107
 1032               	.L70:
 1033               	.LM187:
 1034 0602 8930      		cpi r24,9
 1035 0604 9105      		cpc r25,__zero_reg__
 1036 0606 01F4      		brne .+2
 1037 0608 00C0      		rjmp .L108
 1038               	.L71:
 1039               	.LM188:
 1040 060a 8A30      		cpi r24,10
 1041 060c 9105      		cpc r25,__zero_reg__
 1042 060e 01F4      		brne .L72
 1043               	.LM189:
 1044 0610 8091 0000 		lds r24,ADCH_
 1045 0614 8093 C600 		sts 198,r24
 1046 0618 00C0      		rjmp .L114
 1047               	.L72:
 1048               	.LM190:
 1049 061a 8B30      		cpi r24,11
 1050 061c 9105      		cpc r25,__zero_reg__
 1051 061e 01F4      		brne .L73
 1052               	.LM191:
 1053 0620 8091 0000 		lds r24,ref16
 1054 0624 9091 0000 		lds r25,(ref16)+1
 1055 0628 62E0      		ldi r22,lo8(2)
 1056 062a 00C0      		rjmp .L107
 1057               	.L73:
 1058               	.LM192:
 1059 062c 8C30      		cpi r24,12
 1060 062e 9105      		cpc r25,__zero_reg__
 1061 0630 01F4      		brne .+2
 1062 0632 00C0      		rjmp .L108
 1063               	.L74:
 1064               	.LM193:
 1065 0634 0D97      		sbiw r24,13
 1066 0636 01F0      		breq .+2
 1067 0638 00C0      		rjmp .L38
 1068               	.LM194:
 1069 063a 8091 0000 		lds r24,ADCH_
 1070 063e 8093 C600 		sts 198,r24
 1071               	.LM195:
 1072 0642 80E0      		ldi r24,lo8(0)
 1073 0644 90E0      		ldi r25,hi8(0)
 1074 0646 62E0      		ldi r22,lo8(2)
 1075 0648 0E94 0000 		call prepareSetDAC
 1076               	.LBB90:
 1077               	.LBB91:
 1078               	.LM196:
 1079 064c 5A98      		cbi 43-32,2
 1080               	.LM197:
 1081 064e 5A9A      		sbi 43-32,2
 1082               	.LBE91:
 1083               	.LBE90:
 1084               	.LM198:
 1085 0650 1092 0000 		sts (event_cnt)+1,__zero_reg__
 1086 0654 1092 0000 		sts event_cnt,__zero_reg__
 1087 0658 00C0      		rjmp .L38
 1088               	.L62:
 1089               	.LM199:
 1090 065a 6630      		cpi r22,lo8(6)
 1091 065c 01F0      		breq .+2
 1092 065e 00C0      		rjmp .L38
 1093               	.LM200:
 1094 0660 8091 0000 		lds r24,event_cnt
 1095 0664 9091 0000 		lds r25,(event_cnt)+1
 1096 0668 0097      		sbiw r24,0
 1097 066a 01F4      		brne .L75
 1098               	.LM201:
 1099 066c 8091 0000 		lds r24,reset16
 1100 0670 9091 0000 		lds r25,(reset16)+1
 1101 0674 6091 0000 		lds r22,chan
 1102 0678 0E94 0000 		call prepareSetDAC
 1103               	.LBB92:
 1104               	.LBB93:
 1105               	.LM202:
 1106 067c 5A98      		cbi 43-32,2
 1107               	.LM203:
 1108 067e 5A9A      		sbi 43-32,2
 1109               	.LBE93:
 1110               	.LBE92:
 1111               	.LM204:
 1112 0680 8FEF      		ldi r24,lo8(-1)
 1113 0682 00C0      		rjmp .L104
 1114               	.L75:
 1115               	.LM205:
 1116 0684 8130      		cpi r24,1
 1117 0686 9105      		cpc r25,__zero_reg__
 1118 0688 01F4      		brne .L76
 1119               	.L111:
 1120               	.LM206:
 1121 068a 80E0      		ldi r24,lo8(0)
 1122 068c 90E0      		ldi r25,hi8(0)
 1123               	.L112:
 1124 068e 6091 0000 		lds r22,chan
 1125               	.L106:
 1126 0692 0E94 0000 		call prepareSetDAC
 1127               	.LBB94:
 1128               	.LBB95:
 1129               	.LM207:
 1130 0696 5A98      		cbi 43-32,2
 1131               	.LM208:
 1132 0698 5A9A      		sbi 43-32,2
 1133 069a 00C0      		rjmp .L38
 1134               	.L76:
 1135               	.LBE95:
 1136               	.LBE94:
 1137               	.LM209:
 1138 069c 8330      		cpi r24,3
 1139 069e 9105      		cpc r25,__zero_reg__
 1140 06a0 01F0      		breq .+2
 1141 06a2 00C0      		rjmp .L77
 1142               	.LM210:
 1143 06a4 4091 0000 		lds r20,an_cnt
 1144 06a8 5091 0000 		lds r21,(an_cnt)+1
 1145 06ac 2091 0000 		lds r18,BIG_STAT_N
 1146 06b0 822F      		mov r24,r18
 1147 06b2 90E0      		ldi r25,lo8(0)
 1148 06b4 4817      		cp r20,r24
 1149 06b6 5907      		cpc r21,r25
 1150 06b8 00F4      		brsh .L78
 1151               	.LM211:
 1152 06ba 1092 0000 		sts STAT_V_step,__zero_reg__
 1153 06be 00C0      		rjmp .L79
 1154               	.L78:
 1155               	.LM212:
 1156 06c0 822F      		mov r24,r18
 1157 06c2 90E0      		ldi r25,lo8(0)
 1158 06c4 9C01      		movw r18,r24
 1159 06c6 220F      		lsl r18
 1160 06c8 331F      		rol r19
 1161 06ca 4217      		cp r20,r18
 1162 06cc 5307      		cpc r21,r19
 1163 06ce 00F4      		brsh .L80
 1164               	.LM213:
 1165 06d0 81E0      		ldi r24,lo8(1)
 1166 06d2 00C0      		rjmp .L103
 1167               	.L80:
 1168               	.LM214:
 1169 06d4 280F      		add r18,r24
 1170 06d6 391F      		adc r19,r25
 1171 06d8 4217      		cp r20,r18
 1172 06da 5307      		cpc r21,r19
 1173 06dc 00F4      		brsh .L81
 1174               	.LM215:
 1175 06de 82E0      		ldi r24,lo8(2)
 1176 06e0 00C0      		rjmp .L103
 1177               	.L81:
 1178               	.LM216:
 1179 06e2 9C01      		movw r18,r24
 1180 06e4 220F      		lsl r18
 1181 06e6 331F      		rol r19
 1182 06e8 220F      		lsl r18
 1183 06ea 331F      		rol r19
 1184 06ec 4217      		cp r20,r18
 1185 06ee 5307      		cpc r21,r19
 1186 06f0 00F4      		brsh .L82
 1187               	.LM217:
 1188 06f2 83E0      		ldi r24,lo8(3)
 1189 06f4 00C0      		rjmp .L103
 1190               	.L82:
 1191               	.LM218:
 1192 06f6 280F      		add r18,r24
 1193 06f8 391F      		adc r19,r25
 1194 06fa 4217      		cp r20,r18
 1195 06fc 5307      		cpc r21,r19
 1196 06fe 00F4      		brsh .L79
 1197               	.LM219:
 1198 0700 84E0      		ldi r24,lo8(4)
 1199               	.L103:
 1200 0702 8093 0000 		sts STAT_V_step,r24
 1201               	.L79:
 1202               	.LM220:
 1203 0706 8091 0000 		lds r24,STAT_V_step
 1204 070a 8093 C600 		sts 198,r24
 1205               	.LM221:
 1206 070e 90E0      		ldi r25,lo8(0)
 1207 0710 8095      		com r24
 1208 0712 9095      		com r25
 1209 0714 9695      		lsr r25
 1210 0716 982F      		mov r25,r24
 1211 0718 8827      		clr r24
 1212 071a 9795      		ror r25
 1213 071c 8795      		ror r24
 1214 071e 9093 0000 		sts (x16_grad)+1,r25
 1215 0722 8093 0000 		sts x16_grad,r24
 1216               	.LM222:
 1217 0726 6091 0000 		lds r22,chan
 1218 072a 0E94 0000 		call prepareSetDAC
 1219               	.LBB96:
 1220               	.LBB97:
 1221               	.LM223:
 1222 072e 5A98      		cbi 43-32,2
 1223               	.LM224:
 1224 0730 5A9A      		sbi 43-32,2
 1225               	.LBE97:
 1226               	.LBE96:
 1227               	.LM225:
 1228 0732 4091 0000 		lds r20,an_cnt_fast
 1229 0736 5091 0000 		lds r21,(an_cnt_fast)+1
 1230 073a 8091 0000 		lds r24,STAT_N
 1231 073e 90E0      		ldi r25,lo8(0)
 1232 0740 4817      		cp r20,r24
 1233 0742 5907      		cpc r21,r25
 1234 0744 00F4      		brsh .L83
 1235               	.LM226:
 1236 0746 1092 0000 		sts STAT_dt_step,__zero_reg__
 1237 074a 00C0      		rjmp .L84
 1238               	.L83:
 1239               	.LM227:
 1240 074c 9C01      		movw r18,r24
 1241 074e 220F      		lsl r18
 1242 0750 331F      		rol r19
 1243 0752 4217      		cp r20,r18
 1244 0754 5307      		cpc r21,r19
 1245 0756 00F4      		brsh .L85
 1246               	.LM228:
 1247 0758 81E0      		ldi r24,lo8(1)
 1248 075a 8093 0000 		sts STAT_dt_step,r24
 1249 075e 80E0      		ldi r24,lo8(0)
 1250 0760 90E0      		ldi r25,hi8(0)
 1251               	.LVL14:
 1252               	.L86:
 1253               	.LBB98:
 1254               	.LBB99:
 1255               	.LBB100:
 1256               	.LM229:
 1257 0762 5A98      		cbi 43-32,2
 1258               	.LM230:
 1259 0764 5A9A      		sbi 43-32,2
 1260               	.LBE100:
 1261               	.LBE99:
 1262               	.LM231:
 1263 0766 0196      		adiw r24,1
 1264 0768 8832      		cpi r24,40
 1265 076a 9105      		cpc r25,__zero_reg__
 1266 076c 01F4      		brne .L86
 1267 076e 00C0      		rjmp .L84
 1268               	.LVL15:
 1269               	.L85:
 1270               	.LBE98:
 1271               	.LM232:
 1272 0770 280F      		add r18,r24
 1273 0772 391F      		adc r19,r25
 1274 0774 4217      		cp r20,r18
 1275 0776 5307      		cpc r21,r19
 1276 0778 00F4      		brsh .L87
 1277               	.LM233:
 1278 077a 82E0      		ldi r24,lo8(2)
 1279 077c 8093 0000 		sts STAT_dt_step,r24
 1280 0780 80E0      		ldi r24,lo8(0)
 1281 0782 90E0      		ldi r25,hi8(0)
 1282               	.LVL16:
 1283               	.L88:
 1284               	.LBB101:
 1285               	.LBB102:
 1286               	.LBB103:
 1287               	.LM234:
 1288 0784 5A98      		cbi 43-32,2
 1289               	.LM235:
 1290 0786 5A9A      		sbi 43-32,2
 1291               	.LBE103:
 1292               	.LBE102:
 1293               	.LM236:
 1294 0788 0196      		adiw r24,1
 1295 078a 803A      		cpi r24,160
 1296 078c 9105      		cpc r25,__zero_reg__
 1297 078e 01F4      		brne .L88
 1298 0790 00C0      		rjmp .L84
 1299               	.LVL17:
 1300               	.L87:
 1301               	.LBE101:
 1302               	.LM237:
 1303 0792 880F      		lsl r24
 1304 0794 991F      		rol r25
 1305 0796 880F      		lsl r24
 1306 0798 991F      		rol r25
 1307 079a 4817      		cp r20,r24
 1308 079c 5907      		cpc r21,r25
 1309 079e 00F4      		brsh .L89
 1310               	.LM238:
 1311 07a0 83E0      		ldi r24,lo8(3)
 1312 07a2 8093 0000 		sts STAT_dt_step,r24
 1313 07a6 80E0      		ldi r24,lo8(0)
 1314 07a8 90E0      		ldi r25,hi8(0)
 1315               	.LVL18:
 1316               	.L90:
 1317               	.LBB104:
 1318               	.LBB105:
 1319               	.LBB106:
 1320               	.LM239:
 1321 07aa 5A98      		cbi 43-32,2
 1322               	.LM240:
 1323 07ac 5A9A      		sbi 43-32,2
 1324               	.LBE106:
 1325               	.LBE105:
 1326               	.LM241:
 1327 07ae 0196      		adiw r24,1
 1328 07b0 22E0      		ldi r18,hi8(640)
 1329 07b2 8038      		cpi r24,lo8(640)
 1330 07b4 9207      		cpc r25,r18
 1331 07b6 01F4      		brne .L90
 1332 07b8 00C0      		rjmp .L84
 1333               	.LVL19:
 1334               	.L89:
 1335               	.LBE104:
 1336               	.LM242:
 1337 07ba 8091 0000 		lds r24,BIG_STAT_N
 1338 07be 90E0      		ldi r25,lo8(0)
 1339 07c0 4817      		cp r20,r24
 1340 07c2 5907      		cpc r21,r25
 1341 07c4 00F4      		brsh .L84
 1342               	.LM243:
 1343 07c6 84E0      		ldi r24,lo8(4)
 1344 07c8 8093 0000 		sts STAT_dt_step,r24
 1345 07cc 80E0      		ldi r24,lo8(0)
 1346 07ce 90E0      		ldi r25,hi8(0)
 1347               	.LVL20:
 1348               	.L91:
 1349               	.LBB107:
 1350               	.LBB108:
 1351               	.LBB109:
 1352               	.LM244:
 1353 07d0 5A98      		cbi 43-32,2
 1354               	.LM245:
 1355 07d2 5A9A      		sbi 43-32,2
 1356               	.LBE109:
 1357               	.LBE108:
 1358               	.LM246:
 1359 07d4 0196      		adiw r24,1
 1360 07d6 2AE0      		ldi r18,hi8(2560)
 1361 07d8 8030      		cpi r24,lo8(2560)
 1362 07da 9207      		cpc r25,r18
 1363 07dc 01F4      		brne .L91
 1364               	.LVL21:
 1365               	.L84:
 1366               	.LBE107:
 1367               	.LM247:
 1368 07de 8091 0000 		lds r24,chan
 1369               	.LVL22:
 1370 07e2 0E94 0000 		call prepareResetDAC
 1371               	.LBB110:
 1372               	.LBB111:
 1373               	.LM248:
 1374 07e6 5A98      		cbi 43-32,2
 1375               	.LM249:
 1376 07e8 5A9A      		sbi 43-32,2
 1377               	.LBE111:
 1378               	.LBE110:
 1379               	.LM250:
 1380 07ea 8091 0000 		lds r24,an_cnt
 1381 07ee 9091 0000 		lds r25,(an_cnt)+1
 1382 07f2 0196      		adiw r24,1
 1383 07f4 9093 0000 		sts (an_cnt)+1,r25
 1384 07f8 8093 0000 		sts an_cnt,r24
 1385               	.LM251:
 1386 07fc 2091 0000 		lds r18,BIG_STAT_N
 1387 0800 45E0      		ldi r20,lo8(5)
 1388 0802 249F      		mul r18,r20
 1389 0804 9001      		movw r18,r0
 1390 0806 1124      		clr r1
 1391 0808 2817      		cp r18,r24
 1392 080a 3907      		cpc r19,r25
 1393 080c 00F4      		brsh .L92
 1394 080e 1092 0000 		sts (an_cnt)+1,__zero_reg__
 1395 0812 1092 0000 		sts an_cnt,__zero_reg__
 1396               	.L92:
 1397               	.LM252:
 1398 0816 6091 0000 		lds r22,BIG_STAT_N
 1399 081a 8091 0000 		lds r24,an_cnt
 1400 081e 9091 0000 		lds r25,(an_cnt)+1
 1401 0822 70E0      		ldi r23,lo8(0)
 1402 0824 0E94 0000 		call __udivmodhi4
 1403 0828 9093 0000 		sts (an_cnt_fast)+1,r25
 1404 082c 8093 0000 		sts an_cnt_fast,r24
 1405 0830 00C0      		rjmp .L38
 1406               	.L77:
 1407               	.LM253:
 1408 0832 8430      		cpi r24,4
 1409 0834 9105      		cpc r25,__zero_reg__
 1410 0836 01F4      		brne .L93
 1411               	.LM254:
 1412 0838 8091 0000 		lds r24,STAT_dt_step
 1413               	.L116:
 1414 083c 8093 C600 		sts 198,r24
 1415 0840 00C0      		rjmp .L111
 1416               	.L93:
 1417               	.LM255:
 1418 0842 8630      		cpi r24,6
 1419 0844 9105      		cpc r25,__zero_reg__
 1420 0846 01F4      		brne .L94
 1421               	.LM256:
 1422 0848 8091 0000 		lds r24,ref16
 1423 084c 9091 0000 		lds r25,(ref16)+1
 1424 0850 6091 0000 		lds r22,chan
 1425               	.L107:
 1426 0854 0E94 0000 		call prepareSetDAC
 1427               	.LBB112:
 1428               	.LBB113:
 1429               	.LM257:
 1430 0858 5A98      		cbi 43-32,2
 1431               	.LM258:
 1432 085a 5A9A      		sbi 43-32,2
 1433               	.L109:
 1434               	.LBE113:
 1435               	.LBE112:
 1436               	.LM259:
 1437 085c 8091 7A00 		lds r24,122
 1438 0860 8064      		ori r24,lo8(64)
 1439 0862 8093 7A00 		sts 122,r24
 1440 0866 00C0      		rjmp .L38
 1441               	.L94:
 1442               	.LM260:
 1443 0868 8730      		cpi r24,7
 1444 086a 9105      		cpc r25,__zero_reg__
 1445 086c 01F4      		brne .L95
 1446               	.LM261:
 1447 086e 80E0      		ldi r24,lo8(0)
 1448 0870 90E0      		ldi r25,hi8(0)
 1449 0872 6091 0000 		lds r22,chan
 1450 0876 0E94 0000 		call prepareSetDAC
 1451               	.LBB114:
 1452               	.LBB115:
 1453               	.LM262:
 1454 087a 5A98      		cbi 43-32,2
 1455               	.LM263:
 1456 087c 5A9A      		sbi 43-32,2
 1457               	.L108:
 1458               	.LBE115:
 1459               	.LBE114:
 1460               	.LM264:
 1461 087e 9091 7800 		lds r25,120
 1462 0882 9093 0000 		sts ADCL_,r25
 1463               	.LM265:
 1464 0886 8091 7900 		lds r24,121
 1465 088a 8093 0000 		sts ADCH_,r24
 1466               	.LM266:
 1467 088e 9093 C600 		sts 198,r25
 1468 0892 00C0      		rjmp .L38
 1469               	.L95:
 1470               	.LM267:
 1471 0894 0897      		sbiw r24,8
 1472 0896 01F4      		brne .L38
 1473               	.LM268:
 1474 0898 8091 0000 		lds r24,ADCH_
 1475               	.L104:
 1476 089c 8093 C600 		sts 198,r24
 1477               	.L38:
 1478               	.LM269:
 1479 08a0 1092 0000 		sts (ctr)+1,__zero_reg__
 1480 08a4 1092 0000 		sts ctr,__zero_reg__
 1481               	.LM270:
 1482 08a8 8091 0000 		lds r24,MD
 1483 08ac 2091 0000 		lds r18,event_cnt
 1484 08b0 3091 0000 		lds r19,(event_cnt)+1
 1485 08b4 8530      		cpi r24,lo8(5)
 1486 08b6 01F0      		breq .L96
 1487               	.LM271:
 1488 08b8 2F5F      		subi r18,lo8(-(1))
 1489 08ba 3F4F      		sbci r19,hi8(-(1))
 1490 08bc 3093 0000 		sts (event_cnt)+1,r19
 1491 08c0 2093 0000 		sts event_cnt,r18
 1492               	.LM272:
 1493 08c4 8091 0000 		lds r24,T
 1494 08c8 90E0      		ldi r25,lo8(0)
 1495 08ca 8217      		cp r24,r18
 1496 08cc 9307      		cpc r25,r19
 1497 08ce 04F4      		brge .L33
 1498               	.LM273:
 1499 08d0 1092 0000 		sts (event_cnt)+1,__zero_reg__
 1500 08d4 1092 0000 		sts event_cnt,__zero_reg__
 1501 08d8 00C0      		rjmp .L33
 1502               	.L96:
 1503               	.LM274:
 1504 08da 2031      		cpi r18,16
 1505 08dc 3105      		cpc r19,__zero_reg__
 1506 08de 04F4      		brge .L33
 1507               	.LM275:
 1508 08e0 2F5F      		subi r18,lo8(-(1))
 1509 08e2 3F4F      		sbci r19,hi8(-(1))
 1510 08e4 3093 0000 		sts (event_cnt)+1,r19
 1511 08e8 2093 0000 		sts event_cnt,r18
 1512               	.L33:
 1513               	.LM276:
 1514 08ec 8091 0000 		lds r24,ctr
 1515 08f0 9091 0000 		lds r25,(ctr)+1
 1516 08f4 0196      		adiw r24,1
 1517 08f6 9093 0000 		sts (ctr)+1,r25
 1518 08fa 8093 0000 		sts ctr,r24
 1519               	/* epilogue start */
 1520               	.LM277:
 1521 08fe FF91      		pop r31
 1522 0900 EF91      		pop r30
 1523 0902 BF91      		pop r27
 1524 0904 AF91      		pop r26
 1525 0906 9F91      		pop r25
 1526 0908 8F91      		pop r24
 1527 090a 7F91      		pop r23
 1528 090c 6F91      		pop r22
 1529 090e 5F91      		pop r21
 1530 0910 4F91      		pop r20
 1531 0912 3F91      		pop r19
 1532 0914 2F91      		pop r18
 1533 0916 0F90      		pop r0
 1534 0918 0FBE      		out __SREG__,r0
 1535 091a 0F90      		pop r0
 1536 091c 1F90      		pop __zero_reg__
 1537 091e 1895      		reti
 1538               	.LFE18:
 1540               	.global	__vector_18
 1542               	__vector_18:
 1543               	.LFB19:
 1544               	.LM278:
 1545 0920 1F92      		push __zero_reg__
 1546 0922 0F92      		push r0
 1547 0924 0FB6      		in r0,__SREG__
 1548 0926 0F92      		push r0
 1549 0928 1124      		clr __zero_reg__
 1550 092a 2F93      		push r18
 1551 092c 3F93      		push r19
 1552 092e 4F93      		push r20
 1553 0930 5F93      		push r21
 1554 0932 6F93      		push r22
 1555 0934 7F93      		push r23
 1556 0936 8F93      		push r24
 1557 0938 9F93      		push r25
 1558 093a AF93      		push r26
 1559 093c BF93      		push r27
 1560 093e EF93      		push r30
 1561 0940 FF93      		push r31
 1562               	/* prologue: Signal */
 1563               	/* frame size = 0 */
 1564               	.LM279:
 1565 0942 8091 0000 		lds r24,ptr
 1566 0946 8430      		cpi r24,lo8(4)
 1567 0948 01F4      		brne .+2
 1568 094a 00C0      		rjmp .L124
 1569 094c 8530      		cpi r24,lo8(5)
 1570 094e 00F4      		brsh .L130
 1571 0950 8130      		cpi r24,lo8(1)
 1572 0952 01F0      		breq .L121
 1573 0954 8130      		cpi r24,lo8(1)
 1574 0956 00F0      		brlo .L120
 1575 0958 8230      		cpi r24,lo8(2)
 1576 095a 01F4      		brne .+2
 1577 095c 00C0      		rjmp .L122
 1578 095e 8330      		cpi r24,lo8(3)
 1579 0960 01F0      		breq .+2
 1580 0962 00C0      		rjmp .L119
 1581 0964 00C0      		rjmp .L137
 1582               	.L130:
 1583 0966 8730      		cpi r24,lo8(7)
 1584 0968 01F4      		brne .+2
 1585 096a 00C0      		rjmp .L127
 1586 096c 8830      		cpi r24,lo8(8)
 1587 096e 00F4      		brsh .L131
 1588 0970 8530      		cpi r24,lo8(5)
 1589 0972 01F4      		brne .+2
 1590 0974 00C0      		rjmp .L125
 1591 0976 8630      		cpi r24,lo8(6)
 1592 0978 01F0      		breq .+2
 1593 097a 00C0      		rjmp .L119
 1594 097c 00C0      		rjmp .L138
 1595               	.L131:
 1596 097e 8830      		cpi r24,lo8(8)
 1597 0980 01F4      		brne .+2
 1598 0982 00C0      		rjmp .L128
 1599 0984 8930      		cpi r24,lo8(9)
 1600 0986 01F0      		breq .+2
 1601 0988 00C0      		rjmp .L119
 1602 098a 00C0      		rjmp .L139
 1603               	.L120:
 1604               	.LM280:
 1605 098c 8091 C600 		lds r24,198
 1606 0990 8F3F      		cpi r24,lo8(-1)
 1607 0992 01F0      		breq .L132
 1608               	.LM281:
 1609 0994 1092 0000 		sts sync,__zero_reg__
 1610               	.LM282:
 1611 0998 83E0      		ldi r24,lo8(3)
 1612 099a 8093 0000 		sts ptr,r24
 1613 099e 00C0      		rjmp .L119
 1614               	.L132:
 1615               	.LM283:
 1616 09a0 81E0      		ldi r24,lo8(1)
 1617 09a2 8093 0000 		sts sync,r24
 1618 09a6 00C0      		rjmp .L119
 1619               	.L121:
 1620               	.LM284:
 1621 09a8 2091 C600 		lds r18,198
 1622 09ac 2093 0000 		sts MD,r18
 1623               	.LM285:
 1624 09b0 2130      		cpi r18,lo8(1)
 1625 09b2 01F4      		brne .L133
 1626               	.LM286:
 1627 09b4 84E0      		ldi r24,lo8(4)
 1628 09b6 90E0      		ldi r25,hi8(4)
 1629 09b8 9093 0000 		sts (time_step)+1,r25
 1630 09bc 8093 0000 		sts time_step,r24
 1631 09c0 00C0      		rjmp .L119
 1632               	.L133:
 1633               	.LM287:
 1634 09c2 86E0      		ldi r24,lo8(6)
 1635 09c4 90E0      		ldi r25,hi8(6)
 1636 09c6 9093 0000 		sts (time_step)+1,r25
 1637 09ca 8093 0000 		sts time_step,r24
 1638               	.LM288:
 1639 09ce 2230      		cpi r18,lo8(2)
 1640 09d0 01F0      		breq .+2
 1641 09d2 00C0      		rjmp .L119
 1642               	.LM289:
 1643 09d4 1092 0000 		sts PROGRAM_done,__zero_reg__
 1644               	.LM290:
 1645 09d8 1092 0000 		sts (proging_val)+1,__zero_reg__
 1646 09dc 1092 0000 		sts proging_val,__zero_reg__
 1647 09e0 00C0      		rjmp .L119
 1648               	.L122:
 1649               	.LM291:
 1650 09e2 8091 C600 		lds r24,198
 1651 09e6 90E0      		ldi r25,lo8(0)
 1652 09e8 9093 0000 		sts (x16_simple)+1,r25
 1653 09ec 8093 0000 		sts x16_simple,r24
 1654               	.LM292:
 1655 09f0 74E0      		ldi r23,4
 1656 09f2 880F      	1:	lsl r24
 1657 09f4 991F      		rol r25
 1658 09f6 7A95      		dec r23
 1659 09f8 01F4      		brne 1b
 1660 09fa 9093 0000 		sts (x16)+1,r25
 1661 09fe 8093 0000 		sts x16,r24
 1662 0a02 00C0      		rjmp .L119
 1663               	.L137:
 1664               	.LM293:
 1665 0a04 8091 C600 		lds r24,198
 1666 0a08 90E0      		ldi r25,lo8(0)
 1667 0a0a 64E0      		ldi r22,4
 1668 0a0c 880F      	1:	lsl r24
 1669 0a0e 991F      		rol r25
 1670 0a10 6A95      		dec r22
 1671 0a12 01F4      		brne 1b
 1672 0a14 9093 0000 		sts (ref16)+1,r25
 1673 0a18 8093 0000 		sts ref16,r24
 1674 0a1c 00C0      		rjmp .L119
 1675               	.L124:
 1676               	.LM294:
 1677 0a1e 8091 0000 		lds r24,MD
 1678 0a22 8230      		cpi r24,lo8(2)
 1679 0a24 01F4      		brne .L134
 1680               	.LM295:
 1681 0a26 8091 C600 		lds r24,198
 1682 0a2a 8093 0000 		sts t1,r24
 1683 0a2e 00C0      		rjmp .L119
 1684               	.L134:
 1685               	.LM296:
 1686 0a30 8091 C600 		lds r24,198
 1687 0a34 90E0      		ldi r25,lo8(0)
 1688 0a36 54E0      		ldi r21,4
 1689 0a38 880F      	1:	lsl r24
 1690 0a3a 991F      		rol r25
 1691 0a3c 5A95      		dec r21
 1692 0a3e 01F4      		brne 1b
 1693 0a40 9093 0000 		sts (reset16)+1,r25
 1694 0a44 8093 0000 		sts reset16,r24
 1695 0a48 00C0      		rjmp .L119
 1696               	.L125:
 1697               	.LM297:
 1698 0a4a 8091 C600 		lds r24,198
 1699 0a4e 8093 0000 		sts t2,r24
 1700 0a52 00C0      		rjmp .L119
 1701               	.L138:
 1702               	.LM298:
 1703 0a54 8091 C600 		lds r24,198
 1704 0a58 8093 0000 		sts dT,r24
 1705 0a5c 00C0      		rjmp .L119
 1706               	.L127:
 1707               	.LM299:
 1708 0a5e 8091 C600 		lds r24,198
 1709 0a62 8093 0000 		sts T,r24
 1710 0a66 00C0      		rjmp .L119
 1711               	.L128:
 1712               	.LM300:
 1713 0a68 8091 C600 		lds r24,198
 1714 0a6c 8093 0000 		sts chan,r24
 1715 0a70 00C0      		rjmp .L119
 1716               	.L139:
 1717               	.LM301:
 1718 0a72 8091 C600 		lds r24,198
 1719 0a76 E091 0000 		lds r30,chan
 1720 0a7a F0E0      		ldi r31,lo8(0)
 1721 0a7c E050      		subi r30,lo8(-(reverted))
 1722 0a7e F040      		sbci r31,hi8(-(reverted))
 1723 0a80 8083      		st Z,r24
 1724               	.LM302:
 1725 0a82 8091 0000 		lds r24,MD
 1726 0a86 8330      		cpi r24,lo8(3)
 1727 0a88 01F4      		brne .L135
 1728               	.LM303:
 1729 0a8a 0E94 0000 		call gatherMult
 1730 0a8e 00C0      		rjmp .L119
 1731               	.L135:
 1732               	.LM304:
 1733 0a90 8430      		cpi r24,lo8(4)
 1734 0a92 01F4      		brne .L119
 1735               	.LM305:
 1736 0a94 0E94 0000 		call separMult
 1737               	.L119:
 1738               	.LM306:
 1739 0a98 8091 0000 		lds r24,t2
 1740 0a9c 9091 0000 		lds r25,dT
 1741 0aa0 890F      		add r24,r25
 1742 0aa2 8093 0000 		sts dTt2,r24
 1743               	.LM307:
 1744 0aa6 8091 0000 		lds r24,ptr
 1745 0aaa 8F5F      		subi r24,lo8(-(1))
 1746 0aac 6AE0      		ldi r22,lo8(10)
 1747 0aae 0E94 0000 		call __udivmodqi4
 1748 0ab2 9093 0000 		sts ptr,r25
 1749               	/* epilogue start */
 1750               	.LM308:
 1751 0ab6 FF91      		pop r31
 1752 0ab8 EF91      		pop r30
 1753 0aba BF91      		pop r27
 1754 0abc AF91      		pop r26
 1755 0abe 9F91      		pop r25
 1756 0ac0 8F91      		pop r24
 1757 0ac2 7F91      		pop r23
 1758 0ac4 6F91      		pop r22
 1759 0ac6 5F91      		pop r21
 1760 0ac8 4F91      		pop r20
 1761 0aca 3F91      		pop r19
 1762 0acc 2F91      		pop r18
 1763 0ace 0F90      		pop r0
 1764 0ad0 0FBE      		out __SREG__,r0
 1765 0ad2 0F90      		pop r0
 1766 0ad4 1F90      		pop __zero_reg__
 1767 0ad6 1895      		reti
 1768               	.LFE19:
 1770               	.global	SYNC_PINS
 1771               		.data
 1774               	SYNC_PINS:
 1775 0000 05        		.byte	5
 1776 0001 06        		.byte	6
 1777 0002 07        		.byte	7
 1778               	.global	MD
 1779               	.global	MD
 1780               		.section .bss
 1783               	MD:
 1784 0000 00        		.skip 1,0
 1785               	.global	STAT_N
 1786               		.data
 1789               	STAT_N:
 1790 0003 0E        		.byte	14
 1791               	.global	STAT_CYCLE
 1794               	STAT_CYCLE:
 1795 0004 05        		.byte	5
 1796               	.global	chan_addrs
 1799               	chan_addrs:
 1800 0005 00        		.byte	0
 1801 0006 01        		.byte	1
 1802 0007 02        		.byte	2
 1803 0008 03        		.byte	3
 1804 0009 04        		.byte	4
 1805 000a 05        		.byte	5
 1806 000b 06        		.byte	6
 1807 000c 07        		.byte	7
 1808               	.global	VAC16
 1809               	.global	VAC16
 1810               		.section .bss
 1813               	VAC16:
 1814 0001 0000      		.skip 2,0
 1815               	.global	VAC16_H
 1816               	.global	VAC16_H
 1819               	VAC16_H:
 1820 0003 0000      		.skip 2,0
 1821               	.global	VAC16_HH
 1822               	.global	VAC16_HH
 1825               	VAC16_HH:
 1826 0005 0000      		.skip 2,0
 1827               	.global	proging_val
 1828               	.global	proging_val
 1831               	proging_val:
 1832 0007 0000      		.skip 2,0
 1833               	.global	x16
 1834               	.global	x16
 1837               	x16:
 1838 0009 0000      		.skip 2,0
 1839               	.global	ref16
 1840               	.global	ref16
 1843               	ref16:
 1844 000b 0000      		.skip 2,0
 1845               	.global	reset16
 1846               	.global	reset16
 1849               	reset16:
 1850 000d 0000      		.skip 2,0
 1851               	.global	sync
 1852               	.global	sync
 1855               	sync:
 1856 000f 00        		.skip 1,0
 1857               	.global	t1
 1858               		.data
 1861               	t1:
 1862 000d 02        		.byte	2
 1863               	.global	t2
 1866               	t2:
 1867 000e 02        		.byte	2
 1868               	.global	dTt2
 1871               	dTt2:
 1872 000f 0A        		.byte	10
 1873               	.global	pos_phase
 1876               	pos_phase:
 1877 0010 01        		.byte	1
 1878               	.global	STAT_dt_step
 1879               	.global	STAT_dt_step
 1880               		.section .bss
 1883               	STAT_dt_step:
 1884 0010 00        		.skip 1,0
 1885               	.global	STAT_V_step
 1886               	.global	STAT_V_step
 1889               	STAT_V_step:
 1890 0011 00        		.skip 1,0
 1891               	.global	ptr
 1892               	.global	ptr
 1895               	ptr:
 1896 0012 00        		.skip 1,0
 1897               	.global	PROGRAM_done
 1898               	.global	PROGRAM_done
 1901               	PROGRAM_done:
 1902 0013 00        		.skip 1,0
 1903               	.global	chan
 1904               	.global	chan
 1907               	chan:
 1908 0014 00        		.skip 1,0
 1909               	.global	an_cnt
 1910               	.global	an_cnt
 1913               	an_cnt:
 1914 0015 0000      		.skip 2,0
 1915               	.global	an_cnt_fast
 1916               	.global	an_cnt_fast
 1919               	an_cnt_fast:
 1920 0017 0000      		.skip 2,0
 1921               	.global	reverted
 1922               	.global	reverted
 1925               	reverted:
 1926 0019 0000 0000 		.skip 17,0
 1926      0000 0000 
 1926      0000 0000 
 1926      0000 0000 
 1926      00
 1927               	.global	time_step
 1928               		.data
 1931               	time_step:
 1932 0011 0600      		.word	6
 1933               	.global	eventN
 1936               	eventN:
 1937 0013 6400      		.word	100
 1938               		.lcomm adc_h.1535,2
 1939               		.lcomm i.1528,2
 1940               		.comm BIG_STAT_N,1,1
 1941               		.comm x16_grad,2,1
 1942               		.comm x16_simple,2,1
 1943               		.comm dT,1,1
 1944               		.comm T,1,1
 1945               		.comm send8,1,1
 1946               		.comm UDP_cnt,1,1
 1947               		.comm c,1,1
 1948               		.comm _adc,2,1
 1949               		.comm ctr,2,1
 1950               		.comm event_cnt,2,1
 1951               		.comm ADC_cnt,2,1
 1952               		.comm ADCH_,1,1
 1953               		.comm ADCL_,1,1
 1954               		.comm ADCH__,1,1
 1955               		.comm ADCL__,1,1
 2084               	.Letext0:
DEFINED SYMBOLS
                            *ABS*:00000000 main.c
C:\Users\DrPepper\AppData\Local\Temp/ccPB2s88.s:2      *ABS*:0000003f __SREG__
C:\Users\DrPepper\AppData\Local\Temp/ccPB2s88.s:3      *ABS*:0000003e __SP_H__
C:\Users\DrPepper\AppData\Local\Temp/ccPB2s88.s:4      *ABS*:0000003d __SP_L__
C:\Users\DrPepper\AppData\Local\Temp/ccPB2s88.s:5      *ABS*:00000034 __CCP__
C:\Users\DrPepper\AppData\Local\Temp/ccPB2s88.s:6      *ABS*:00000000 __tmp_reg__
C:\Users\DrPepper\AppData\Local\Temp/ccPB2s88.s:7      *ABS*:00000001 __zero_reg__
C:\Users\DrPepper\AppData\Local\Temp/ccPB2s88.s:18     .text:00000000 ADC_Init
C:\Users\DrPepper\AppData\Local\Temp/ccPB2s88.s:42     .text:00000016 timer_init
C:\Users\DrPepper\AppData\Local\Temp/ccPB2s88.s:67     .text:0000002e uart_init
C:\Users\DrPepper\AppData\Local\Temp/ccPB2s88.s:92     .text:00000044 SPI_MasterInit
C:\Users\DrPepper\AppData\Local\Temp/ccPB2s88.s:110    .text:0000004e gatherMult
C:\Users\DrPepper\AppData\Local\Temp/ccPB2s88.s:138    .text:00000060 separMult
C:\Users\DrPepper\AppData\Local\Temp/ccPB2s88.s:166    .text:00000072 SPI_WriteByte
C:\Users\DrPepper\AppData\Local\Temp/ccPB2s88.s:186    .text:0000007c prepareResetDAC
C:\Users\DrPepper\AppData\Local\Temp/ccPB2s88.s:1774   .data:00000000 SYNC_PINS
C:\Users\DrPepper\AppData\Local\Temp/ccPB2s88.s:1799   .data:00000005 chan_addrs
C:\Users\DrPepper\AppData\Local\Temp/ccPB2s88.s:259    .text:000000f2 prepareSetDAC
                            *COM*:00000001 send8
C:\Users\DrPepper\AppData\Local\Temp/ccPB2s88.s:359    .text:0000018e set_reverser
C:\Users\DrPepper\AppData\Local\Temp/ccPB2s88.s:372    .text:00000190 setDAC
C:\Users\DrPepper\AppData\Local\Temp/ccPB2s88.s:388    .text:00000196 main
C:\Users\DrPepper\AppData\Local\Temp/ccPB2s88.s:1794   .data:00000004 STAT_CYCLE
C:\Users\DrPepper\AppData\Local\Temp/ccPB2s88.s:1789   .data:00000003 STAT_N
                            *COM*:00000001 BIG_STAT_N
C:\Users\DrPepper\AppData\Local\Temp/ccPB2s88.s:521    .text:00000244 __vector_9
                            *COM*:00000002 ctr
C:\Users\DrPepper\AppData\Local\Temp/ccPB2s88.s:1931   .data:00000011 time_step
C:\Users\DrPepper\AppData\Local\Temp/ccPB2s88.s:1783   .bss:00000000 MD
                            *COM*:00000002 event_cnt
                            *COM*:00000001 ADCL_
                            *COM*:00000001 ADCH_
C:\Users\DrPepper\AppData\Local\Temp/ccPB2s88.s:1861   .data:0000000d t1
                            *COM*:00000001 dT
C:\Users\DrPepper\AppData\Local\Temp/ccPB2s88.s:1871   .data:0000000f dTt2
                            *COM*:00000002 _adc
C:\Users\DrPepper\AppData\Local\Temp/ccPB2s88.s:1938   .bss:0000002c i.1528
                            *COM*:00000001 UDP_cnt
                            *COM*:00000001 ADCL__
                            *COM*:00000001 ADCH__
C:\Users\DrPepper\AppData\Local\Temp/ccPB2s88.s:1813   .bss:00000001 VAC16
C:\Users\DrPepper\AppData\Local\Temp/ccPB2s88.s:1819   .bss:00000003 VAC16_H
C:\Users\DrPepper\AppData\Local\Temp/ccPB2s88.s:1876   .data:00000010 pos_phase
C:\Users\DrPepper\AppData\Local\Temp/ccPB2s88.s:1843   .bss:0000000b ref16
C:\Users\DrPepper\AppData\Local\Temp/ccPB2s88.s:1837   .bss:00000009 x16
C:\Users\DrPepper\AppData\Local\Temp/ccPB2s88.s:1907   .bss:00000014 chan
                            *COM*:00000001 T
C:\Users\DrPepper\AppData\Local\Temp/ccPB2s88.s:1901   .bss:00000013 PROGRAM_done
C:\Users\DrPepper\AppData\Local\Temp/ccPB2s88.s:1831   .bss:00000007 proging_val
C:\Users\DrPepper\AppData\Local\Temp/ccPB2s88.s:1866   .data:0000000e t2
                             .bss:0000002a adc_h.1535
C:\Users\DrPepper\AppData\Local\Temp/ccPB2s88.s:1849   .bss:0000000d reset16
C:\Users\DrPepper\AppData\Local\Temp/ccPB2s88.s:1913   .bss:00000015 an_cnt
C:\Users\DrPepper\AppData\Local\Temp/ccPB2s88.s:1889   .bss:00000011 STAT_V_step
                            *COM*:00000002 x16_grad
C:\Users\DrPepper\AppData\Local\Temp/ccPB2s88.s:1919   .bss:00000017 an_cnt_fast
C:\Users\DrPepper\AppData\Local\Temp/ccPB2s88.s:1883   .bss:00000010 STAT_dt_step
C:\Users\DrPepper\AppData\Local\Temp/ccPB2s88.s:1542   .text:00000920 __vector_18
C:\Users\DrPepper\AppData\Local\Temp/ccPB2s88.s:1895   .bss:00000012 ptr
C:\Users\DrPepper\AppData\Local\Temp/ccPB2s88.s:1855   .bss:0000000f sync
                            *COM*:00000002 x16_simple
C:\Users\DrPepper\AppData\Local\Temp/ccPB2s88.s:1925   .bss:00000019 reverted
C:\Users\DrPepper\AppData\Local\Temp/ccPB2s88.s:1825   .bss:00000005 VAC16_HH
C:\Users\DrPepper\AppData\Local\Temp/ccPB2s88.s:1936   .data:00000013 eventN
                            *COM*:00000001 c
                            *COM*:00000002 ADC_cnt

UNDEFINED SYMBOLS
__divmodqi4
__udivmodqi4
__udivmodhi4
__do_copy_data
__do_clear_bss
